
========================================================================

** ELF Header Information

    File Name: bin\testprojekt.axf

    Machine class: ELFCLASS32 (32-bit)
    Data encoding: ELFDATA2LSB (Little endian)
    Header version: EV_CURRENT (Current version)
    Operating System ABI: none
    ABI Version: 0
    File Type: ET_EXEC (Executable) (2)
    Machine: EM_ARM (ARM)

    Image Entry point: 0x000000e9
    Flags: EF_ARM_HASENTRY (0x05000002)

    ARM ELF revision: 5 (ABI version 2)

    Conforms to Base float procedure-call standard

    Built with
    Component: ARM Compiler 6.9 Tool: armasm [5ced1b00]
    Component: ARM Compiler 5.06 update 4 (build 422) Tool: armasm [4d35cf]
    Component: ARM Compiler 6.9 Tool: armlink [5ced1b00]
    Component: ARM Compiler 5.06 update 4 (build 422) Tool: armlink [4d35d2]

    Header size: 52 bytes (0x34)
    Program header entry size: 32 bytes (0x20)
    Section header entry size: 40 bytes (0x28)

    Program header entries: 1
    Section header entries: 18

    Program header offset: 126300 (0x0001ed5c)
    Section header offset: 126332 (0x0001ed7c)

    Section header string table index: 17

========================================================================

** Program header #0 (PT_LOAD) [PF_X + PF_W + PF_R + PF_ARM_ENTRY]
    Size : 261856 bytes (28024 bytes in file)
    Virtual address: 0x00000000 (Alignment 8)


========================================================================

** Section #1 'FLASH' (SHT_PROGBITS) [SHF_ALLOC + SHF_EXECINSTR]
    Size   : 27912 bytes (alignment 8)
    Address: 0x00000000

    $d
    RESET
    __Vectors
        0x00000000:    100391d8    ....    DCD    268669400
        0x00000004:    000000c1    ....    DCD    193
        0x00000008:    000000dd    ....    DCD    221
        0x0000000c:    00003a99    .:..    DCD    15001
        0x00000010:    00003a99    .:..    DCD    15001
        0x00000014:    00003a99    .:..    DCD    15001
        0x00000018:    00003a99    .:..    DCD    15001
        0x0000001c:    00000000    ....    DCD    0
        0x00000020:    00000000    ....    DCD    0
        0x00000024:    00000000    ....    DCD    0
        0x00000028:    00000000    ....    DCD    0
        0x0000002c:    000000e3    ....    DCD    227
        0x00000030:    000000e3    ....    DCD    227
        0x00000034:    00000000    ....    DCD    0
        0x00000038:    000000e3    ....    DCD    227
        0x0000003c:    000000e3    ....    DCD    227
        0x00000040:    000000e3    ....    DCD    227
        0x00000044:    000000e3    ....    DCD    227
        0x00000048:    000000e3    ....    DCD    227
        0x0000004c:    000000e3    ....    DCD    227
        0x00000050:    000000e3    ....    DCD    227
        0x00000054:    000000e3    ....    DCD    227
        0x00000058:    000000e3    ....    DCD    227
        0x0000005c:    000000e3    ....    DCD    227
        0x00000060:    000000e3    ....    DCD    227
        0x00000064:    000000e3    ....    DCD    227
        0x00000068:    000000e3    ....    DCD    227
        0x0000006c:    000000e3    ....    DCD    227
        0x00000070:    000000e3    ....    DCD    227
        0x00000074:    000000e3    ....    DCD    227
        0x00000078:    000000e3    ....    DCD    227
        0x0000007c:    000000e3    ....    DCD    227
        0x00000080:    000000e3    ....    DCD    227
        0x00000084:    000000e3    ....    DCD    227
        0x00000088:    000000e3    ....    DCD    227
        0x0000008c:    000000e3    ....    DCD    227
        0x00000090:    000000e3    ....    DCD    227
        0x00000094:    000000e3    ....    DCD    227
        0x00000098:    000000e3    ....    DCD    227
        0x0000009c:    000000e3    ....    DCD    227
        0x000000a0:    000000e3    ....    DCD    227
        0x000000a4:    000000e3    ....    DCD    227
        0x000000a8:    000000e3    ....    DCD    227
        0x000000ac:    000000e3    ....    DCD    227
        0x000000b0:    000000e3    ....    DCD    227
        0x000000b4:    000000e3    ....    DCD    227
        0x000000b8:    000000e3    ....    DCD    227
        0x000000bc:    000000e3    ....    DCD    227
    $t
    $v0
    Reset_Handler
        0x000000c0:    f64e5088    N..P    MOV      r0,#0xed88
        0x000000c4:    f2ce0000    ....    MOVT     r0,#0xe000
        0x000000c8:    6801        .h      LDR      r1,[r0,#0]
        0x000000ca:    f4410170    A.p.    ORR      r1,r1,#0xf00000
        0x000000ce:    6001        .`      STR      r1,[r0,#0]
        0x000000d0:    f3bf8f4f    ..O.    DSB      
        0x000000d4:    f3bf8f6f    ..o.    ISB      
        0x000000d8:    4802        .H      LDR      r0,[pc,#8] ; [0xe4] = 0xe9
        0x000000da:    4700        .G      BX       r0
    am_nmi_isr
        0x000000dc:    e7fe        ..      B        am_nmi_isr ; 0xdc
        0x000000de:    e7fe        ..      B        0xde ; am_nmi_isr + 2
    am_memmanage_isr
        0x000000e0:    e7fe        ..      B        am_memmanage_isr ; 0xe0
    am_adc_isr
    am_brownout_isr
    am_clkgen_isr
    am_ctimer_isr
    am_debugmon_isr
    am_flash_isr
    am_gpio_isr
    am_iomaster0_isr
    am_iomaster1_isr
    am_iomaster2_isr
    am_iomaster3_isr
    am_iomaster4_isr
    am_iomaster5_isr
    am_ioslave_acc_isr
    am_ioslave_ios_isr
    am_pdm_isr
    am_pendsv_isr
    am_software0_isr
    am_software1_isr
    am_software2_isr
    am_software3_isr
    am_stimer_cmpr0_isr
    am_stimer_cmpr1_isr
    am_stimer_cmpr2_isr
    am_stimer_cmpr3_isr
    am_stimer_cmpr4_isr
    am_stimer_cmpr5_isr
    am_stimer_cmpr6_isr
    am_stimer_cmpr7_isr
    am_stimer_isr
    am_svcall_isr
    am_systick_isr
    am_uart0_isr
    am_uart1_isr
    am_uart_isr
    am_vcomp_isr
    am_watchdog_isr
        0x000000e2:    e7fe        ..      B        am_adc_isr ; 0xe2
    $d
        0x000000e4:    000000e9    ....    DCD    233
    $t
    !!!main
    __main
        0x000000e8:    f000f802    ....    BL       __scatterload ; 0xf0
        0x000000ec:    f000f840    ..@.    BL       __rt_entry ; 0x170
    !!!scatter
    __scatterload
    __scatterload_rt2
    __scatterload_rt2_thumb_only
        0x000000f0:    a00a        ..      ADR      r0,{pc}+0x2c ; 0x11c
        0x000000f2:    e8900c00    ....    LDM      r0,{r10,r11}
        0x000000f6:    4482        .D      ADD      r10,r10,r0
        0x000000f8:    4483        .D      ADD      r11,r11,r0
        0x000000fa:    f1aa0701    ....    SUB      r7,r10,#1
    __scatterload_null
        0x000000fe:    45da        .E      CMP      r10,r11
        0x00000100:    d101        ..      BNE      0x106 ; __scatterload_null + 8
        0x00000102:    f000f835    ..5.    BL       __rt_entry ; 0x170
        0x00000106:    f2af0e09    ....    ADR      lr,{pc}-7 ; 0xff
        0x0000010a:    e8ba000f    ....    LDM      r10!,{r0-r3}
        0x0000010e:    f0130f01    ....    TST      r3,#1
        0x00000112:    bf18        ..      IT       NE
        0x00000114:    1afb        ..      SUBNE    r3,r7,r3
        0x00000116:    f0430301    C...    ORR      r3,r3,#1
        0x0000011a:    4718        .G      BX       r3
    $d
        0x0000011c:    00006bcc    .k..    DCD    27596
        0x00000120:    00006bec    .k..    DCD    27628
    $t
    !!handler_copy
    __scatterload_copy
        0x00000124:    3a10        .:      SUBS     r2,r2,#0x10
        0x00000126:    bf24        $.      ITT      CS
        0x00000128:    c878        x.      LDMCS    r0!,{r3-r6}
        0x0000012a:    c178        x.      STMCS    r1!,{r3-r6}
        0x0000012c:    d8fa        ..      BHI      __scatterload_copy ; 0x124
        0x0000012e:    0752        R.      LSLS     r2,r2,#29
        0x00000130:    bf24        $.      ITT      CS
        0x00000132:    c830        0.      LDMCS    r0!,{r4,r5}
        0x00000134:    c130        0.      STMCS    r1!,{r4,r5}
        0x00000136:    bf44        D.      ITT      MI
        0x00000138:    6804        .h      LDRMI    r4,[r0,#0]
        0x0000013a:    600c        .`      STRMI    r4,[r1,#0]
        0x0000013c:    4770        pG      BX       lr
        0x0000013e:    0000        ..      MOVS     r0,r0
    !!handler_zi
    __scatterload_zeroinit
        0x00000140:    2300        .#      MOVS     r3,#0
        0x00000142:    2400        .$      MOVS     r4,#0
        0x00000144:    2500        .%      MOVS     r5,#0
        0x00000146:    2600        .&      MOVS     r6,#0
        0x00000148:    3a10        .:      SUBS     r2,r2,#0x10
        0x0000014a:    bf28        (.      IT       CS
        0x0000014c:    c178        x.      STMCS    r1!,{r3-r6}
        0x0000014e:    d8fb        ..      BHI      0x148 ; __scatterload_zeroinit + 8
        0x00000150:    0752        R.      LSLS     r2,r2,#29
        0x00000152:    bf28        (.      IT       CS
        0x00000154:    c130        0.      STMCS    r1!,{r4,r5}
        0x00000156:    bf48        H.      IT       MI
        0x00000158:    600b        .`      STRMI    r3,[r1,#0]
        0x0000015a:    4770        pG      BX       lr
    .ARM.Collect$$libinit$$00000000
    __rt_lib_init
        0x0000015c:    b51f        ..      PUSH     {r0-r4,lr}
    .ARM.Collect$$libinit$$00000001
    __rt_lib_init_fp_1
        0x0000015e:    f006fd1e    ....    BL       _fp_init ; 0x6b9e
    .ARM.Collect$$libinit$$00000004
    .ARM.Collect$$libinit$$00000005
    __rt_lib_init_heap_2
    __rt_lib_init_preinit_1
        0x00000162:    e89d0003    ....    LDM      sp,{r0,r1}
        0x00000166:    f000f9cb    ....    BL       _init_alloc ; 0x500
    .ARM.Collect$$libinit$$0000000A
    .ARM.Collect$$libinit$$0000000C
    .ARM.Collect$$libinit$$0000000E
    .ARM.Collect$$libinit$$00000011
    .ARM.Collect$$libinit$$00000013
    .ARM.Collect$$libinit$$00000015
    .ARM.Collect$$libinit$$00000017
    .ARM.Collect$$libinit$$00000019
    .ARM.Collect$$libinit$$0000001B
    .ARM.Collect$$libinit$$0000001D
    .ARM.Collect$$libinit$$0000001F
    .ARM.Collect$$libinit$$00000021
    .ARM.Collect$$libinit$$00000023
    .ARM.Collect$$libinit$$00000025
    .ARM.Collect$$libinit$$0000002C
    .ARM.Collect$$libinit$$0000002E
    .ARM.Collect$$libinit$$00000030
    .ARM.Collect$$libinit$$00000032
    .ARM.Collect$$libinit$$00000033
    __rt_lib_init_alloca_1
    __rt_lib_init_argv_1
    __rt_lib_init_atexit_1
    __rt_lib_init_clock_1
    __rt_lib_init_cpp_1
    __rt_lib_init_exceptions_1
    __rt_lib_init_fp_trap_1
    __rt_lib_init_getenv_1
    __rt_lib_init_heap_1
    __rt_lib_init_lc_collate_1
    __rt_lib_init_lc_ctype_1
    __rt_lib_init_lc_monetary_1
    __rt_lib_init_lc_numeric_1
    __rt_lib_init_lc_time_1
    __rt_lib_init_rand_1
    __rt_lib_init_return
    __rt_lib_init_signal_1
    __rt_lib_init_stdio_1
    __rt_lib_init_user_alloc_1
        0x0000016a:    bd1f        ..      POP      {r0-r4,pc}
    .ARM.Collect$$libshutdown$$00000000
    __rt_lib_shutdown
        0x0000016c:    b510        ..      PUSH     {r4,lr}
    .ARM.Collect$$libshutdown$$00000002
    .ARM.Collect$$libshutdown$$00000004
    .ARM.Collect$$libshutdown$$00000007
    .ARM.Collect$$libshutdown$$0000000A
    .ARM.Collect$$libshutdown$$0000000C
    .ARM.Collect$$libshutdown$$0000000F
    .ARM.Collect$$libshutdown$$00000010
    __rt_lib_shutdown_cpp_1
    __rt_lib_shutdown_fp_trap_1
    __rt_lib_shutdown_heap_1
    __rt_lib_shutdown_return
    __rt_lib_shutdown_signal_1
    __rt_lib_shutdown_stdio_1
    __rt_lib_shutdown_user_alloc_1
        0x0000016e:    bd10        ..      POP      {r4,pc}
    .ARM.Collect$$rtentry$$00000000
    .ARM.Collect$$rtentry$$00000002
    .ARM.Collect$$rtentry$$00000004
    __rt_entry
    __rt_entry_presh_1
    __rt_entry_sh
        0x00000170:    f000fa54    ..T.    BL       __semihosting_library_function ; 0x61c
        0x00000174:    4611        .F      MOV      r1,r2
    .ARM.Collect$$rtentry$$00000009
    .ARM.Collect$$rtentry$$0000000A
    __rt_entry_li
    __rt_entry_postsh_1
        0x00000176:    f7fffff1    ....    BL       __rt_lib_init ; 0x15c
    .ARM.Collect$$rtentry$$0000000C
    .ARM.Collect$$rtentry$$0000000D
    __rt_entry_main
    __rt_entry_postli_1
        0x0000017a:    f004fddf    ....    BL       main ; 0x4d3c
        0x0000017e:    f000fa72    ..r.    BL       exit ; 0x666
    .ARM.Collect$$rtexit$$00000000
    __rt_exit
        0x00000182:    b403        ..      PUSH     {r0,r1}
    .ARM.Collect$$rtexit$$00000002
    .ARM.Collect$$rtexit$$00000003
    __rt_exit_ls
    __rt_exit_prels_1
        0x00000184:    f7fffff2    ....    BL       __rt_lib_shutdown ; 0x16c
    .ARM.Collect$$rtexit$$00000004
    __rt_exit_exit
        0x00000188:    bc03        ..      POP      {r0,r1}
        0x0000018a:    f000faa3    ....    BL       _sys_exit ; 0x6d4
        0x0000018e:    0000        ..      MOVS     r0,r0
    .emb_text
    $v0
    am_hal_interrupt_master_enable
        0x00000190:    f3ef8010    ....    MRS      r0,PRIMASK
        0x00000194:    b662        b.      CPSIE    i
        0x00000196:    4770        pG      BX       lr
    am_hal_interrupt_master_disable
        0x00000198:    f3ef8010    ....    MRS      r0,PRIMASK
        0x0000019c:    b672        r.      CPSID    i
        0x0000019e:    4770        pG      BX       lr
    am_hal_interrupt_master_set
        0x000001a0:    f3808810    ....    MSR      PRIMASK,r0
        0x000001a4:    4770        pG      BX       lr
        0x000001a6:    0000        ..      MOVS     r0,r0
    .text
    $v0
    __user_initial_stackheap
        0x000001a8:    4802        .H      LDR      r0,[pc,#8] ; [0x1b4] = 0x100001d8
        0x000001aa:    4903        .I      LDR      r1,[pc,#12] ; [0x1b8] = 0x100391d8
        0x000001ac:    4a03        .J      LDR      r2,[pc,#12] ; [0x1bc] = 0x100341d8
        0x000001ae:    4b04        .K      LDR      r3,[pc,#16] ; [0x1c0] = 0x100341d8
        0x000001b0:    4770        pG      BX       lr
    $d
        0x000001b2:    0000        ..      DCW    0
        0x000001b4:    100001d8    ....    DCD    268435928
        0x000001b8:    100391d8    ....    DCD    268669400
        0x000001bc:    100341d8    .A..    DCD    268648920
        0x000001c0:    100341d8    .A..    DCD    268648920
    $t
    .text
    calloc
        0x000001c4:    b570        p.      PUSH     {r4-r6,lr}
        0x000001c6:    fba04001    ...@    UMULL    r4,r0,r0,r1
        0x000001ca:    f1b45180    ...Q    SUBS     r1,r4,#0x10000000
        0x000001ce:    f1700000    p...    SBCS     r0,r0,#0
        0x000001d2:    bf24        $.      ITT      CS
        0x000001d4:    2000        .       MOVCS    r0,#0
        0x000001d6:    bd70        p.      POPCS    {r4-r6,pc}
        0x000001d8:    4620         F      MOV      r0,r4
        0x000001da:    f000f807    ....    BL       malloc ; 0x1ec
        0x000001de:    0005        ..      MOVS     r5,r0
        0x000001e0:    bf1c        ..      ITT      NE
        0x000001e2:    4621        !F      MOVNE    r1,r4
        0x000001e4:    f000f9cd    ....    BLNE     __aeabi_memclr ; 0x582
        0x000001e8:    4628        (F      MOV      r0,r5
        0x000001ea:    bd70        p.      POP      {r4-r6,pc}
    .text
    malloc
        0x000001ec:    b570        p.      PUSH     {r4-r6,lr}
        0x000001ee:    4606        .F      MOV      r6,r0
        0x000001f0:    f000f96a    ..j.    BL       __rt_heap_descriptor ; 0x4c8
        0x000001f4:    6805        .h      LDR      r5,[r0,#0]
        0x000001f6:    f106000b    ....    ADD      r0,r6,#0xb
        0x000001fa:    f0200407     ...    BIC      r4,r0,#7
        0x000001fe:    42b4        .B      CMP      r4,r6
        0x00000200:    bf9c        ..      ITT      LS
        0x00000202:    2000        .       MOVLS    r0,#0
        0x00000204:    bd70        p.      POPLS    {r4-r6,pc}
        0x00000206:    462b        +F      MOV      r3,r5
        0x00000208:    686a        jh      LDR      r2,[r5,#4]
        0x0000020a:    b1ba        ..      CBZ      r2,0x23c ; malloc + 80
        0x0000020c:    6810        .h      LDR      r0,[r2,#0]
        0x0000020e:    42a0        .B      CMP      r0,r4
        0x00000210:    d310        ..      BCC      0x234 ; malloc + 72
        0x00000212:    f1040108    ....    ADD      r1,r4,#8
        0x00000216:    4288        .B      CMP      r0,r1
        0x00000218:    bf3c        <.      ITT      CC
        0x0000021a:    6850        Ph      LDRCC    r0,[r2,#4]
        0x0000021c:    6058        X`      STRCC    r0,[r3,#4]
        0x0000021e:    d307        ..      BCC      0x230 ; malloc + 68
        0x00000220:    6851        Qh      LDR      r1,[r2,#4]
        0x00000222:    1910        ..      ADDS     r0,r2,r4
        0x00000224:    6041        A`      STR      r1,[r0,#4]
        0x00000226:    6811        .h      LDR      r1,[r2,#0]
        0x00000228:    1b09        ..      SUBS     r1,r1,r4
        0x0000022a:    6001        .`      STR      r1,[r0,#0]
        0x0000022c:    6058        X`      STR      r0,[r3,#4]
        0x0000022e:    6014        .`      STR      r4,[r2,#0]
        0x00000230:    1d10        ..      ADDS     r0,r2,#4
        0x00000232:    bd70        p.      POP      {r4-r6,pc}
        0x00000234:    4613        .F      MOV      r3,r2
        0x00000236:    6852        Rh      LDR      r2,[r2,#4]
        0x00000238:    2a00        .*      CMP      r2,#0
        0x0000023a:    d1e7        ..      BNE      0x20c ; malloc + 32
        0x0000023c:    4621        !F      MOV      r1,r4
        0x0000023e:    4628        (F      MOV      r0,r5
        0x00000240:    f000f94a    ..J.    BL       __Heap_Full ; 0x4d8
        0x00000244:    2800        .(      CMP      r0,#0
        0x00000246:    d1de        ..      BNE      0x206 ; malloc + 26
        0x00000248:    bd70        p.      POP      {r4-r6,pc}
    .text
    free
        0x0000024a:    b570        p.      PUSH     {r4-r6,lr}
        0x0000024c:    4604        .F      MOV      r4,r0
        0x0000024e:    1f05        ..      SUBS     r5,r0,#4
        0x00000250:    f000f93a    ..:.    BL       __rt_heap_descriptor ; 0x4c8
        0x00000254:    6800        .h      LDR      r0,[r0,#0]
        0x00000256:    2c00        .,      CMP      r4,#0
        0x00000258:    bf14        ..      ITE      NE
        0x0000025a:    6844        Dh      LDRNE    r4,[r0,#4]
        0x0000025c:    bd70        p.      POPEQ    {r4-r6,pc}
        0x0000025e:    2c00        .,      CMP      r4,#0
        0x00000260:    bf18        ..      IT       NE
        0x00000262:    42ac        .B      CMPNE    r4,r5
        0x00000264:    bf3c        <.      ITT      CC
        0x00000266:    4620         F      MOVCC    r0,r4
        0x00000268:    6864        dh      LDRCC    r4,[r4,#4]
        0x0000026a:    d3f8        ..      BCC      0x25e ; free + 20
        0x0000026c:    6801        .h      LDR      r1,[r0,#0]
        0x0000026e:    180a        ..      ADDS     r2,r1,r0
        0x00000270:    42aa        .B      CMP      r2,r5
        0x00000272:    bf18        ..      IT       NE
        0x00000274:    6045        E`      STRNE    r5,[r0,#4]
        0x00000276:    d103        ..      BNE      0x280 ; free + 54
        0x00000278:    682a        *h      LDR      r2,[r5,#0]
        0x0000027a:    4605        .F      MOV      r5,r0
        0x0000027c:    4411        .D      ADD      r1,r1,r2
        0x0000027e:    6001        .`      STR      r1,[r0,#0]
        0x00000280:    6828        (h      LDR      r0,[r5,#0]
        0x00000282:    1941        A.      ADDS     r1,r0,r5
        0x00000284:    42a1        .B      CMP      r1,r4
        0x00000286:    bf1c        ..      ITT      NE
        0x00000288:    606c        l`      STRNE    r4,[r5,#4]
        0x0000028a:    bd70        p.      POPNE    {r4-r6,pc}
        0x0000028c:    6861        ah      LDR      r1,[r4,#4]
        0x0000028e:    6069        i`      STR      r1,[r5,#4]
        0x00000290:    6821        !h      LDR      r1,[r4,#0]
        0x00000292:    4408        .D      ADD      r0,r0,r1
        0x00000294:    6028        (`      STR      r0,[r5,#0]
        0x00000296:    bd70        p.      POP      {r4-r6,pc}
    .text
    __aeabi_uldivmod
    _ll_udiv
        0x00000298:    ea530c02    S...    ORRS     r12,r3,r2
        0x0000029c:    f0008069    ..i.    BEQ.W    0x372 ; __aeabi_uldivmod + 218
        0x000002a0:    e92d4bf0    -..K    PUSH     {r4-r9,r11,lr}
        0x000002a4:    f04f0600    O...    MOV      r6,#0
        0x000002a8:    2b00        .+      CMP      r3,#0
        0x000002aa:    bf1f        ..      ITTTT    NE
        0x000002ac:    fab3f583    ....    CLZNE    r5,r3
        0x000002b0:    fa03f405    ....    LSLNE    r4,r3,r5
        0x000002b4:    fa24f605    $...    LSRNE    r6,r4,r5
        0x000002b8:    405e        ^@      EORNE    r6,r6,r3
        0x000002ba:    bf12        ..      ITEE     NE
        0x000002bc:    4316        .C      ORRNE    r6,r6,r2
        0x000002be:    fab2f582    ....    CLZEQ    r5,r2
        0x000002c2:    fa02f405    ....    LSLEQ    r4,r2,r5
        0x000002c6:    f1c50520    .. .    RSB      r5,r5,#0x20
        0x000002ca:    bf1e        ..      ITTT     NE
        0x000002cc:    fa22fc05    "...    LSRNE    r12,r2,r5
        0x000002d0:    ea44040c    D...    ORRNE    r4,r4,r12
        0x000002d4:    3520         5      ADDNE    r5,r5,#0x20
        0x000002d6:    ea564c04    V..L    ORRS     r12,r6,r4,LSL #16
        0x000002da:    ea4f4414    O..D    LSR      r4,r4,#16
        0x000002de:    bf18        ..      IT       NE
        0x000002e0:    1c64        d.      ADDNE    r4,r4,#1
        0x000002e2:    f04f0800    O...    MOV      r8,#0
        0x000002e6:    f04f0900    O...    MOV      r9,#0
        0x000002ea:    4290        .B      CMP      r0,r2
        0x000002ec:    eb710c03    q...    SBCS     r12,r1,r3
        0x000002f0:    d339        9.      BCC      0x366 ; __aeabi_uldivmod + 206
        0x000002f2:    2900        .)      CMP      r1,#0
        0x000002f4:    bf19        ..      ITTEE    NE
        0x000002f6:    fab1f781    ....    CLZNE    r7,r1
        0x000002fa:    fa01f607    ....    LSLNE    r6,r1,r7
        0x000002fe:    fab0f780    ....    CLZEQ    r7,r0
        0x00000302:    fa00f607    ....    LSLEQ    r6,r0,r7
        0x00000306:    f1c70720    .. .    RSB      r7,r7,#0x20
        0x0000030a:    bf1e        ..      ITTT     NE
        0x0000030c:    fa20fc07     ...    LSRNE    r12,r0,r7
        0x00000310:    ea46060c    F...    ORRNE    r6,r6,r12
        0x00000314:    3720         7      ADDNE    r7,r7,#0x20
        0x00000316:    fbb6fcf4    ....    UDIV     r12,r6,r4
        0x0000031a:    eba70705    ....    SUB      r7,r7,r5
        0x0000031e:    3f10        .?      SUBS     r7,r7,#0x10
        0x00000320:    f0070b1f    ....    AND      r11,r7,#0x1f
        0x00000324:    f1cb0620    .. .    RSB      r6,r11,#0x20
        0x00000328:    fa2cf606    ,...    LSR      r6,r12,r6
        0x0000032c:    fa0cfb0b    ....    LSL      r11,r12,r11
        0x00000330:    bf44        D.      ITT      MI
        0x00000332:    46b3        .F      MOVMI    r11,r6
        0x00000334:    2600        .&      MOVMI    r6,#0
        0x00000336:    2f20         /      CMP      r7,#0x20
        0x00000338:    bfa4        ..      ITT      GE
        0x0000033a:    465e        ^F      MOVGE    r6,r11
        0x0000033c:    f04f0b00    O...    MOVGE    r11,#0
        0x00000340:    ea5b0c06    [...    ORRS     r12,r11,r6
        0x00000344:    bf08        ..      IT       EQ
        0x00000346:    f04f0b01    O...    MOVEQ    r11,#1
        0x0000034a:    eb19090b    ....    ADDS     r9,r9,r11
        0x0000034e:    eb480806    H...    ADC      r8,r8,r6
        0x00000352:    fbab7c02    ...|    UMULL    r7,r12,r11,r2
        0x00000356:    fb06cc02    ....    MLA      r12,r6,r2,r12
        0x0000035a:    fb0bcc03    ....    MLA      r12,r11,r3,r12
        0x0000035e:    1bc0        ..      SUBS     r0,r0,r7
        0x00000360:    eb71010c    q...    SBCS     r1,r1,r12
        0x00000364:    e7c1        ..      B        0x2ea ; __aeabi_uldivmod + 82
        0x00000366:    460b        .F      MOV      r3,r1
        0x00000368:    4602        .F      MOV      r2,r0
        0x0000036a:    4641        AF      MOV      r1,r8
        0x0000036c:    4648        HF      MOV      r0,r9
        0x0000036e:    e8bd8bf0    ....    POP      {r4-r9,r11,pc}
        0x00000372:    b513        ..      PUSH     {r0,r1,r4,lr}
        0x00000374:    f04f0000    O...    MOV      r0,#0
        0x00000378:    f04f0100    O...    MOV      r1,#0
        0x0000037c:    f3af8000    ....    NOP.W    
        0x00000380:    e8bd401c    ...@    POP      {r2-r4,lr}
        0x00000384:    4770        pG      BX       lr
    .text
    __aeabi_memcpy
    __rt_memcpy
        0x00000386:    2a03        .*      CMP      r2,#3
        0x00000388:    f2408030    @.0.    BLS.W    _memcpy_lastbytes ; 0x3ec
        0x0000038c:    f0100c03    ....    ANDS     r12,r0,#3
        0x00000390:    f0008015    ....    BEQ.W    0x3be ; __aeabi_memcpy + 56
        0x00000394:    f8113b01    ...;    LDRB     r3,[r1],#1
        0x00000398:    f1bc0f02    ....    CMP      r12,#2
        0x0000039c:    4462        bD      ADD      r2,r2,r12
        0x0000039e:    bf98        ..      IT       LS
        0x000003a0:    f811cb01    ....    LDRBLS   r12,[r1],#1
        0x000003a4:    f8003b01    ...;    STRB     r3,[r0],#1
        0x000003a8:    bf38        8.      IT       CC
        0x000003aa:    f8113b01    ...;    LDRBCC   r3,[r1],#1
        0x000003ae:    f1a20204    ....    SUB      r2,r2,#4
        0x000003b2:    bf98        ..      IT       LS
        0x000003b4:    f800cb01    ....    STRBLS   r12,[r0],#1
        0x000003b8:    bf38        8.      IT       CC
        0x000003ba:    f8003b01    ...;    STRBCC   r3,[r0],#1
        0x000003be:    f0110303    ....    ANDS     r3,r1,#3
        0x000003c2:    f0008025    ..%.    BEQ.W    __aeabi_memcpy4 ; 0x410
        0x000003c6:    3a08        .:      SUBS     r2,r2,#8
        0x000003c8:    f0c08008    ....    BCC.W    0x3dc ; __aeabi_memcpy + 86
        0x000003cc:    f8513b04    Q..;    LDR      r3,[r1],#4
        0x000003d0:    3a08        .:      SUBS     r2,r2,#8
        0x000003d2:    f851cb04    Q...    LDR      r12,[r1],#4
        0x000003d6:    e8a01008    ....    STM      r0!,{r3,r12}
        0x000003da:    e7f5        ..      B        0x3c8 ; __aeabi_memcpy + 66
        0x000003dc:    1d12        ..      ADDS     r2,r2,#4
        0x000003de:    bf5c        \.      ITT      PL
        0x000003e0:    f8513b04    Q..;    LDRPL    r3,[r1],#4
        0x000003e4:    f8403b04    @..;    STRPL    r3,[r0],#4
        0x000003e8:    f3af8000    ....    NOP.W    
    _memcpy_lastbytes
        0x000003ec:    07d2        ..      LSLS     r2,r2,#31
        0x000003ee:    bf24        $.      ITT      CS
        0x000003f0:    f8113b01    ...;    LDRBCS   r3,[r1],#1
        0x000003f4:    f811cb01    ....    LDRBCS   r12,[r1],#1
        0x000003f8:    bf48        H.      IT       MI
        0x000003fa:    f8112b01    ...+    LDRBMI   r2,[r1],#1
        0x000003fe:    bf24        $.      ITT      CS
        0x00000400:    f8003b01    ...;    STRBCS   r3,[r0],#1
        0x00000404:    f800cb01    ....    STRBCS   r12,[r0],#1
        0x00000408:    bf48        H.      IT       MI
        0x0000040a:    f8002b01    ...+    STRBMI   r2,[r0],#1
        0x0000040e:    4770        pG      BX       lr
    .text
    __aeabi_memcpy4
    __aeabi_memcpy8
    __rt_memcpy_w
        0x00000410:    b510        ..      PUSH     {r4,lr}
        0x00000412:    3a20         :      SUBS     r2,r2,#0x20
        0x00000414:    f0c0800b    ....    BCC.W    0x42e ; __aeabi_memcpy4 + 30
        0x00000418:    e8b15018    ...P    LDM      r1!,{r3,r4,r12,lr}
        0x0000041c:    e8a05018    ...P    STM      r0!,{r3,r4,r12,lr}
        0x00000420:    e8b15018    ...P    LDM      r1!,{r3,r4,r12,lr}
        0x00000424:    e8a05018    ...P    STM      r0!,{r3,r4,r12,lr}
        0x00000428:    3a20         :      SUBS     r2,r2,#0x20
        0x0000042a:    f4bfaff5    ....    BCS.W    0x418 ; __aeabi_memcpy4 + 8
        0x0000042e:    ea5f7c02    _..|    LSLS     r12,r2,#28
        0x00000432:    bf24        $.      ITT      CS
        0x00000434:    e8b15018    ...P    LDMCS    r1!,{r3,r4,r12,lr}
        0x00000438:    e8a05018    ...P    STMCS    r0!,{r3,r4,r12,lr}
        0x0000043c:    bf44        D.      ITT      MI
        0x0000043e:    c918        ..      LDMMI    r1!,{r3,r4}
        0x00000440:    c018        ..      STMMI    r0!,{r3,r4}
        0x00000442:    e8bd4010    ...@    POP      {r4,lr}
        0x00000446:    ea5f7c82    _..|    LSLS     r12,r2,#30
        0x0000044a:    bf24        $.      ITT      CS
        0x0000044c:    f8513b04    Q..;    LDRCS    r3,[r1],#4
        0x00000450:    f8403b04    @..;    STRCS    r3,[r0],#4
        0x00000454:    bf08        ..      IT       EQ
        0x00000456:    4770        pG      BXEQ     lr
    _memcpy_lastbytes_aligned
        0x00000458:    07d2        ..      LSLS     r2,r2,#31
        0x0000045a:    bf28        (.      IT       CS
        0x0000045c:    f8313b02    1..;    LDRHCS   r3,[r1],#2
        0x00000460:    bf48        H.      IT       MI
        0x00000462:    f8112b01    ...+    LDRBMI   r2,[r1],#1
        0x00000466:    bf28        (.      IT       CS
        0x00000468:    f8203b02     ..;    STRHCS   r3,[r0],#2
        0x0000046c:    bf48        H.      IT       MI
        0x0000046e:    f8002b01    ...+    STRBMI   r2,[r0],#1
        0x00000472:    4770        pG      BX       lr
    .text
    __aeabi_memclr4
    __aeabi_memclr8
    __rt_memclr_w
        0x00000474:    f04f0200    O...    MOV      r2,#0
    _memset_w
        0x00000478:    b500        ..      PUSH     {lr}
        0x0000047a:    4613        .F      MOV      r3,r2
        0x0000047c:    4694        .F      MOV      r12,r2
        0x0000047e:    4696        .F      MOV      lr,r2
        0x00000480:    3920         9      SUBS     r1,r1,#0x20
        0x00000482:    bf22        ".      ITTT     CS
        0x00000484:    e8a0500c    ...P    STMCS    r0!,{r2,r3,r12,lr}
        0x00000488:    e8a0500c    ...P    STMCS    r0!,{r2,r3,r12,lr}
        0x0000048c:    f1b10120    .. .    SUBSCS   r1,r1,#0x20
        0x00000490:    f4bfaff7    ....    BCS.W    0x482 ; _memset_w + 10
        0x00000494:    0709        ..      LSLS     r1,r1,#28
        0x00000496:    bf28        (.      IT       CS
        0x00000498:    e8a0500c    ...P    STMCS    r0!,{r2,r3,r12,lr}
        0x0000049c:    bf48        H.      IT       MI
        0x0000049e:    c00c        ..      STMMI    r0!,{r2,r3}
        0x000004a0:    f85deb04    ]...    POP      {lr}
        0x000004a4:    0089        ..      LSLS     r1,r1,#2
        0x000004a6:    bf28        (.      IT       CS
        0x000004a8:    f8402b04    @..+    STRCS    r2,[r0],#4
        0x000004ac:    bf08        ..      IT       EQ
        0x000004ae:    4770        pG      BXEQ     lr
        0x000004b0:    bf48        H.      IT       MI
        0x000004b2:    f8202b02     ..+    STRHMI   r2,[r0],#2
        0x000004b6:    f0114f80    ...O    TST      r1,#0x40000000
        0x000004ba:    bf18        ..      IT       NE
        0x000004bc:    f8002b01    ...+    STRBNE   r2,[r0],#1
        0x000004c0:    4770        pG      BX       lr
    .text
    __use_two_region_memory
        0x000004c2:    4770        pG      BX       lr
    __rt_heap_escrow
        0x000004c4:    4770        pG      BX       lr
    __rt_heap_expand
        0x000004c6:    4770        pG      BX       lr
    .text
    __rt_heap_descriptor
        0x000004c8:    4800        .H      LDR      r0,[pc,#0] ; [0x4cc] = 0x10000078
        0x000004ca:    4770        pG      BX       lr
    $d
        0x000004cc:    10000078    x...    DCD    268435576
    $t
    .text
    __use_no_heap
        0x000004d0:    4770        pG      BX       lr
    __heap$guard
        0x000004d2:    4770        pG      BX       lr
    .text
    _terminate_user_alloc
        0x000004d4:    4770        pG      BX       lr
    _init_user_alloc
        0x000004d6:    4770        pG      BX       lr
    __Heap_Full
        0x000004d8:    b538        8.      PUSH     {r3-r5,lr}
        0x000004da:    4604        .F      MOV      r4,r0
        0x000004dc:    460a        .F      MOV      r2,r1
        0x000004de:    2000        .       MOVS     r0,#0
        0x000004e0:    4669        iF      MOV      r1,sp
        0x000004e2:    f3af8000    ....    NOP.W    
        0x000004e6:    2800        .(      CMP      r0,#0
        0x000004e8:    bf08        ..      IT       EQ
        0x000004ea:    bd38        8.      POPEQ    {r3-r5,pc}
        0x000004ec:    4602        .F      MOV      r2,r0
        0x000004ee:    9900        ..      LDR      r1,[sp,#0]
        0x000004f0:    4620         F      MOV      r0,r4
        0x000004f2:    f000f871    ..q.    BL       __Heap_ProvideMemory ; 0x5d8
        0x000004f6:    2001        .       MOVS     r0,#1
        0x000004f8:    bd38        8.      POP      {r3-r5,pc}
    __Heap_Broken
        0x000004fa:    2001        .       MOVS     r0,#1
        0x000004fc:    f000b886    ....    B.W      __rt_SIGRTMEM ; 0x60c
    _init_alloc
        0x00000500:    b5f8        ..      PUSH     {r3-r7,lr}
        0x00000502:    f3af8000    ....    NOP.W    
        0x00000506:    4605        .F      MOV      r5,r0
        0x00000508:    2000        .       MOVS     r0,#0
        0x0000050a:    460c        .F      MOV      r4,r1
        0x0000050c:    2010        .       MOVS     r0,#0x10
        0x0000050e:    bf00        ..      NOP      
        0x00000510:    4606        .F      MOV      r6,r0
        0x00000512:    19a8        ..      ADDS     r0,r5,r6
        0x00000514:    42a0        .B      CMP      r0,r4
        0x00000516:    d90d        ..      BLS      0x534 ; _init_alloc + 52
        0x00000518:    4632        2F      MOV      r2,r6
        0x0000051a:    4669        iF      MOV      r1,sp
        0x0000051c:    2000        .       MOVS     r0,#0
        0x0000051e:    f3af8000    ....    NOP.W    
        0x00000522:    0007        ..      MOVS     r7,r0
        0x00000524:    bf08        ..      IT       EQ
        0x00000526:    f000f871    ..q.    BLEQ     __rt_SIGRTMEM ; 0x60c
        0x0000052a:    9800        ..      LDR      r0,[sp,#0]
        0x0000052c:    42a0        .B      CMP      r0,r4
        0x0000052e:    bf18        ..      IT       NE
        0x00000530:    4605        .F      MOVNE    r5,r0
        0x00000532:    19c4        ..      ADDS     r4,r0,r7
        0x00000534:    f7ffffc8    ....    BL       __rt_heap_descriptor ; 0x4c8
        0x00000538:    6005        .`      STR      r5,[r0,#0]
        0x0000053a:    4607        .F      MOV      r7,r0
        0x0000053c:    1df0        ..      ADDS     r0,r6,#7
        0x0000053e:    f0200007     ...    BIC      r0,r0,#7
        0x00000542:    1946        F.      ADDS     r6,r0,r5
        0x00000544:    4628        (F      MOV      r0,r5
        0x00000546:    f000f80a    ....    BL       __Heap_Initialize ; 0x55e
        0x0000054a:    42b4        .B      CMP      r4,r6
        0x0000054c:    bf08        ..      IT       EQ
        0x0000054e:    bdf8        ..      POPEQ    {r3-r7,pc}
        0x00000550:    1ba2        ..      SUBS     r2,r4,r6
        0x00000552:    4631        1F      MOV      r1,r6
        0x00000554:    6838        8h      LDR      r0,[r7,#0]
        0x00000556:    e8bd40f8    ...@    POP      {r3-r7,lr}
        0x0000055a:    f000b83d    ..=.    B.W      __Heap_ProvideMemory ; 0x5d8
    .text
    __Heap_Initialize
        0x0000055e:    2100        .!      MOVS     r1,#0
        0x00000560:    6001        .`      STR      r1,[r0,#0]
        0x00000562:    e9c01001    ....    STRD     r1,r0,[r0,#4]
        0x00000566:    4770        pG      BX       lr
    __Heap_DescSize
        0x00000568:    2010        .       MOVS     r0,#0x10
        0x0000056a:    4770        pG      BX       lr
    .text
    __read_errno
        0x0000056c:    b510        ..      PUSH     {r4,lr}
        0x0000056e:    f000f82f    ../.    BL       __aeabi_errno_addr ; 0x5d0
        0x00000572:    6800        .h      LDR      r0,[r0,#0]
        0x00000574:    bd10        ..      POP      {r4,pc}
    __set_errno
        0x00000576:    b510        ..      PUSH     {r4,lr}
        0x00000578:    4604        .F      MOV      r4,r0
        0x0000057a:    f000f829    ..).    BL       __aeabi_errno_addr ; 0x5d0
        0x0000057e:    6004        .`      STR      r4,[r0,#0]
        0x00000580:    bd10        ..      POP      {r4,pc}
    .text
    __aeabi_memclr
    __rt_memclr
        0x00000582:    f04f0200    O...    MOV      r2,#0
    _memset
        0x00000586:    2904        .)      CMP      r1,#4
        0x00000588:    f0c08012    ....    BCC.W    0x5b0 ; _memset + 42
        0x0000058c:    f0100c03    ....    ANDS     r12,r0,#3
        0x00000590:    f43faf72    ?.r.    BEQ      _memset_w ; 0x478
        0x00000594:    f1cc0c04    ....    RSB      r12,r12,#4
        0x00000598:    f1bc0f02    ....    CMP      r12,#2
        0x0000059c:    bf18        ..      IT       NE
        0x0000059e:    f8002b01    ...+    STRBNE   r2,[r0],#1
        0x000005a2:    bfa8        ..      IT       GE
        0x000005a4:    f8202b02     ..+    STRHGE   r2,[r0],#2
        0x000005a8:    eba1010c    ....    SUB      r1,r1,r12
        0x000005ac:    f7ffbf64    ..d.    B.W      _memset_w ; 0x478
        0x000005b0:    ea5f7cc1    _..|    LSLS     r12,r1,#31
        0x000005b4:    bf24        $.      ITT      CS
        0x000005b6:    f8002b01    ...+    STRBCS   r2,[r0],#1
        0x000005ba:    f8002b01    ...+    STRBCS   r2,[r0],#1
        0x000005be:    bf48        H.      IT       MI
        0x000005c0:    f8002b01    ...+    STRBMI   r2,[r0],#1
        0x000005c4:    4770        pG      BX       lr
        0x000005c6:    0000        ..      MOVS     r0,r0
    .text
    __user_libspace
    __user_perproc_libspace
    __user_perthread_libspace
        0x000005c8:    4800        .H      LDR      r0,[pc,#0] ; [0x5cc] = 0x10000070
        0x000005ca:    4770        pG      BX       lr
    $d
        0x000005cc:    10000070    p...    DCD    268435568
    $t
    .text
    __aeabi_errno_addr
    __errno$intlibspace
    __rt_errno_addr$intlibspace
        0x000005d0:    4800        .H      LDR      r0,[pc,#0] ; [0x5d4] = 0x10000070
        0x000005d2:    4770        pG      BX       lr
    $d
        0x000005d4:    10000070    p...    DCD    268435568
    $t
    .text
    .text
    __Heap_ProvideMemory
    _maybe_terminate_alloc
        0x000005d8:    4603        .F      MOV      r3,r0
        0x000005da:    6840        @h      LDR      r0,[r0,#4]
        0x000005dc:    468c        .F      MOV      r12,r1
        0x000005de:    2800        .(      CMP      r0,#0
        0x000005e0:    bf18        ..      IT       NE
        0x000005e2:    4288        .B      CMPNE    r0,r1
        0x000005e4:    bf3c        <.      ITT      CC
        0x000005e6:    4603        .F      MOVCC    r3,r0
        0x000005e8:    6840        @h      LDRCC    r0,[r0,#4]
        0x000005ea:    d3f8        ..      BCC      0x5de ; __Heap_ProvideMemory + 6
        0x000005ec:    6818        .h      LDR      r0,[r3,#0]
        0x000005ee:    4418        .D      ADD      r0,r0,r3
        0x000005f0:    4288        .B      CMP      r0,r1
        0x000005f2:    d007        ..      BEQ      0x604 ; __Heap_ProvideMemory + 44
        0x000005f4:    f10c0003    ....    ADD      r0,r12,#3
        0x000005f8:    f0200007     ...    BIC      r0,r0,#7
        0x000005fc:    1d00        ..      ADDS     r0,r0,#4
        0x000005fe:    1a41        A.      SUBS     r1,r0,r1
        0x00000600:    1a52        R.      SUBS     r2,r2,r1
        0x00000602:    4601        .F      MOV      r1,r0
        0x00000604:    1d08        ..      ADDS     r0,r1,#4
        0x00000606:    600a        .`      STR      r2,[r1,#0]
        0x00000608:    f7ffbe1f    ....    B.W      free ; 0x24a
    .text
    __rt_SIGRTMEM
        0x0000060c:    b510        ..      PUSH     {r4,lr}
        0x0000060e:    f000f839    ..9.    BL       __rt_SIGRTMEM_inner ; 0x684
        0x00000612:    e8bd4010    ...@    POP      {r4,lr}
        0x00000616:    f000b82f    ../.    B.W      __sig_exit ; 0x678
    .text
    __I$use$semihosting
    __use_no_semihosting_swi
        0x0000061a:    4770        pG      BX       lr
    .text
    .text
    __semihosting_library_function
    __user_setup_stackheap
        0x0000061c:    4675        uF      MOV      r5,lr
        0x0000061e:    f7ffffd3    ....    BL       __user_libspace ; 0x5c8
        0x00000622:    46ae        .F      MOV      lr,r5
        0x00000624:    0005        ..      MOVS     r5,r0
        0x00000626:    4669        iF      MOV      r1,sp
        0x00000628:    4653        SF      MOV      r3,r10
        0x0000062a:    f0200007     ...    BIC      r0,r0,#7
        0x0000062e:    4685        .F      MOV      sp,r0
        0x00000630:    b018        ..      ADD      sp,sp,#0x60
        0x00000632:    b520         .      PUSH     {r5,lr}
        0x00000634:    f7fffdb8    ....    BL       __user_initial_stackheap ; 0x1a8
        0x00000638:    e8bd4020    .. @    POP      {r5,lr}
        0x0000063c:    f04f0600    O...    MOV      r6,#0
        0x00000640:    f04f0700    O...    MOV      r7,#0
        0x00000644:    f04f0800    O...    MOV      r8,#0
        0x00000648:    f04f0b00    O...    MOV      r11,#0
        0x0000064c:    46ac        .F      MOV      r12,r5
        0x0000064e:    e8ac09c0    ....    STM      r12!,{r6-r8,r11}
        0x00000652:    e8ac09c0    ....    STM      r12!,{r6-r8,r11}
        0x00000656:    e8ac09c0    ....    STM      r12!,{r6-r8,r11}
        0x0000065a:    e8ac09c0    ....    STM      r12!,{r6-r8,r11}
        0x0000065e:    f0210107    !...    BIC      r1,r1,#7
        0x00000662:    468d        .F      MOV      sp,r1
        0x00000664:    4770        pG      BX       lr
    .text
    exit
        0x00000666:    b510        ..      PUSH     {r4,lr}
        0x00000668:    4604        .F      MOV      r4,r0
        0x0000066a:    f3af8000    ....    NOP.W    
        0x0000066e:    4620         F      MOV      r0,r4
        0x00000670:    e8bd4010    ...@    POP      {r4,lr}
        0x00000674:    f7ffbd85    ....    B.W      __rt_exit ; 0x182
    .text
    __sig_exit
        0x00000678:    2800        .(      CMP      r0,#0
        0x0000067a:    d001        ..      BEQ      0x680 ; __sig_exit + 8
        0x0000067c:    f000b82a    ..*.    B.W      _sys_exit ; 0x6d4
        0x00000680:    4770        pG      BX       lr
        0x00000682:    0000        ..      MOVS     r0,r0
    .text
    __rt_SIGRTMEM_inner
        0x00000684:    b510        ..      PUSH     {r4,lr}
        0x00000686:    2801        .(      CMP      r0,#1
        0x00000688:    d005        ..      BEQ      0x696 ; __rt_SIGRTMEM_inner + 18
        0x0000068a:    2100        .!      MOVS     r1,#0
        0x0000068c:    a003        ..      ADR      r0,{pc}+0x10 ; 0x69c
        0x0000068e:    f000f827    ..'.    BL       __default_signal_display ; 0x6e0
        0x00000692:    2001        .       MOVS     r0,#1
        0x00000694:    bd10        ..      POP      {r4,pc}
        0x00000696:    a109        ..      ADR      r1,{pc}+0x26 ; 0x6bc
        0x00000698:    e7f8        ..      B        0x68c ; __rt_SIGRTMEM_inner + 8
    $d
        0x0000069a:    0000        ..      DCW    0
        0x0000069c:    52474953    SIGR    DCD    1380403539
        0x000006a0:    4d454d54    TMEM    DCD    1296387412
        0x000006a4:    754f203a    : Ou    DCD    1968119866
        0x000006a8:    666f2074    t of    DCD    1718558836
        0x000006ac:    61656820     hea    DCD    1634035744
        0x000006b0:    656d2070    p me    DCD    1701650544
        0x000006b4:    79726f6d    mory    DCD    2037542765
        0x000006b8:    00000000    ....    DCD    0
        0x000006bc:    6548203a    : He    DCD    1699225658
        0x000006c0:    6d207061    ap m    DCD    1830842465
        0x000006c4:    726f6d65    emor    DCD    1919905125
        0x000006c8:    6f632079    y co    DCD    1868767353
        0x000006cc:    70757272    rrup    DCD    1886745202
        0x000006d0:    00646574    ted.    DCD    6579572
    $t
    .text
    _sys_exit
        0x000006d4:    4901        .I      LDR      r1,[pc,#4] ; [0x6dc] = 0x20026
        0x000006d6:    2018        .       MOVS     r0,#0x18
        0x000006d8:    beab        ..      BKPT     #0xab
        0x000006da:    e7fe        ..      B        0x6da ; _sys_exit + 6
    $d
        0x000006dc:    00020026    &...    DCD    131110
    $t
    .text
    __default_signal_display
        0x000006e0:    b570        p.      PUSH     {r4-r6,lr}
        0x000006e2:    4605        .F      MOV      r5,r0
        0x000006e4:    460c        .F      MOV      r4,r1
        0x000006e6:    200a        .       MOVS     r0,#0xa
        0x000006e8:    e000        ..      B        0x6ec ; __default_signal_display + 12
        0x000006ea:    1c6d        m.      ADDS     r5,r5,#1
        0x000006ec:    f000f811    ....    BL       _ttywrch ; 0x712
        0x000006f0:    b135        5.      CBZ      r5,0x700 ; __default_signal_display + 32
        0x000006f2:    7828        (x      LDRB     r0,[r5,#0]
        0x000006f4:    2800        .(      CMP      r0,#0
        0x000006f6:    d1f8        ..      BNE      0x6ea ; __default_signal_display + 10
        0x000006f8:    e002        ..      B        0x700 ; __default_signal_display + 32
        0x000006fa:    1c64        d.      ADDS     r4,r4,#1
        0x000006fc:    f000f809    ....    BL       _ttywrch ; 0x712
        0x00000700:    b114        ..      CBZ      r4,0x708 ; __default_signal_display + 40
        0x00000702:    7820         x      LDRB     r0,[r4,#0]
        0x00000704:    2800        .(      CMP      r0,#0
        0x00000706:    d1f8        ..      BNE      0x6fa ; __default_signal_display + 26
        0x00000708:    e8bd4070    ..p@    POP      {r4-r6,lr}
        0x0000070c:    200a        .       MOVS     r0,#0xa
        0x0000070e:    f3af8000    ....    NOP.W    
    .text
    _ttywrch
        0x00000712:    b508        ..      PUSH     {r3,lr}
        0x00000714:    4669        iF      MOV      r1,sp
        0x00000716:    f88d0000    ....    STRB     r0,[sp,#0]
        0x0000071a:    2003        .       MOVS     r0,#3
        0x0000071c:    beab        ..      BKPT     #0xab
        0x0000071e:    bd08        ..      POP      {r3,pc}
    $t.2
    CyclicCosineForwardShift
        0x00000720:    e92d4ff0    -..O    PUSH     {r4-r11,lr}
        0x00000724:    b081        ..      SUB      sp,sp,#4
        0x00000726:    ed2d8b04    -...    VPUSH    {d8-d9}
        0x0000072a:    b088        ..      SUB      sp,sp,#0x20
        0x0000072c:    4615        .F      MOV      r5,r2
        0x0000072e:    4607        .F      MOV      r7,r0
        0x00000730:    2001        .       MOVS     r0,#1
        0x00000732:    4688        .F      MOV      r8,r1
        0x00000734:    2104        .!      MOVS     r1,#4
        0x00000736:    eeb09a60    ..`.    VMOV.F32 s18,s1
        0x0000073a:    eeb08a40    ..@.    VMOV.F32 s16,s0
        0x0000073e:    f04f0904    O...    MOV      r9,#4
        0x00000742:    eb0576d5    ...v    ADD      r6,r5,r5,LSR #31
        0x00000746:    eb000466    ..f.    ADD      r4,r0,r6,ASR #1
        0x0000074a:    4620         F      MOV      r0,r4
        0x0000074c:    f7fffd3a    ..:.    BL       calloc ; 0x1c4
        0x00000750:    4683        .F      MOV      r11,r0
        0x00000752:    4620         F      MOV      r0,r4
        0x00000754:    2104        .!      MOVS     r1,#4
        0x00000756:    f7fffd35    ..5.    BL       calloc ; 0x1c4
        0x0000075a:    4682        .F      MOV      r10,r0
        0x0000075c:    1071        q.      ASRS     r1,r6,#1
        0x0000075e:    f1b53fff    ...?    CMP      r5,#0xffffffff
        0x00000762:    9503        ..      STR      r5,[sp,#0xc]
        0x00000764:    9707        ..      STR      r7,[sp,#0x1c]
        0x00000766:    9104        ..      STR      r1,[sp,#0x10]
        0x00000768:    f8cd8008    ....    STR      r8,[sp,#8]
        0x0000076c:    da04        ..      BGE      0x778 ; CyclicCosineForwardShift + 88
        0x0000076e:    ed9f0abe    ....    VLDR     s0,[pc,#760] ; [0xa68] = 0
        0x00000772:    eeb01a40    ..@.    VMOV.F32 s2,s0
        0x00000776:    e016        ..      B        0x7a6 ; CyclicCosineForwardShift + 134
        0x00000778:    eb090581    ....    ADD      r5,r9,r1,LSL #2
        0x0000077c:    4658        XF      MOV      r0,r11
        0x0000077e:    4639        9F      MOV      r1,r7
        0x00000780:    462a        *F      MOV      r2,r5
        0x00000782:    f7fffe45    ..E.    BL       __aeabi_memcpy4 ; 0x410
        0x00000786:    4650        PF      MOV      r0,r10
        0x00000788:    4641        AF      MOV      r1,r8
        0x0000078a:    462a        *F      MOV      r2,r5
        0x0000078c:    f7fffe40    ..@.    BL       __aeabi_memcpy4 ; 0x410
        0x00000790:    ed9a0a00    ....    VLDR     s0,[r10,#0]
        0x00000794:    ed9b1a00    ....    VLDR     s2,[r11,#0]
        0x00000798:    eeb62a00    ...*    VMOV.F32 s4,#0.50000000
        0x0000079c:    9904        ..      LDR      r1,[sp,#0x10]
        0x0000079e:    ee200a02     ...    VMUL.F32 s0,s0,s4
        0x000007a2:    ee211a02    !...    VMUL.F32 s2,s2,s4
        0x000007a6:    ed8b1a00    ....    VSTR     s2,[r11,#0]
        0x000007aa:    eb0b0081    ....    ADD      r0,r11,r1,LSL #2
        0x000007ae:    ed8a0a00    ....    VSTR     s0,[r10,#0]
        0x000007b2:    eeb61a00    ....    VMOV.F32 s2,#0.50000000
        0x000007b6:    ed900a00    ....    VLDR     s0,[r0,#0]
        0x000007ba:    ee200a01     ...    VMUL.F32 s0,s0,s2
        0x000007be:    ed800a00    ....    VSTR     s0,[r0,#0]
        0x000007c2:    eb0a0081    ....    ADD      r0,r10,r1,LSL #2
        0x000007c6:    2104        .!      MOVS     r1,#4
        0x000007c8:    ed900a00    ....    VLDR     s0,[r0,#0]
        0x000007cc:    ee200a01     ...    VMUL.F32 s0,s0,s2
        0x000007d0:    ed800a00    ....    VSTR     s0,[r0,#0]
        0x000007d4:    4620         F      MOV      r0,r4
        0x000007d6:    f7fffcf5    ....    BL       calloc ; 0x1c4
        0x000007da:    4680        .F      MOV      r8,r0
        0x000007dc:    4620         F      MOV      r0,r4
        0x000007de:    2104        .!      MOVS     r1,#4
        0x000007e0:    f7fffcf0    ....    BL       calloc ; 0x1c4
        0x000007e4:    9d03        ..      LDR      r5,[sp,#0xc]
        0x000007e6:    4681        .F      MOV      r9,r0
        0x000007e8:    f1b53fff    ...?    CMP      r5,#0xffffffff
        0x000007ec:    f2c0809e    ....    BLT.W    0x92c ; CyclicCosineForwardShift + 524
        0x000007f0:    00a5        ..      LSLS     r5,r4,#2
        0x000007f2:    4640        @F      MOV      r0,r8
        0x000007f4:    4659        YF      MOV      r1,r11
        0x000007f6:    462a        *F      MOV      r2,r5
        0x000007f8:    f7fffe0a    ....    BL       __aeabi_memcpy4 ; 0x410
        0x000007fc:    4648        HF      MOV      r0,r9
        0x000007fe:    4651        QF      MOV      r1,r10
        0x00000800:    462a        *F      MOV      r2,r5
        0x00000802:    f7fffe05    ....    BL       __aeabi_memcpy4 ; 0x410
        0x00000806:    ee004a10    ...J    VMOV     s0,r4
        0x0000080a:    f0040103    ....    AND      r1,r4,#3
        0x0000080e:    eeb80ac0    ....    VCVT.F32.S32 s0,s0
        0x00000812:    ee200a09     ...    VMUL.F32 s0,s0,s18
        0x00000816:    ee800a08    ....    VDIV.F32 s0,s0,s16
        0x0000081a:    eebd0ac0    ....    VCVT.S32.F32 s0,s0
        0x0000081e:    9804        ..      LDR      r0,[sp,#0x10]
        0x00000820:    ee102a10    ...*    VMOV     r2,s0
        0x00000824:    2803        .(      CMP      r0,#3
        0x00000826:    e9cd2100    ...!    STRD     r2,r1,[sp,#0]
        0x0000082a:    d205        ..      BCS      0x838 ; CyclicCosineForwardShift + 280
        0x0000082c:    2100        .!      MOVS     r1,#0
        0x0000082e:    9e01        ..      LDR      r6,[sp,#4]
        0x00000830:    9d03        ..      LDR      r5,[sp,#0xc]
        0x00000832:    2e00        ..      CMP      r6,#0
        0x00000834:    d149        I.      BNE      0x8ca ; CyclicCosineForwardShift + 426
        0x00000836:    e079        y.      B        0x92c ; CyclicCosineForwardShift + 524
        0x00000838:    4410        .D      ADD      r0,r0,r2
        0x0000083a:    9006        ..      STR      r0,[sp,#0x18]
        0x0000083c:    1a60        `.      SUBS     r0,r4,r1
        0x0000083e:    2100        .!      MOVS     r1,#0
        0x00000840:    9005        ..      STR      r0,[sp,#0x14]
        0x00000842:    200c        .       MOVS     r0,#0xc
        0x00000844:    9a06        ..      LDR      r2,[sp,#0x18]
        0x00000846:    eb080700    ....    ADD      r7,r8,r0
        0x0000084a:    f8577c0c    W..|    LDR      r7,[r7,#-0xc]
        0x0000084e:    1853        S.      ADDS     r3,r2,r1
        0x00000850:    f1030c01    ....    ADD      r12,r3,#1
        0x00000854:    fb9cfef4    ....    SDIV     lr,r12,r4
        0x00000858:    fb0ec214    ....    MLS      r2,lr,r4,r12
        0x0000085c:    f84b7022    K."p    STR      r7,[r11,r2,LSL #2]
        0x00000860:    eb090700    ....    ADD      r7,r9,r0
        0x00000864:    f8577c0c    W..|    LDR      r7,[r7,#-0xc]
        0x00000868:    f84a7022    J."p    STR      r7,[r10,r2,LSL #2]
        0x0000086c:    1c9a        ..      ADDS     r2,r3,#2
        0x0000086e:    fb92f7f4    ....    SDIV     r7,r2,r4
        0x00000872:    fb072214    ..."    MLS      r2,r7,r4,r2
        0x00000876:    eb080781    ....    ADD      r7,r8,r1,LSL #2
        0x0000087a:    e9d75701    ...W    LDRD     r5,r7,[r7,#4]
        0x0000087e:    f84b5022    K."P    STR      r5,[r11,r2,LSL #2]
        0x00000882:    eb090581    ....    ADD      r5,r9,r1,LSL #2
        0x00000886:    3104        .1      ADDS     r1,#4
        0x00000888:    e9d56501    ...e    LDRD     r6,r5,[r5,#4]
        0x0000088c:    f84a6022    J."`    STR      r6,[r10,r2,LSL #2]
        0x00000890:    1cda        ..      ADDS     r2,r3,#3
        0x00000892:    fb92f6f4    ....    SDIV     r6,r2,r4
        0x00000896:    fb062214    ..."    MLS      r2,r6,r4,r2
        0x0000089a:    f84b7022    K."p    STR      r7,[r11,r2,LSL #2]
        0x0000089e:    f84a5022    J."P    STR      r5,[r10,r2,LSL #2]
        0x000008a2:    1d1a        ..      ADDS     r2,r3,#4
        0x000008a4:    fb92f3f4    ....    SDIV     r3,r2,r4
        0x000008a8:    fb032214    ..."    MLS      r2,r3,r4,r2
        0x000008ac:    f8583000    X..0    LDR      r3,[r8,r0]
        0x000008b0:    f84b3022    K."0    STR      r3,[r11,r2,LSL #2]
        0x000008b4:    f8593000    Y..0    LDR      r3,[r9,r0]
        0x000008b8:    3010        .0      ADDS     r0,r0,#0x10
        0x000008ba:    f84a3022    J."0    STR      r3,[r10,r2,LSL #2]
        0x000008be:    9a05        ..      LDR      r2,[sp,#0x14]
        0x000008c0:    428a        .B      CMP      r2,r1
        0x000008c2:    d1bf        ..      BNE      0x844 ; CyclicCosineForwardShift + 292
        0x000008c4:    9e01        ..      LDR      r6,[sp,#4]
        0x000008c6:    9d03        ..      LDR      r5,[sp,#0xc]
        0x000008c8:    b386        ..      CBZ      r6,0x92c ; CyclicCosineForwardShift + 524
        0x000008ca:    9800        ..      LDR      r0,[sp,#0]
        0x000008cc:    2e01        ..      CMP      r6,#1
        0x000008ce:    4420         D      ADD      r0,r0,r4
        0x000008d0:    eb000201    ....    ADD      r2,r0,r1
        0x000008d4:    fb92f3f4    ....    SDIV     r3,r2,r4
        0x000008d8:    fb032214    ..."    MLS      r2,r3,r4,r2
        0x000008dc:    f8583021    X.!0    LDR      r3,[r8,r1,LSL #2]
        0x000008e0:    f84b3022    K."0    STR      r3,[r11,r2,LSL #2]
        0x000008e4:    f8593021    Y.!0    LDR      r3,[r9,r1,LSL #2]
        0x000008e8:    f84a3022    J."0    STR      r3,[r10,r2,LSL #2]
        0x000008ec:    d01e        ..      BEQ      0x92c ; CyclicCosineForwardShift + 524
        0x000008ee:    1c4a        J.      ADDS     r2,r1,#1
        0x000008f0:    2e02        ..      CMP      r6,#2
        0x000008f2:    eb000302    ....    ADD      r3,r0,r2
        0x000008f6:    fb93f7f4    ....    SDIV     r7,r3,r4
        0x000008fa:    fb073314    ...3    MLS      r3,r7,r4,r3
        0x000008fe:    f8587022    X."p    LDR      r7,[r8,r2,LSL #2]
        0x00000902:    f8592022    Y."     LDR      r2,[r9,r2,LSL #2]
        0x00000906:    f84b7023    K.#p    STR      r7,[r11,r3,LSL #2]
        0x0000090a:    f84a2023    J.#     STR      r2,[r10,r3,LSL #2]
        0x0000090e:    d00d        ..      BEQ      0x92c ; CyclicCosineForwardShift + 524
        0x00000910:    3102        .1      ADDS     r1,#2
        0x00000912:    4408        .D      ADD      r0,r0,r1
        0x00000914:    fb90f2f4    ....    SDIV     r2,r0,r4
        0x00000918:    fb020014    ....    MLS      r0,r2,r4,r0
        0x0000091c:    f8582021    X.!     LDR      r2,[r8,r1,LSL #2]
        0x00000920:    f8591021    Y.!.    LDR      r1,[r9,r1,LSL #2]
        0x00000924:    f84b2020    K.      STR      r2,[r11,r0,LSL #2]
        0x00000928:    f84a1020    J. .    STR      r1,[r10,r0,LSL #2]
        0x0000092c:    4640        @F      MOV      r0,r8
        0x0000092e:    f7fffc8c    ....    BL       free ; 0x24a
        0x00000932:    4648        HF      MOV      r0,r9
        0x00000934:    f7fffc89    ....    BL       free ; 0x24a
        0x00000938:    f8dd9008    ....    LDR      r9,[sp,#8]
        0x0000093c:    9e07        ..      LDR      r6,[sp,#0x1c]
        0x0000093e:    9f04        ..      LDR      r7,[sp,#0x10]
        0x00000940:    f1b53fff    ...?    CMP      r5,#0xffffffff
        0x00000944:    db6f        o.      BLT      0xa26 ; CyclicCosineForwardShift + 774
        0x00000946:    f0040c03    ....    AND      r12,r4,#3
        0x0000094a:    2f03        ./      CMP      r7,#3
        0x0000094c:    d204        ..      BCS      0x958 ; CyclicCosineForwardShift + 568
        0x0000094e:    2100        .!      MOVS     r1,#0
        0x00000950:    f1bc0f00    ....    CMP      r12,#0
        0x00000954:    d12a        *.      BNE      0x9ac ; CyclicCosineForwardShift + 652
        0x00000956:    e049        I.      B        0x9ec ; CyclicCosineForwardShift + 716
        0x00000958:    eba40e0c    ....    SUB      lr,r4,r12
        0x0000095c:    2300        .#      MOVS     r3,#0
        0x0000095e:    2100        .!      MOVS     r1,#0
        0x00000960:    f85b7003    [..p    LDR      r7,[r11,r3]
        0x00000964:    eb0a0003    ....    ADD      r0,r10,r3
        0x00000968:    3104        .1      ADDS     r1,#4
        0x0000096a:    458e        .E      CMP      lr,r1
        0x0000096c:    50f7        .P      STR      r7,[r6,r3]
        0x0000096e:    f85a7003    Z..p    LDR      r7,[r10,r3]
        0x00000972:    f8497003    I..p    STR      r7,[r9,r3]
        0x00000976:    eb060703    ....    ADD      r7,r6,r3
        0x0000097a:    eb0b0603    ....    ADD      r6,r11,r3
        0x0000097e:    e9d65401    ...T    LDRD     r5,r4,[r6,#4]
        0x00000982:    f8d6800c    ....    LDR      r8,[r6,#0xc]
        0x00000986:    607d        }`      STR      r5,[r7,#4]
        0x00000988:    eb090503    ....    ADD      r5,r9,r3
        0x0000098c:    f1030310    ....    ADD      r3,r3,#0x10
        0x00000990:    e9d02601    ...&    LDRD     r2,r6,[r0,#4]
        0x00000994:    68c0        .h      LDR      r0,[r0,#0xc]
        0x00000996:    606a        j`      STR      r2,[r5,#4]
        0x00000998:    60bc        .`      STR      r4,[r7,#8]
        0x0000099a:    60ae        .`      STR      r6,[r5,#8]
        0x0000099c:    9e07        ..      LDR      r6,[sp,#0x1c]
        0x0000099e:    f8c7800c    ....    STR      r8,[r7,#0xc]
        0x000009a2:    60e8        .`      STR      r0,[r5,#0xc]
        0x000009a4:    d1dc        ..      BNE      0x960 ; CyclicCosineForwardShift + 576
        0x000009a6:    f1bc0f00    ....    CMP      r12,#0
        0x000009aa:    d01f        ..      BEQ      0x9ec ; CyclicCosineForwardShift + 716
        0x000009ac:    f85b2021    [.!     LDR      r2,[r11,r1,LSL #2]
        0x000009b0:    f1bc0f01    ....    CMP      r12,#1
        0x000009b4:    f8462021    F.!     STR      r2,[r6,r1,LSL #2]
        0x000009b8:    f85a2021    Z.!     LDR      r2,[r10,r1,LSL #2]
        0x000009bc:    f8492021    I.!     STR      r2,[r9,r1,LSL #2]
        0x000009c0:    d014        ..      BEQ      0x9ec ; CyclicCosineForwardShift + 716
        0x000009c2:    1c48        H.      ADDS     r0,r1,#1
        0x000009c4:    f1bc0f02    ....    CMP      r12,#2
        0x000009c8:    f85b2020    [.      LDR      r2,[r11,r0,LSL #2]
        0x000009cc:    f8462020    F.      STR      r2,[r6,r0,LSL #2]
        0x000009d0:    f85a2020    Z.      LDR      r2,[r10,r0,LSL #2]
        0x000009d4:    f8492020    I.      STR      r2,[r9,r0,LSL #2]
        0x000009d8:    d008        ..      BEQ      0x9ec ; CyclicCosineForwardShift + 716
        0x000009da:    1c88        ..      ADDS     r0,r1,#2
        0x000009dc:    f85b1020    [. .    LDR      r1,[r11,r0,LSL #2]
        0x000009e0:    f8461020    F. .    STR      r1,[r6,r0,LSL #2]
        0x000009e4:    f85a1020    Z. .    LDR      r1,[r10,r0,LSL #2]
        0x000009e8:    f8491020    I. .    STR      r1,[r9,r0,LSL #2]
        0x000009ec:    9903        ..      LDR      r1,[sp,#0xc]
        0x000009ee:    9f04        ..      LDR      r7,[sp,#0x10]
        0x000009f0:    2904        .)      CMP      r1,#4
        0x000009f2:    db18        ..      BLT      0xa26 ; CyclicCosineForwardShift + 774
        0x000009f4:    f06f0003    o...    MVN      r0,#3
        0x000009f8:    2204        ."      MOVS     r2,#4
        0x000009fa:    eb000081    ....    ADD      r0,r0,r1,LSL #2
        0x000009fe:    2101        .!      MOVS     r1,#1
        0x00000a00:    58b3        .X      LDR      r3,[r6,r2]
        0x00000a02:    3101        .1      ADDS     r1,#1
        0x00000a04:    42b9        .B      CMP      r1,r7
        0x00000a06:    5033        3P      STR      r3,[r6,r0]
        0x00000a08:    eb090302    ....    ADD      r3,r9,r2
        0x00000a0c:    f1020204    ....    ADD      r2,r2,#4
        0x00000a10:    ed930a00    ....    VLDR     s0,[r3,#0]
        0x00000a14:    eb090300    ....    ADD      r3,r9,r0
        0x00000a18:    f1a00004    ....    SUB      r0,r0,#4
        0x00000a1c:    eeb10a40    ..@.    VNEG.F32 s0,s0
        0x00000a20:    ed830a00    ....    VSTR     s0,[r3,#0]
        0x00000a24:    dbec        ..      BLT      0xa00 ; CyclicCosineForwardShift + 736
        0x00000a26:    2000        .       MOVS     r0,#0
        0x00000a28:    6030        0`      STR      r0,[r6,#0]
        0x00000a2a:    f8c90000    ....    STR      r0,[r9,#0]
        0x00000a2e:    eb060087    ....    ADD      r0,r6,r7,LSL #2
        0x00000a32:    ed900a00    ....    VLDR     s0,[r0,#0]
        0x00000a36:    ee300a00    0...    VADD.F32 s0,s0,s0
        0x00000a3a:    ed800a00    ....    VSTR     s0,[r0,#0]
        0x00000a3e:    eb090087    ....    ADD      r0,r9,r7,LSL #2
        0x00000a42:    ed900a00    ....    VLDR     s0,[r0,#0]
        0x00000a46:    ee300a00    0...    VADD.F32 s0,s0,s0
        0x00000a4a:    ed800a00    ....    VSTR     s0,[r0,#0]
        0x00000a4e:    4658        XF      MOV      r0,r11
        0x00000a50:    f7fffbfb    ....    BL       free ; 0x24a
        0x00000a54:    4650        PF      MOV      r0,r10
        0x00000a56:    b008        ..      ADD      sp,sp,#0x20
        0x00000a58:    ecbd8b04    ....    VPOP     {d8-d9}
        0x00000a5c:    b001        ..      ADD      sp,sp,#4
        0x00000a5e:    e8bd4ff0    ...O    POP      {r4-r11,lr}
        0x00000a62:    f7ffbbf2    ....    B        free ; 0x24a
        0x00000a66:    bf00        ..      NOP      
    $d.3
        0x00000a68:    00000000    ....    DCD    0
    $t.8
    Fft_convolveComplex
        0x00000a6c:    e92d4ff0    -..O    PUSH     {r4-r11,lr}
        0x00000a70:    b081        ..      SUB      sp,sp,#4
        0x00000a72:    4605        .F      MOV      r5,r0
        0x00000a74:    980c        ..      LDR      r0,[sp,#0x30]
        0x00000a76:    f04f0800    O...    MOV      r8,#0
        0x00000a7a:    4699        .F      MOV      r9,r3
        0x00000a7c:    4692        .F      MOV      r10,r2
        0x00000a7e:    468b        .F      MOV      r11,r1
        0x00000a80:    ebb87f90    ....    CMP      r8,r0,LSR #30
        0x00000a84:    f0408250    @.P.    BNE.W    0xf28 ; Fft_convolveComplex + 1212
        0x00000a88:    4607        .F      MOV      r7,r0
        0x00000a8a:    00bc        ..      LSLS     r4,r7,#2
        0x00000a8c:    4620         F      MOV      r0,r4
        0x00000a8e:    f7fffbad    ....    BL       malloc ; 0x1ec
        0x00000a92:    4606        .F      MOV      r6,r0
        0x00000a94:    ebb80f87    ....    CMP      r8,r7,LSL #2
        0x00000a98:    bf18        ..      IT       NE
        0x00000a9a:    2e00        ..      CMPNE    r6,#0
        0x00000a9c:    d004        ..      BEQ      0xaa8 ; Fft_convolveComplex + 60
        0x00000a9e:    4630        0F      MOV      r0,r6
        0x00000aa0:    4629        )F      MOV      r1,r5
        0x00000aa2:    4622        "F      MOV      r2,r4
        0x00000aa4:    f7fffc6f    ..o.    BL       __aeabi_memcpy ; 0x386
        0x00000aa8:    4620         F      MOV      r0,r4
        0x00000aaa:    f7fffb9f    ....    BL       malloc ; 0x1ec
        0x00000aae:    4607        .F      MOV      r7,r0
        0x00000ab0:    2c00        .,      CMP      r4,#0
        0x00000ab2:    bf18        ..      IT       NE
        0x00000ab4:    2f00        ./      CMPNE    r7,#0
        0x00000ab6:    d004        ..      BEQ      0xac2 ; Fft_convolveComplex + 86
        0x00000ab8:    4638        8F      MOV      r0,r7
        0x00000aba:    4659        YF      MOV      r1,r11
        0x00000abc:    4622        "F      MOV      r2,r4
        0x00000abe:    f7fffc62    ..b.    BL       __aeabi_memcpy ; 0x386
        0x00000ac2:    4620         F      MOV      r0,r4
        0x00000ac4:    f7fffb92    ....    BL       malloc ; 0x1ec
        0x00000ac8:    4605        .F      MOV      r5,r0
        0x00000aca:    2c00        .,      CMP      r4,#0
        0x00000acc:    bf18        ..      IT       NE
        0x00000ace:    2d00        .-      CMPNE    r5,#0
        0x00000ad0:    d004        ..      BEQ      0xadc ; Fft_convolveComplex + 112
        0x00000ad2:    4628        (F      MOV      r0,r5
        0x00000ad4:    4651        QF      MOV      r1,r10
        0x00000ad6:    4622        "F      MOV      r2,r4
        0x00000ad8:    f7fffc55    ..U.    BL       __aeabi_memcpy ; 0x386
        0x00000adc:    4620         F      MOV      r0,r4
        0x00000ade:    f7fffb85    ....    BL       malloc ; 0x1ec
        0x00000ae2:    4682        .F      MOV      r10,r0
        0x00000ae4:    2c00        .,      CMP      r4,#0
        0x00000ae6:    46b3        .F      MOV      r11,r6
        0x00000ae8:    bf18        ..      IT       NE
        0x00000aea:    f1ba0f00    ....    CMPNE    r10,#0
        0x00000aee:    d124        $.      BNE      0xb3a ; Fft_convolveComplex + 206
        0x00000af0:    f1bb0f00    ....    CMP      r11,#0
        0x00000af4:    f04f0800    O...    MOV      r8,#0
        0x00000af8:    bf18        ..      IT       NE
        0x00000afa:    2f00        ./      CMPNE    r7,#0
        0x00000afc:    f0008208    ....    BEQ.W    0xf10 ; Fft_convolveComplex + 1188
        0x00000b00:    2d00        .-      CMP      r5,#0
        0x00000b02:    f0008205    ....    BEQ.W    0xf10 ; Fft_convolveComplex + 1188
        0x00000b06:    f1ba0f00    ....    CMP      r10,#0
        0x00000b0a:    f0008201    ....    BEQ.W    0xf10 ; Fft_convolveComplex + 1188
        0x00000b0e:    9c0c        ..      LDR      r4,[sp,#0x30]
        0x00000b10:    2c00        .,      CMP      r4,#0
        0x00000b12:    f00081fb    ....    BEQ.W    0xf0c ; Fft_convolveComplex + 1184
        0x00000b16:    f1a40901    ....    SUB      r9,r4,#1
        0x00000b1a:    4658        XF      MOV      r0,r11
        0x00000b1c:    4639        9F      MOV      r1,r7
        0x00000b1e:    4622        "F      MOV      r2,r4
        0x00000b20:    ea190f04    ....    TST      r9,r4
        0x00000b24:    d017        ..      BEQ      0xb56 ; Fft_convolveComplex + 234
        0x00000b26:    f000fadb    ....    BL       Fft_transformBluestein ; 0x10e0
        0x00000b2a:    b340        @.      CBZ      r0,0xb7e ; Fft_convolveComplex + 274
        0x00000b2c:    4628        (F      MOV      r0,r5
        0x00000b2e:    4651        QF      MOV      r1,r10
        0x00000b30:    4622        "F      MOV      r2,r4
        0x00000b32:    f000fad5    ....    BL       Fft_transformBluestein ; 0x10e0
        0x00000b36:    b9b8        ..      CBNZ     r0,0xb68 ; Fft_convolveComplex + 252
        0x00000b38:    e021        !.      B        0xb7e ; Fft_convolveComplex + 274
        0x00000b3a:    4650        PF      MOV      r0,r10
        0x00000b3c:    4649        IF      MOV      r1,r9
        0x00000b3e:    4622        "F      MOV      r2,r4
        0x00000b40:    f7fffc21    ..!.    BL       __aeabi_memcpy ; 0x386
        0x00000b44:    f1bb0f00    ....    CMP      r11,#0
        0x00000b48:    f04f0800    O...    MOV      r8,#0
        0x00000b4c:    bf18        ..      IT       NE
        0x00000b4e:    2f00        ./      CMPNE    r7,#0
        0x00000b50:    f00081de    ....    BEQ.W    0xf10 ; Fft_convolveComplex + 1188
        0x00000b54:    e7d4        ..      B        0xb00 ; Fft_convolveComplex + 148
        0x00000b56:    f000fee3    ....    BL       Fft_transformRadix2 ; 0x1920
        0x00000b5a:    b180        ..      CBZ      r0,0xb7e ; Fft_convolveComplex + 274
        0x00000b5c:    4628        (F      MOV      r0,r5
        0x00000b5e:    4651        QF      MOV      r1,r10
        0x00000b60:    4622        "F      MOV      r2,r4
        0x00000b62:    f000fedd    ....    BL       Fft_transformRadix2 ; 0x1920
        0x00000b66:    b150        P.      CBZ      r0,0xb7e ; Fft_convolveComplex + 274
        0x00000b68:    f0040003    ....    AND      r0,r4,#3
        0x00000b6c:    f1b90f03    ....    CMP      r9,#3
        0x00000b70:    d208        ..      BCS      0xb84 ; Fft_convolveComplex + 280
        0x00000b72:    4686        .F      MOV      lr,r0
        0x00000b74:    2000        .       MOVS     r0,#0
        0x00000b76:    4676        vF      MOV      r6,lr
        0x00000b78:    2e00        ..      CMP      r6,#0
        0x00000b7a:    d16a        j.      BNE      0xc52 ; Fft_convolveComplex + 486
        0x00000b7c:    e0c3        ..      B        0xd06 ; Fft_convolveComplex + 666
        0x00000b7e:    f04f0800    O...    MOV      r8,#0
        0x00000b82:    e1c5        ..      B        0xf10 ; Fft_convolveComplex + 1188
        0x00000b84:    4686        .F      MOV      lr,r0
        0x00000b86:    eba40c00    ....    SUB      r12,r4,r0
        0x00000b8a:    2200        ."      MOVS     r2,#0
        0x00000b8c:    2000        .       MOVS     r0,#0
        0x00000b8e:    bf00        ..      NOP      
        0x00000b90:    18bb        ..      ADDS     r3,r7,r2
        0x00000b92:    18ac        ..      ADDS     r4,r5,r2
        0x00000b94:    eb0b0602    ....    ADD      r6,r11,r2
        0x00000b98:    4639        9F      MOV      r1,r7
        0x00000b9a:    462f        /F      MOV      r7,r5
        0x00000b9c:    eb0a0502    ....    ADD      r5,r10,r2
        0x00000ba0:    3004        .0      ADDS     r0,#4
        0x00000ba2:    3210        .2      ADDS     r2,r2,#0x10
        0x00000ba4:    ed940a00    ....    VLDR     s0,[r4,#0]
        0x00000ba8:    ed931a00    ....    VLDR     s2,[r3,#0]
        0x00000bac:    ed962a00    ...*    VLDR     s4,[r6,#0]
        0x00000bb0:    ed953a00    ...:    VLDR     s6,[r5,#0]
        0x00000bb4:    4584        .E      CMP      r12,r0
        0x00000bb6:    ee214a00    !..J    VMUL.F32 s8,s2,s0
        0x00000bba:    ee200a02     ...    VMUL.F32 s0,s0,s4
        0x00000bbe:    eea34a02    ...J    VFMA.F32 s8,s6,s4
        0x00000bc2:    eea30a41    ..A.    VFMS.F32 s0,s6,s2
        0x00000bc6:    ed953a01    ...:    VLDR     s6,[r5,#4]
        0x00000bca:    ed860a00    ....    VSTR     s0,[r6,#0]
        0x00000bce:    ed834a00    ...J    VSTR     s8,[r3,#0]
        0x00000bd2:    ed940a01    ....    VLDR     s0,[r4,#4]
        0x00000bd6:    ed931a01    ....    VLDR     s2,[r3,#4]
        0x00000bda:    ed962a01    ...*    VLDR     s4,[r6,#4]
        0x00000bde:    ee214a00    !..J    VMUL.F32 s8,s2,s0
        0x00000be2:    ee200a02     ...    VMUL.F32 s0,s0,s4
        0x00000be6:    eea34a02    ...J    VFMA.F32 s8,s6,s4
        0x00000bea:    eea30a41    ..A.    VFMS.F32 s0,s6,s2
        0x00000bee:    ed953a02    ...:    VLDR     s6,[r5,#8]
        0x00000bf2:    ed860a01    ....    VSTR     s0,[r6,#4]
        0x00000bf6:    ed834a01    ...J    VSTR     s8,[r3,#4]
        0x00000bfa:    ed940a02    ....    VLDR     s0,[r4,#8]
        0x00000bfe:    ed931a02    ....    VLDR     s2,[r3,#8]
        0x00000c02:    ed962a02    ...*    VLDR     s4,[r6,#8]
        0x00000c06:    ee214a00    !..J    VMUL.F32 s8,s2,s0
        0x00000c0a:    ee200a02     ...    VMUL.F32 s0,s0,s4
        0x00000c0e:    eea34a02    ...J    VFMA.F32 s8,s6,s4
        0x00000c12:    eea30a41    ..A.    VFMS.F32 s0,s6,s2
        0x00000c16:    ed953a03    ...:    VLDR     s6,[r5,#0xc]
        0x00000c1a:    463d        =F      MOV      r5,r7
        0x00000c1c:    460f        .F      MOV      r7,r1
        0x00000c1e:    ed860a02    ....    VSTR     s0,[r6,#8]
        0x00000c22:    ed834a02    ...J    VSTR     s8,[r3,#8]
        0x00000c26:    ed940a03    ....    VLDR     s0,[r4,#0xc]
        0x00000c2a:    ed931a03    ....    VLDR     s2,[r3,#0xc]
        0x00000c2e:    ed962a03    ...*    VLDR     s4,[r6,#0xc]
        0x00000c32:    ee214a00    !..J    VMUL.F32 s8,s2,s0
        0x00000c36:    ee200a02     ...    VMUL.F32 s0,s0,s4
        0x00000c3a:    eea34a02    ...J    VFMA.F32 s8,s6,s4
        0x00000c3e:    eea30a41    ..A.    VFMS.F32 s0,s6,s2
        0x00000c42:    ed834a03    ...J    VSTR     s8,[r3,#0xc]
        0x00000c46:    ed860a03    ....    VSTR     s0,[r6,#0xc]
        0x00000c4a:    d1a1        ..      BNE      0xb90 ; Fft_convolveComplex + 292
        0x00000c4c:    4676        vF      MOV      r6,lr
        0x00000c4e:    2e00        ..      CMP      r6,#0
        0x00000c50:    d059        Y.      BEQ      0xd06 ; Fft_convolveComplex + 666
        0x00000c52:    eb070180    ....    ADD      r1,r7,r0,LSL #2
        0x00000c56:    eb050280    ....    ADD      r2,r5,r0,LSL #2
        0x00000c5a:    eb0b0380    ....    ADD      r3,r11,r0,LSL #2
        0x00000c5e:    2e01        ..      CMP      r6,#1
        0x00000c60:    ed920a00    ....    VLDR     s0,[r2,#0]
        0x00000c64:    ed911a00    ....    VLDR     s2,[r1,#0]
        0x00000c68:    eb0a0280    ....    ADD      r2,r10,r0,LSL #2
        0x00000c6c:    ed932a00    ...*    VLDR     s4,[r3,#0]
        0x00000c70:    ed923a00    ...:    VLDR     s6,[r2,#0]
        0x00000c74:    ee214a00    !..J    VMUL.F32 s8,s2,s0
        0x00000c78:    ee200a02     ...    VMUL.F32 s0,s0,s4
        0x00000c7c:    eea34a02    ...J    VFMA.F32 s8,s6,s4
        0x00000c80:    eea30a41    ..A.    VFMS.F32 s0,s6,s2
        0x00000c84:    ed814a00    ...J    VSTR     s8,[r1,#0]
        0x00000c88:    ed830a00    ....    VSTR     s0,[r3,#0]
        0x00000c8c:    d03b        ;.      BEQ      0xd06 ; Fft_convolveComplex + 666
        0x00000c8e:    1c41        A.      ADDS     r1,r0,#1
        0x00000c90:    2e02        ..      CMP      r6,#2
        0x00000c92:    eb050381    ....    ADD      r3,r5,r1,LSL #2
        0x00000c96:    eb070281    ....    ADD      r2,r7,r1,LSL #2
        0x00000c9a:    ed930a00    ....    VLDR     s0,[r3,#0]
        0x00000c9e:    eb0a0381    ....    ADD      r3,r10,r1,LSL #2
        0x00000ca2:    eb0b0181    ....    ADD      r1,r11,r1,LSL #2
        0x00000ca6:    ed921a00    ....    VLDR     s2,[r2,#0]
        0x00000caa:    ed912a00    ...*    VLDR     s4,[r1,#0]
        0x00000cae:    ed933a00    ...:    VLDR     s6,[r3,#0]
        0x00000cb2:    ee214a00    !..J    VMUL.F32 s8,s2,s0
        0x00000cb6:    ee200a02     ...    VMUL.F32 s0,s0,s4
        0x00000cba:    eea34a02    ...J    VFMA.F32 s8,s6,s4
        0x00000cbe:    eea30a41    ..A.    VFMS.F32 s0,s6,s2
        0x00000cc2:    ed824a00    ...J    VSTR     s8,[r2,#0]
        0x00000cc6:    ed810a00    ....    VSTR     s0,[r1,#0]
        0x00000cca:    d01c        ..      BEQ      0xd06 ; Fft_convolveComplex + 666
        0x00000ccc:    3002        .0      ADDS     r0,#2
        0x00000cce:    eb050280    ....    ADD      r2,r5,r0,LSL #2
        0x00000cd2:    eb070180    ....    ADD      r1,r7,r0,LSL #2
        0x00000cd6:    ed920a00    ....    VLDR     s0,[r2,#0]
        0x00000cda:    eb0a0280    ....    ADD      r2,r10,r0,LSL #2
        0x00000cde:    eb0b0080    ....    ADD      r0,r11,r0,LSL #2
        0x00000ce2:    ed911a00    ....    VLDR     s2,[r1,#0]
        0x00000ce6:    ed902a00    ...*    VLDR     s4,[r0,#0]
        0x00000cea:    ed923a00    ...:    VLDR     s6,[r2,#0]
        0x00000cee:    ee214a00    !..J    VMUL.F32 s8,s2,s0
        0x00000cf2:    ee200a02     ...    VMUL.F32 s0,s0,s4
        0x00000cf6:    eea34a02    ...J    VFMA.F32 s8,s6,s4
        0x00000cfa:    eea30a41    ..A.    VFMS.F32 s0,s6,s2
        0x00000cfe:    ed814a00    ...J    VSTR     s8,[r1,#0]
        0x00000d02:    ed800a00    ....    VSTR     s0,[r0,#0]
        0x00000d06:    9c0c        ..      LDR      r4,[sp,#0x30]
        0x00000d08:    2c00        .,      CMP      r4,#0
        0x00000d0a:    f00080ff    ....    BEQ.W    0xf0c ; Fft_convolveComplex + 1184
        0x00000d0e:    4638        8F      MOV      r0,r7
        0x00000d10:    4659        YF      MOV      r1,r11
        0x00000d12:    4622        "F      MOV      r2,r4
        0x00000d14:    ea190f04    ....    TST      r9,r4
        0x00000d18:    d002        ..      BEQ      0xd20 ; Fft_convolveComplex + 692
        0x00000d1a:    f000f9e1    ....    BL       Fft_transformBluestein ; 0x10e0
        0x00000d1e:    e001        ..      B        0xd24 ; Fft_convolveComplex + 696
        0x00000d20:    f000fdfe    ....    BL       Fft_transformRadix2 ; 0x1920
        0x00000d24:    ee014a10    ...J    VMOV     s2,r4
        0x00000d28:    9500        ..      STR      r5,[sp,#0]
        0x00000d2a:    eeb70a00    ....    VMOV.F32 s0,#1.00000000
        0x00000d2e:    4680        .F      MOV      r8,r0
        0x00000d30:    f1b90f03    ....    CMP      r9,#3
        0x00000d34:    eeb81a41    ..A.    VCVT.F32.U32 s2,s2
        0x00000d38:    ee801a01    ....    VDIV.F32 s2,s0,s2
        0x00000d3c:    d202        ..      BCS      0xd44 ; Fft_convolveComplex + 728
        0x00000d3e:    2000        .       MOVS     r0,#0
        0x00000d40:    bbe6        ..      CBNZ     r6,0xdbc ; Fft_convolveComplex + 848
        0x00000d42:    e071        q.      B        0xe28 ; Fft_convolveComplex + 956
        0x00000d44:    1ba1        ..      SUBS     r1,r4,r6
        0x00000d46:    2200        ."      MOVS     r2,#0
        0x00000d48:    2000        .       MOVS     r0,#0
        0x00000d4a:    bf00        ..      NOP      
        0x00000d4c:    18bb        ..      ADDS     r3,r7,r2
        0x00000d4e:    eb0b0502    ....    ADD      r5,r11,r2
        0x00000d52:    3004        .0      ADDS     r0,#4
        0x00000d54:    3210        .2      ADDS     r2,r2,#0x10
        0x00000d56:    ed932a00    ...*    VLDR     s4,[r3,#0]
        0x00000d5a:    4281        .B      CMP      r1,r0
        0x00000d5c:    ee222a01    "..*    VMUL.F32 s4,s4,s2
        0x00000d60:    ed832a00    ...*    VSTR     s4,[r3,#0]
        0x00000d64:    ed952a00    ...*    VLDR     s4,[r5,#0]
        0x00000d68:    ee222a01    "..*    VMUL.F32 s4,s4,s2
        0x00000d6c:    ed852a00    ...*    VSTR     s4,[r5,#0]
        0x00000d70:    ed932a01    ...*    VLDR     s4,[r3,#4]
        0x00000d74:    ee222a01    "..*    VMUL.F32 s4,s4,s2
        0x00000d78:    ed832a01    ...*    VSTR     s4,[r3,#4]
        0x00000d7c:    ed952a01    ...*    VLDR     s4,[r5,#4]
        0x00000d80:    ee222a01    "..*    VMUL.F32 s4,s4,s2
        0x00000d84:    ed852a01    ...*    VSTR     s4,[r5,#4]
        0x00000d88:    ed932a02    ...*    VLDR     s4,[r3,#8]
        0x00000d8c:    ee222a01    "..*    VMUL.F32 s4,s4,s2
        0x00000d90:    ed832a02    ...*    VSTR     s4,[r3,#8]
        0x00000d94:    ed952a02    ...*    VLDR     s4,[r5,#8]
        0x00000d98:    ee222a01    "..*    VMUL.F32 s4,s4,s2
        0x00000d9c:    ed852a02    ...*    VSTR     s4,[r5,#8]
        0x00000da0:    ed932a03    ...*    VLDR     s4,[r3,#0xc]
        0x00000da4:    ee222a01    "..*    VMUL.F32 s4,s4,s2
        0x00000da8:    ed832a03    ...*    VSTR     s4,[r3,#0xc]
        0x00000dac:    ed952a03    ...*    VLDR     s4,[r5,#0xc]
        0x00000db0:    ee222a01    "..*    VMUL.F32 s4,s4,s2
        0x00000db4:    ed852a03    ...*    VSTR     s4,[r5,#0xc]
        0x00000db8:    d1c8        ..      BNE      0xd4c ; Fft_convolveComplex + 736
        0x00000dba:    b3ae        ..      CBZ      r6,0xe28 ; Fft_convolveComplex + 956
        0x00000dbc:    eb070180    ....    ADD      r1,r7,r0,LSL #2
        0x00000dc0:    2e01        ..      CMP      r6,#1
        0x00000dc2:    ed912a00    ...*    VLDR     s4,[r1,#0]
        0x00000dc6:    ee222a01    "..*    VMUL.F32 s4,s4,s2
        0x00000dca:    ed812a00    ...*    VSTR     s4,[r1,#0]
        0x00000dce:    eb0b0180    ....    ADD      r1,r11,r0,LSL #2
        0x00000dd2:    ed912a00    ...*    VLDR     s4,[r1,#0]
        0x00000dd6:    ee222a01    "..*    VMUL.F32 s4,s4,s2
        0x00000dda:    ed812a00    ...*    VSTR     s4,[r1,#0]
        0x00000dde:    d023        #.      BEQ      0xe28 ; Fft_convolveComplex + 956
        0x00000de0:    1c41        A.      ADDS     r1,r0,#1
        0x00000de2:    2e02        ..      CMP      r6,#2
        0x00000de4:    eb070281    ....    ADD      r2,r7,r1,LSL #2
        0x00000de8:    eb0b0181    ....    ADD      r1,r11,r1,LSL #2
        0x00000dec:    ed922a00    ...*    VLDR     s4,[r2,#0]
        0x00000df0:    ee222a01    "..*    VMUL.F32 s4,s4,s2
        0x00000df4:    ed822a00    ...*    VSTR     s4,[r2,#0]
        0x00000df8:    ed912a00    ...*    VLDR     s4,[r1,#0]
        0x00000dfc:    ee222a01    "..*    VMUL.F32 s4,s4,s2
        0x00000e00:    ed812a00    ...*    VSTR     s4,[r1,#0]
        0x00000e04:    d010        ..      BEQ      0xe28 ; Fft_convolveComplex + 956
        0x00000e06:    3002        .0      ADDS     r0,#2
        0x00000e08:    eb070180    ....    ADD      r1,r7,r0,LSL #2
        0x00000e0c:    eb0b0080    ....    ADD      r0,r11,r0,LSL #2
        0x00000e10:    ed912a00    ...*    VLDR     s4,[r1,#0]
        0x00000e14:    ee222a01    "..*    VMUL.F32 s4,s4,s2
        0x00000e18:    ed812a00    ...*    VSTR     s4,[r1,#0]
        0x00000e1c:    ed902a00    ...*    VLDR     s4,[r0,#0]
        0x00000e20:    ee221a01    "...    VMUL.F32 s2,s4,s2
        0x00000e24:    ed801a00    ....    VSTR     s2,[r0,#0]
        0x00000e28:    9d00        ..      LDR      r5,[sp,#0]
        0x00000e2a:    2c00        .,      CMP      r4,#0
        0x00000e2c:    d070        p.      BEQ      0xf10 ; Fft_convolveComplex + 1188
        0x00000e2e:    f0980001    ....    EORS     r0,r8,#1
        0x00000e32:    d16d        m.      BNE      0xf10 ; Fft_convolveComplex + 1188
        0x00000e34:    980c        ..      LDR      r0,[sp,#0x30]
        0x00000e36:    e9ddec0a    ....    LDRD     lr,r12,[sp,#0x28]
        0x00000e3a:    f1b90f03    ....    CMP      r9,#3
        0x00000e3e:    ee010a10    ....    VMOV     s2,r0
        0x00000e42:    eeb81a41    ..A.    VCVT.F32.U32 s2,s2
        0x00000e46:    ee800a01    ....    VDIV.F32 s0,s0,s2
        0x00000e4a:    d205        ..      BCS      0xe58 ; Fft_convolveComplex + 1004
        0x00000e4c:    46b0        .F      MOV      r8,r6
        0x00000e4e:    2200        ."      MOVS     r2,#0
        0x00000e50:    f1b80f00    ....    CMP      r8,#0
        0x00000e54:    d142        B.      BNE      0xedc ; Fft_convolveComplex + 1136
        0x00000e56:    e058        X.      B        0xf0a ; Fft_convolveComplex + 1182
        0x00000e58:    46b0        .F      MOV      r8,r6
        0x00000e5a:    1b83        ..      SUBS     r3,r0,r6
        0x00000e5c:    2600        .&      MOVS     r6,#0
        0x00000e5e:    2200        ."      MOVS     r2,#0
        0x00000e60:    eb0b0506    ....    ADD      r5,r11,r6
        0x00000e64:    eb0e0406    ....    ADD      r4,lr,r6
        0x00000e68:    19b8        ..      ADDS     r0,r7,r6
        0x00000e6a:    eb0c0106    ....    ADD      r1,r12,r6
        0x00000e6e:    3204        .2      ADDS     r2,#4
        0x00000e70:    3610        .6      ADDS     r6,r6,#0x10
        0x00000e72:    ed951a00    ....    VLDR     s2,[r5,#0]
        0x00000e76:    4293        .B      CMP      r3,r2
        0x00000e78:    ee211a00    !...    VMUL.F32 s2,s2,s0
        0x00000e7c:    ed841a00    ....    VSTR     s2,[r4,#0]
        0x00000e80:    ed901a00    ....    VLDR     s2,[r0,#0]
        0x00000e84:    ee211a00    !...    VMUL.F32 s2,s2,s0
        0x00000e88:    ed811a00    ....    VSTR     s2,[r1,#0]
        0x00000e8c:    ed951a01    ....    VLDR     s2,[r5,#4]
        0x00000e90:    ee211a00    !...    VMUL.F32 s2,s2,s0
        0x00000e94:    ed841a01    ....    VSTR     s2,[r4,#4]
        0x00000e98:    ed901a01    ....    VLDR     s2,[r0,#4]
        0x00000e9c:    ee211a00    !...    VMUL.F32 s2,s2,s0
        0x00000ea0:    ed811a01    ....    VSTR     s2,[r1,#4]
        0x00000ea4:    ed951a02    ....    VLDR     s2,[r5,#8]
        0x00000ea8:    ee211a00    !...    VMUL.F32 s2,s2,s0
        0x00000eac:    ed841a02    ....    VSTR     s2,[r4,#8]
        0x00000eb0:    ed901a02    ....    VLDR     s2,[r0,#8]
        0x00000eb4:    ee211a00    !...    VMUL.F32 s2,s2,s0
        0x00000eb8:    ed811a02    ....    VSTR     s2,[r1,#8]
        0x00000ebc:    ed951a03    ....    VLDR     s2,[r5,#0xc]
        0x00000ec0:    ee211a00    !...    VMUL.F32 s2,s2,s0
        0x00000ec4:    ed841a03    ....    VSTR     s2,[r4,#0xc]
        0x00000ec8:    ed901a03    ....    VLDR     s2,[r0,#0xc]
        0x00000ecc:    ee211a00    !...    VMUL.F32 s2,s2,s0
        0x00000ed0:    ed811a03    ....    VSTR     s2,[r1,#0xc]
        0x00000ed4:    d1c4        ..      BNE      0xe60 ; Fft_convolveComplex + 1012
        0x00000ed6:    f1b80f00    ....    CMP      r8,#0
        0x00000eda:    d016        ..      BEQ      0xf0a ; Fft_convolveComplex + 1182
        0x00000edc:    eb0b0082    ....    ADD      r0,r11,r2,LSL #2
        0x00000ee0:    f1b80f01    ....    CMP      r8,#1
        0x00000ee4:    ed901a00    ....    VLDR     s2,[r0,#0]
        0x00000ee8:    eb0e0082    ....    ADD      r0,lr,r2,LSL #2
        0x00000eec:    ee211a00    !...    VMUL.F32 s2,s2,s0
        0x00000ef0:    ed801a00    ....    VSTR     s2,[r0,#0]
        0x00000ef4:    eb070082    ....    ADD      r0,r7,r2,LSL #2
        0x00000ef8:    ed901a00    ....    VLDR     s2,[r0,#0]
        0x00000efc:    eb0c0082    ....    ADD      r0,r12,r2,LSL #2
        0x00000f00:    ee211a00    !...    VMUL.F32 s2,s2,s0
        0x00000f04:    ed801a00    ....    VSTR     s2,[r0,#0]
        0x00000f08:    d112        ..      BNE      0xf30 ; Fft_convolveComplex + 1220
        0x00000f0a:    9d00        ..      LDR      r5,[sp,#0]
        0x00000f0c:    f04f0801    O...    MOV      r8,#1
        0x00000f10:    4650        PF      MOV      r0,r10
        0x00000f12:    f7fff99a    ....    BL       free ; 0x24a
        0x00000f16:    4628        (F      MOV      r0,r5
        0x00000f18:    f7fff997    ....    BL       free ; 0x24a
        0x00000f1c:    4638        8F      MOV      r0,r7
        0x00000f1e:    f7fff994    ....    BL       free ; 0x24a
        0x00000f22:    4658        XF      MOV      r0,r11
        0x00000f24:    f7fff991    ....    BL       free ; 0x24a
        0x00000f28:    4640        @F      MOV      r0,r8
        0x00000f2a:    b001        ..      ADD      sp,sp,#4
        0x00000f2c:    e8bd8ff0    ....    POP      {r4-r11,pc}
        0x00000f30:    1c50        P.      ADDS     r0,r2,#1
        0x00000f32:    9d00        ..      LDR      r5,[sp,#0]
        0x00000f34:    f1b80f02    ....    CMP      r8,#2
        0x00000f38:    eb0b0180    ....    ADD      r1,r11,r0,LSL #2
        0x00000f3c:    ed911a00    ....    VLDR     s2,[r1,#0]
        0x00000f40:    eb0e0180    ....    ADD      r1,lr,r0,LSL #2
        0x00000f44:    ee211a00    !...    VMUL.F32 s2,s2,s0
        0x00000f48:    ed811a00    ....    VSTR     s2,[r1,#0]
        0x00000f4c:    eb070180    ....    ADD      r1,r7,r0,LSL #2
        0x00000f50:    eb0c0080    ....    ADD      r0,r12,r0,LSL #2
        0x00000f54:    ed911a00    ....    VLDR     s2,[r1,#0]
        0x00000f58:    ee211a00    !...    VMUL.F32 s2,s2,s0
        0x00000f5c:    ed801a00    ....    VSTR     s2,[r0,#0]
        0x00000f60:    d0d4        ..      BEQ      0xf0c ; Fft_convolveComplex + 1184
        0x00000f62:    1c90        ..      ADDS     r0,r2,#2
        0x00000f64:    f04f0801    O...    MOV      r8,#1
        0x00000f68:    eb0b0180    ....    ADD      r1,r11,r0,LSL #2
        0x00000f6c:    ed911a00    ....    VLDR     s2,[r1,#0]
        0x00000f70:    eb0e0180    ....    ADD      r1,lr,r0,LSL #2
        0x00000f74:    ee211a00    !...    VMUL.F32 s2,s2,s0
        0x00000f78:    ed811a00    ....    VSTR     s2,[r1,#0]
        0x00000f7c:    eb070180    ....    ADD      r1,r7,r0,LSL #2
        0x00000f80:    eb0c0080    ....    ADD      r0,r12,r0,LSL #2
        0x00000f84:    ed911a00    ....    VLDR     s2,[r1,#0]
        0x00000f88:    ee210a00    !...    VMUL.F32 s0,s2,s0
        0x00000f8c:    ed800a00    ....    VSTR     s0,[r0,#0]
        0x00000f90:    e7be        ..      B        0xf10 ; Fft_convolveComplex + 1188
        0x00000f92:    0000        ..      MOVS     r0,r0
    Fft_inverseTransform_static
        0x00000f94:    b5f0        ..      PUSH     {r4-r7,lr}
        0x00000f96:    b081        ..      SUB      sp,sp,#4
        0x00000f98:    4616        .F      MOV      r6,r2
        0x00000f9a:    460d        .F      MOV      r5,r1
        0x00000f9c:    4604        .F      MOV      r4,r0
        0x00000f9e:    b146        F.      CBZ      r6,0xfb2 ; Fft_inverseTransform_static + 30
        0x00000fa0:    1e77        w.      SUBS     r7,r6,#1
        0x00000fa2:    4237        7B      TST      r7,r6
        0x00000fa4:    d008        ..      BEQ      0xfb8 ; Fft_inverseTransform_static + 36
        0x00000fa6:    4628        (F      MOV      r0,r5
        0x00000fa8:    4621        !F      MOV      r1,r4
        0x00000faa:    4632        2F      MOV      r2,r6
        0x00000fac:    f000f898    ....    BL       Fft_transformBluestein ; 0x10e0
        0x00000fb0:    e009        ..      B        0xfc6 ; Fft_inverseTransform_static + 50
        0x00000fb2:    2001        .       MOVS     r0,#1
        0x00000fb4:    b001        ..      ADD      sp,sp,#4
        0x00000fb6:    bdf0        ..      POP      {r4-r7,pc}
        0x00000fb8:    9806        ..      LDR      r0,[sp,#0x18]
        0x00000fba:    4621        !F      MOV      r1,r4
        0x00000fbc:    4632        2F      MOV      r2,r6
        0x00000fbe:    9000        ..      STR      r0,[sp,#0]
        0x00000fc0:    4628        (F      MOV      r0,r5
        0x00000fc2:    f001f8c9    ....    BL       Fft_transformRadix2_static ; 0x2158
        0x00000fc6:    ee006a10    ...j    VMOV     s0,r6
        0x00000fca:    eeb71a00    ....    VMOV.F32 s2,#1.00000000
        0x00000fce:    f0060c03    ....    AND      r12,r6,#3
        0x00000fd2:    2f03        ./      CMP      r7,#3
        0x00000fd4:    eeb80a40    ..@.    VCVT.F32.U32 s0,s0
        0x00000fd8:    ee810a00    ....    VDIV.F32 s0,s2,s0
        0x00000fdc:    d204        ..      BCS      0xfe8 ; Fft_inverseTransform_static + 84
        0x00000fde:    2200        ."      MOVS     r2,#0
        0x00000fe0:    f1bc0f00    ....    CMP      r12,#0
        0x00000fe4:    d13d        =.      BNE      0x1062 ; Fft_inverseTransform_static + 206
        0x00000fe6:    e063        c.      B        0x10b0 ; Fft_inverseTransform_static + 284
        0x00000fe8:    eba6030c    ....    SUB      r3,r6,r12
        0x00000fec:    2600        .&      MOVS     r6,#0
        0x00000fee:    2200        ."      MOVS     r2,#0
        0x00000ff0:    19af        ..      ADDS     r7,r5,r6
        0x00000ff2:    19a1        ..      ADDS     r1,r4,r6
        0x00000ff4:    3204        .2      ADDS     r2,#4
        0x00000ff6:    3610        .6      ADDS     r6,r6,#0x10
        0x00000ff8:    ed971a00    ....    VLDR     s2,[r7,#0]
        0x00000ffc:    4293        .B      CMP      r3,r2
        0x00000ffe:    ee211a00    !...    VMUL.F32 s2,s2,s0
        0x00001002:    ed871a00    ....    VSTR     s2,[r7,#0]
        0x00001006:    ed911a00    ....    VLDR     s2,[r1,#0]
        0x0000100a:    ee211a00    !...    VMUL.F32 s2,s2,s0
        0x0000100e:    ed811a00    ....    VSTR     s2,[r1,#0]
        0x00001012:    ed971a01    ....    VLDR     s2,[r7,#4]
        0x00001016:    ee211a00    !...    VMUL.F32 s2,s2,s0
        0x0000101a:    ed871a01    ....    VSTR     s2,[r7,#4]
        0x0000101e:    ed911a01    ....    VLDR     s2,[r1,#4]
        0x00001022:    ee211a00    !...    VMUL.F32 s2,s2,s0
        0x00001026:    ed811a01    ....    VSTR     s2,[r1,#4]
        0x0000102a:    ed971a02    ....    VLDR     s2,[r7,#8]
        0x0000102e:    ee211a00    !...    VMUL.F32 s2,s2,s0
        0x00001032:    ed871a02    ....    VSTR     s2,[r7,#8]
        0x00001036:    ed911a02    ....    VLDR     s2,[r1,#8]
        0x0000103a:    ee211a00    !...    VMUL.F32 s2,s2,s0
        0x0000103e:    ed811a02    ....    VSTR     s2,[r1,#8]
        0x00001042:    ed971a03    ....    VLDR     s2,[r7,#0xc]
        0x00001046:    ee211a00    !...    VMUL.F32 s2,s2,s0
        0x0000104a:    ed871a03    ....    VSTR     s2,[r7,#0xc]
        0x0000104e:    ed911a03    ....    VLDR     s2,[r1,#0xc]
        0x00001052:    ee211a00    !...    VMUL.F32 s2,s2,s0
        0x00001056:    ed811a03    ....    VSTR     s2,[r1,#0xc]
        0x0000105a:    d1c9        ..      BNE      0xff0 ; Fft_inverseTransform_static + 92
        0x0000105c:    f1bc0f00    ....    CMP      r12,#0
        0x00001060:    d026        &.      BEQ      0x10b0 ; Fft_inverseTransform_static + 284
        0x00001062:    eb050382    ....    ADD      r3,r5,r2,LSL #2
        0x00001066:    f1bc0f01    ....    CMP      r12,#1
        0x0000106a:    ed931a00    ....    VLDR     s2,[r3,#0]
        0x0000106e:    ee211a00    !...    VMUL.F32 s2,s2,s0
        0x00001072:    ed831a00    ....    VSTR     s2,[r3,#0]
        0x00001076:    eb040382    ....    ADD      r3,r4,r2,LSL #2
        0x0000107a:    ed931a00    ....    VLDR     s2,[r3,#0]
        0x0000107e:    ee211a00    !...    VMUL.F32 s2,s2,s0
        0x00001082:    ed831a00    ....    VSTR     s2,[r3,#0]
        0x00001086:    d013        ..      BEQ      0x10b0 ; Fft_inverseTransform_static + 284
        0x00001088:    1c51        Q.      ADDS     r1,r2,#1
        0x0000108a:    f1bc0f02    ....    CMP      r12,#2
        0x0000108e:    eb050381    ....    ADD      r3,r5,r1,LSL #2
        0x00001092:    eb040181    ....    ADD      r1,r4,r1,LSL #2
        0x00001096:    ed931a00    ....    VLDR     s2,[r3,#0]
        0x0000109a:    ee211a00    !...    VMUL.F32 s2,s2,s0
        0x0000109e:    ed831a00    ....    VSTR     s2,[r3,#0]
        0x000010a2:    ed911a00    ....    VLDR     s2,[r1,#0]
        0x000010a6:    ee211a00    !...    VMUL.F32 s2,s2,s0
        0x000010aa:    ed811a00    ....    VSTR     s2,[r1,#0]
        0x000010ae:    d101        ..      BNE      0x10b4 ; Fft_inverseTransform_static + 288
        0x000010b0:    b001        ..      ADD      sp,sp,#4
        0x000010b2:    bdf0        ..      POP      {r4-r7,pc}
        0x000010b4:    1c91        ..      ADDS     r1,r2,#2
        0x000010b6:    eb050281    ....    ADD      r2,r5,r1,LSL #2
        0x000010ba:    eb040181    ....    ADD      r1,r4,r1,LSL #2
        0x000010be:    ed921a00    ....    VLDR     s2,[r2,#0]
        0x000010c2:    ee211a00    !...    VMUL.F32 s2,s2,s0
        0x000010c6:    ed821a00    ....    VSTR     s2,[r2,#0]
        0x000010ca:    ed911a00    ....    VLDR     s2,[r1,#0]
        0x000010ce:    ee210a00    !...    VMUL.F32 s0,s2,s0
        0x000010d2:    ed810a00    ....    VSTR     s0,[r1,#0]
        0x000010d6:    b001        ..      ADD      sp,sp,#4
        0x000010d8:    bdf0        ..      POP      {r4-r7,pc}
        0x000010da:    0000        ..      MOVS     r0,r0
        0x000010dc:    0000        ..      MOVS     r0,r0
        0x000010de:    0000        ..      MOVS     r0,r0
    Fft_transformBluestein
        0x000010e0:    e92d4ff0    -..O    PUSH     {r4-r11,lr}
        0x000010e4:    b081        ..      SUB      sp,sp,#4
        0x000010e6:    ed2d8b02    -...    VPUSH    {d8}
        0x000010ea:    b09a        ..      SUB      sp,sp,#0x68
        0x000010ec:    4688        .F      MOV      r8,r1
        0x000010ee:    f04f0b01    O...    MOV      r11,#1
        0x000010f2:    bf00        ..      NOP      
        0x000010f4:    46d9        .F      MOV      r9,r11
        0x000010f6:    f1b90f00    ....    CMP      r9,#0
        0x000010fa:    db76        v.      BLT      0x11ea ; Fft_transformBluestein + 266
        0x000010fc:    f0294100    )..A    BIC      r1,r9,#0x80000000
        0x00001100:    ea4f0b49    O.I.    LSL      r11,r9,#1
        0x00001104:    4291        .B      CMP      r1,r2
        0x00001106:    d9f5        ..      BLS      0x10f4 ; Fft_transformBluestein + 20
        0x00001108:    ea4b0102    K...    ORR      r1,r11,r2
        0x0000110c:    2400        .$      MOVS     r4,#0
        0x0000110e:    ebb47f91    ....    CMP      r4,r1,LSR #30
        0x00001112:    f04083f8    @...    BNE.W    0x1906 ; Fft_transformBluestein + 2086
        0x00001116:    0094        ..      LSLS     r4,r2,#2
        0x00001118:    9005        ..      STR      r0,[sp,#0x14]
        0x0000111a:    9207        ..      STR      r2,[sp,#0x1c]
        0x0000111c:    4620         F      MOV      r0,r4
        0x0000111e:    f7fff865    ..e.    BL       malloc ; 0x1ec
        0x00001122:    4682        .F      MOV      r10,r0
        0x00001124:    4620         F      MOV      r0,r4
        0x00001126:    f8cda050    ..P.    STR      r10,[sp,#0x50]
        0x0000112a:    f7fff85f    .._.    BL       malloc ; 0x1ec
        0x0000112e:    4606        .F      MOV      r6,r0
        0x00001130:    4658        XF      MOV      r0,r11
        0x00001132:    2104        .!      MOVS     r1,#4
        0x00001134:    f7fff846    ..F.    BL       calloc ; 0x1c4
        0x00001138:    4607        .F      MOV      r7,r0
        0x0000113a:    4658        XF      MOV      r0,r11
        0x0000113c:    2104        .!      MOVS     r1,#4
        0x0000113e:    f7fff841    ..A.    BL       calloc ; 0x1c4
        0x00001142:    4605        .F      MOV      r5,r0
        0x00001144:    4658        XF      MOV      r0,r11
        0x00001146:    2104        .!      MOVS     r1,#4
        0x00001148:    f7fff83c    ..<.    BL       calloc ; 0x1c4
        0x0000114c:    900b        ..      STR      r0,[sp,#0x2c]
        0x0000114e:    4658        XF      MOV      r0,r11
        0x00001150:    2104        .!      MOVS     r1,#4
        0x00001152:    f7fff837    ..7.    BL       calloc ; 0x1c4
        0x00001156:    ea4f04c9    O...    LSL      r4,r9,#3
        0x0000115a:    9008        ..      STR      r0,[sp,#0x20]
        0x0000115c:    4620         F      MOV      r0,r4
        0x0000115e:    f7fff845    ..E.    BL       malloc ; 0x1ec
        0x00001162:    900c        ..      STR      r0,[sp,#0x30]
        0x00001164:    4620         F      MOV      r0,r4
        0x00001166:    f7fff841    ..A.    BL       malloc ; 0x1ec
        0x0000116a:    4686        .F      MOV      lr,r0
        0x0000116c:    2400        .$      MOVS     r4,#0
        0x0000116e:    f1ba0f00    ....    CMP      r10,#0
        0x00001172:    e9cd5709    ...W    STRD     r5,r7,[sp,#0x24]
        0x00001176:    f00083cd    ....    BEQ.W    0x1914 ; Fft_transformBluestein + 2100
        0x0000117a:    f8dda020    .. .    LDR      r10,[sp,#0x20]
        0x0000117e:    b3b6        ..      CBZ      r6,0x11ee ; Fft_transformBluestein + 270
        0x00001180:    b3af        ..      CBZ      r7,0x11ee ; Fft_transformBluestein + 270
        0x00001182:    b3a5        ..      CBZ      r5,0x11ee ; Fft_transformBluestein + 270
        0x00001184:    980b        ..      LDR      r0,[sp,#0x2c]
        0x00001186:    b390        ..      CBZ      r0,0x11ee ; Fft_transformBluestein + 270
        0x00001188:    f1ba0f00    ....    CMP      r10,#0
        0x0000118c:    d02f        /.      BEQ      0x11ee ; Fft_transformBluestein + 270
        0x0000118e:    980c        ..      LDR      r0,[sp,#0x30]
        0x00001190:    b368        h.      CBZ      r0,0x11ee ; Fft_transformBluestein + 270
        0x00001192:    f8cd8034    ..4.    STR      r8,[sp,#0x34]
        0x00001196:    f8dd802c    ..,.    LDR      r8,[sp,#0x2c]
        0x0000119a:    9d07        ..      LDR      r5,[sp,#0x1c]
        0x0000119c:    f1be0f00    ....    CMP      lr,#0
        0x000011a0:    f0008399    ....    BEQ.W    0x18d6 ; Fft_transformBluestein + 2038
        0x000011a4:    2d00        .-      CMP      r5,#0
        0x000011a6:    9615        ..      STR      r6,[sp,#0x54]
        0x000011a8:    f8cde018    ....    STR      lr,[sp,#0x18]
        0x000011ac:    f00082bd    ....    BEQ.W    0x172a ; Fft_transformBluestein + 1610
        0x000011b0:    4628        (F      MOV      r0,r5
        0x000011b2:    f005fa35    ..5.    BL       __aeabi_ui2d ; 0x6620
        0x000011b6:    ed9f0be6    ....    VLDR     d0,[pc,#920] ; [0x1550] = 0
        0x000011ba:    4602        .F      MOV      r2,r0
        0x000011bc:    460b        .F      MOV      r3,r1
        0x000011be:    ec510b10    Q...    VMOV     r0,r1,d0
        0x000011c2:    f005f861    ..a.    BL       __aeabi_ddiv ; 0x6288
        0x000011c6:    1e6a        j.      SUBS     r2,r5,#1
        0x000011c8:    900f        ..      STR      r0,[sp,#0x3c]
        0x000011ca:    f0050003    ....    AND      r0,r5,#3
        0x000011ce:    0feb        ..      LSRS     r3,r5,#31
        0x000011d0:    006f        o.      LSLS     r7,r5,#1
        0x000011d2:    2a03        .*      CMP      r2,#3
        0x000011d4:    e9cd2003    ...     STRD     r2,r0,[sp,#0xc]
        0x000011d8:    9110        ..      STR      r1,[sp,#0x40]
        0x000011da:    d20b        ..      BCS      0x11f4 ; Fft_transformBluestein + 276
        0x000011dc:    2500        .%      MOVS     r5,#0
        0x000011de:    463a        :F      MOV      r2,r7
        0x000011e0:    9c04        ..      LDR      r4,[sp,#0x10]
        0x000011e2:    2c00        .,      CMP      r4,#0
        0x000011e4:    f0408101    @...    BNE.W    0x13ea ; Fft_transformBluestein + 778
        0x000011e8:    e1a1        ..      B        0x152e ; Fft_transformBluestein + 1102
        0x000011ea:    2400        .$      MOVS     r4,#0
        0x000011ec:    e38b        ..      B        0x1906 ; Fft_transformBluestein + 2086
        0x000011ee:    f8dd802c    ..,.    LDR      r8,[sp,#0x2c]
        0x000011f2:    e370        p.      B        0x18d6 ; Fft_transformBluestein + 2038
        0x000011f4:    ed9f0bd8    ....    VLDR     d0,[pc,#864] ; [0x1558] = 0x54442eea
        0x000011f8:    1a28        (.      SUBS     r0,r5,r0
        0x000011fa:    463a        :F      MOV      r2,r7
        0x000011fc:    2400        .$      MOVS     r4,#0
        0x000011fe:    2500        .%      MOVS     r5,#0
        0x00001200:    900e        ..      STR      r0,[sp,#0x38]
        0x00001202:    ec570b10    W...    VMOV     r0,r7,d0
        0x00001206:    e9cd7012    ...p    STRD     r7,r0,[sp,#0x48]
        0x0000120a:    e9cd2318    ...#    STRD     r2,r3,[sp,#0x60]
        0x0000120e:    bf00        ..      NOP      
        0x00001210:    e9cd4516    ...E    STRD     r4,r5,[sp,#0x58]
        0x00001214:    fba50105    ....    UMULL    r0,r1,r5,r5
        0x00001218:    e9dd2318    ...#    LDRD     r2,r3,[sp,#0x60]
        0x0000121c:    f7fff83c    ..<.    BL       __aeabi_uldivmod ; 0x298
        0x00001220:    4610        .F      MOV      r0,r2
        0x00001222:    4619        .F      MOV      r1,r3
        0x00001224:    f005fa10    ....    BL       __aeabi_ul2d ; 0x6648
        0x00001228:    9f13        ..      LDR      r7,[sp,#0x4c]
        0x0000122a:    9d12        ..      LDR      r5,[sp,#0x48]
        0x0000122c:    463a        :F      MOV      r2,r7
        0x0000122e:    462b        +F      MOV      r3,r5
        0x00001230:    f005fa50    ..P.    BL       __aeabi_dmul ; 0x66d4
        0x00001234:    9e0f        ..      LDR      r6,[sp,#0x3c]
        0x00001236:    f8dd8040    ..@.    LDR      r8,[sp,#0x40]
        0x0000123a:    4632        2F      MOV      r2,r6
        0x0000123c:    4643        CF      MOV      r3,r8
        0x0000123e:    f005fa49    ..I.    BL       __aeabi_dmul ; 0x66d4
        0x00001242:    f004ff47    ..G.    BL       __aeabi_d2f ; 0x60d4
        0x00001246:    f005fc39    ..9.    BL       __aeabi_f2d ; 0x6abc
        0x0000124a:    ec410b18    A...    VMOV     d8,r0,r1
        0x0000124e:    eeb00a48    ..H.    VMOV.F32 s0,s16
        0x00001252:    eef00a68    ..h.    VMOV.F32 s1,s17
        0x00001256:    f003fdcb    ....    BL       __hardfp_cos ; 0x4df0
        0x0000125a:    ec510b10    Q...    VMOV     r0,r1,d0
        0x0000125e:    f004ff39    ..9.    BL       __aeabi_d2f ; 0x60d4
        0x00001262:    f8dda050    ..P.    LDR      r10,[sp,#0x50]
        0x00001266:    eeb00a48    ..H.    VMOV.F32 s0,s16
        0x0000126a:    eef00a68    ..h.    VMOV.F32 s1,s17
        0x0000126e:    f84a0004    J...    STR      r0,[r10,r4]
        0x00001272:    f003fe21    ..!.    BL       __hardfp_sin ; 0x4eb8
        0x00001276:    ec510b10    Q...    VMOV     r0,r1,d0
        0x0000127a:    f004ff2b    ..+.    BL       __aeabi_d2f ; 0x60d4
        0x0000127e:    4604        .F      MOV      r4,r0
        0x00001280:    9817        ..      LDR      r0,[sp,#0x5c]
        0x00001282:    e9dd2318    ...#    LDRD     r2,r3,[sp,#0x60]
        0x00001286:    3001        .0      ADDS     r0,#1
        0x00001288:    fba00100    ....    UMULL    r0,r1,r0,r0
        0x0000128c:    f7fff804    ....    BL       __aeabi_uldivmod ; 0x298
        0x00001290:    4610        .F      MOV      r0,r2
        0x00001292:    4619        .F      MOV      r1,r3
        0x00001294:    f005f9d8    ....    BL       __aeabi_ul2d ; 0x6648
        0x00001298:    463a        :F      MOV      r2,r7
        0x0000129a:    462b        +F      MOV      r3,r5
        0x0000129c:    f005fa1a    ....    BL       __aeabi_dmul ; 0x66d4
        0x000012a0:    4632        2F      MOV      r2,r6
        0x000012a2:    4643        CF      MOV      r3,r8
        0x000012a4:    f005fa16    ....    BL       __aeabi_dmul ; 0x66d4
        0x000012a8:    e9dd3215    ...2    LDRD     r3,r2,[sp,#0x54]
        0x000012ac:    509c        .P      STR      r4,[r3,r2]
        0x000012ae:    f004ff11    ....    BL       __aeabi_d2f ; 0x60d4
        0x000012b2:    f005fc03    ....    BL       __aeabi_f2d ; 0x6abc
        0x000012b6:    ec410b18    A...    VMOV     d8,r0,r1
        0x000012ba:    eeb00a48    ..H.    VMOV.F32 s0,s16
        0x000012be:    eef00a68    ..h.    VMOV.F32 s1,s17
        0x000012c2:    f003fd95    ....    BL       __hardfp_cos ; 0x4df0
        0x000012c6:    ec510b10    Q...    VMOV     r0,r1,d0
        0x000012ca:    f004ff03    ....    BL       __aeabi_d2f ; 0x60d4
        0x000012ce:    9916        ..      LDR      r1,[sp,#0x58]
        0x000012d0:    eeb00a48    ..H.    VMOV.F32 s0,s16
        0x000012d4:    eef00a68    ..h.    VMOV.F32 s1,s17
        0x000012d8:    4451        QD      ADD      r1,r1,r10
        0x000012da:    9111        ..      STR      r1,[sp,#0x44]
        0x000012dc:    6048        H`      STR      r0,[r1,#4]
        0x000012de:    f003fdeb    ....    BL       __hardfp_sin ; 0x4eb8
        0x000012e2:    ec510b10    Q...    VMOV     r0,r1,d0
        0x000012e6:    f004fef5    ....    BL       __aeabi_d2f ; 0x60d4
        0x000012ea:    4682        .F      MOV      r10,r0
        0x000012ec:    9817        ..      LDR      r0,[sp,#0x5c]
        0x000012ee:    e9dd2318    ...#    LDRD     r2,r3,[sp,#0x60]
        0x000012f2:    4634        4F      MOV      r4,r6
        0x000012f4:    3002        .0      ADDS     r0,#2
        0x000012f6:    fba00100    ....    UMULL    r0,r1,r0,r0
        0x000012fa:    f7feffcd    ....    BL       __aeabi_uldivmod ; 0x298
        0x000012fe:    4610        .F      MOV      r0,r2
        0x00001300:    4619        .F      MOV      r1,r3
        0x00001302:    f005f9a1    ....    BL       __aeabi_ul2d ; 0x6648
        0x00001306:    9f13        ..      LDR      r7,[sp,#0x4c]
        0x00001308:    462b        +F      MOV      r3,r5
        0x0000130a:    463a        :F      MOV      r2,r7
        0x0000130c:    f005f9e2    ....    BL       __aeabi_dmul ; 0x66d4
        0x00001310:    4622        "F      MOV      r2,r4
        0x00001312:    4643        CF      MOV      r3,r8
        0x00001314:    4646        FF      MOV      r6,r8
        0x00001316:    f005f9dd    ....    BL       __aeabi_dmul ; 0x66d4
        0x0000131a:    e9dd3215    ...2    LDRD     r3,r2,[sp,#0x54]
        0x0000131e:    4625        %F      MOV      r5,r4
        0x00001320:    eb030802    ....    ADD      r8,r3,r2
        0x00001324:    f8c8a004    ....    STR      r10,[r8,#4]
        0x00001328:    f004fed4    ....    BL       __aeabi_d2f ; 0x60d4
        0x0000132c:    f005fbc6    ....    BL       __aeabi_f2d ; 0x6abc
        0x00001330:    ec410b18    A...    VMOV     d8,r0,r1
        0x00001334:    eeb00a48    ..H.    VMOV.F32 s0,s16
        0x00001338:    eef00a68    ..h.    VMOV.F32 s1,s17
        0x0000133c:    f003fd58    ..X.    BL       __hardfp_cos ; 0x4df0
        0x00001340:    ec510b10    Q...    VMOV     r0,r1,d0
        0x00001344:    f004fec6    ....    BL       __aeabi_d2f ; 0x60d4
        0x00001348:    f8dda044    ..D.    LDR      r10,[sp,#0x44]
        0x0000134c:    eeb00a48    ..H.    VMOV.F32 s0,s16
        0x00001350:    eef00a68    ..h.    VMOV.F32 s1,s17
        0x00001354:    f8ca0008    ....    STR      r0,[r10,#8]
        0x00001358:    f003fdae    ....    BL       __hardfp_sin ; 0x4eb8
        0x0000135c:    ec510b10    Q...    VMOV     r0,r1,d0
        0x00001360:    f004feb8    ....    BL       __aeabi_d2f ; 0x60d4
        0x00001364:    4604        .F      MOV      r4,r0
        0x00001366:    9817        ..      LDR      r0,[sp,#0x5c]
        0x00001368:    e9dd2318    ...#    LDRD     r2,r3,[sp,#0x60]
        0x0000136c:    3003        .0      ADDS     r0,#3
        0x0000136e:    fba00100    ....    UMULL    r0,r1,r0,r0
        0x00001372:    f7feff91    ....    BL       __aeabi_uldivmod ; 0x298
        0x00001376:    4610        .F      MOV      r0,r2
        0x00001378:    4619        .F      MOV      r1,r3
        0x0000137a:    f005f965    ..e.    BL       __aeabi_ul2d ; 0x6648
        0x0000137e:    9b12        ..      LDR      r3,[sp,#0x48]
        0x00001380:    463a        :F      MOV      r2,r7
        0x00001382:    f005f9a7    ....    BL       __aeabi_dmul ; 0x66d4
        0x00001386:    462a        *F      MOV      r2,r5
        0x00001388:    9d17        ..      LDR      r5,[sp,#0x5c]
        0x0000138a:    4633        3F      MOV      r3,r6
        0x0000138c:    f005f9a2    ....    BL       __aeabi_dmul ; 0x66d4
        0x00001390:    f8c84008    ...@    STR      r4,[r8,#8]
        0x00001394:    9c16        ..      LDR      r4,[sp,#0x58]
        0x00001396:    f004fe9d    ....    BL       __aeabi_d2f ; 0x60d4
        0x0000139a:    f005fb8f    ....    BL       __aeabi_f2d ; 0x6abc
        0x0000139e:    ec410b18    A...    VMOV     d8,r0,r1
        0x000013a2:    eeb00a48    ..H.    VMOV.F32 s0,s16
        0x000013a6:    eef00a68    ..h.    VMOV.F32 s1,s17
        0x000013aa:    f003fd21    ..!.    BL       __hardfp_cos ; 0x4df0
        0x000013ae:    ec510b10    Q...    VMOV     r0,r1,d0
        0x000013b2:    f004fe8f    ....    BL       __aeabi_d2f ; 0x60d4
        0x000013b6:    eeb00a48    ..H.    VMOV.F32 s0,s16
        0x000013ba:    f8ca000c    ....    STR      r0,[r10,#0xc]
        0x000013be:    eef00a68    ..h.    VMOV.F32 s1,s17
        0x000013c2:    f003fd79    ..y.    BL       __hardfp_sin ; 0x4eb8
        0x000013c6:    ec510b10    Q...    VMOV     r0,r1,d0
        0x000013ca:    f004fe83    ....    BL       __aeabi_d2f ; 0x60d4
        0x000013ce:    e9dd2318    ...#    LDRD     r2,r3,[sp,#0x60]
        0x000013d2:    f8c8000c    ....    STR      r0,[r8,#0xc]
        0x000013d6:    980e        ..      LDR      r0,[sp,#0x38]
        0x000013d8:    3504        .5      ADDS     r5,#4
        0x000013da:    3410        .4      ADDS     r4,r4,#0x10
        0x000013dc:    42a8        .B      CMP      r0,r5
        0x000013de:    f47faf17    ....    BNE      0x1210 ; Fft_transformBluestein + 304
        0x000013e2:    9c04        ..      LDR      r4,[sp,#0x10]
        0x000013e4:    2c00        .,      CMP      r4,#0
        0x000013e6:    f00080a2    ....    BEQ.W    0x152e ; Fft_transformBluestein + 1102
        0x000013ea:    fba50105    ....    UMULL    r0,r1,r5,r5
        0x000013ee:    4617        .F      MOV      r7,r2
        0x000013f0:    461e        .F      MOV      r6,r3
        0x000013f2:    f7feff51    ..Q.    BL       __aeabi_uldivmod ; 0x298
        0x000013f6:    4610        .F      MOV      r0,r2
        0x000013f8:    4619        .F      MOV      r1,r3
        0x000013fa:    f005f925    ..%.    BL       __aeabi_ul2d ; 0x6648
        0x000013fe:    ed9f0b56    ..V.    VLDR     d0,[pc,#344] ; [0x1558] = 0x54442eea
        0x00001402:    ec582b10    X..+    VMOV     r2,r8,d0
        0x00001406:    4643        CF      MOV      r3,r8
        0x00001408:    9217        ..      STR      r2,[sp,#0x5c]
        0x0000140a:    f005f963    ..c.    BL       __aeabi_dmul ; 0x66d4
        0x0000140e:    e9dd230f    ...#    LDRD     r2,r3,[sp,#0x3c]
        0x00001412:    f005f95f    .._.    BL       __aeabi_dmul ; 0x66d4
        0x00001416:    f004fe5d    ..].    BL       __aeabi_d2f ; 0x60d4
        0x0000141a:    f005fb4f    ..O.    BL       __aeabi_f2d ; 0x6abc
        0x0000141e:    ec410b18    A...    VMOV     d8,r0,r1
        0x00001422:    eeb00a48    ..H.    VMOV.F32 s0,s16
        0x00001426:    eef00a68    ..h.    VMOV.F32 s1,s17
        0x0000142a:    f003fce1    ....    BL       __hardfp_cos ; 0x4df0
        0x0000142e:    ec510b10    Q...    VMOV     r0,r1,d0
        0x00001432:    f004fe4f    ..O.    BL       __aeabi_d2f ; 0x60d4
        0x00001436:    9914        ..      LDR      r1,[sp,#0x50]
        0x00001438:    eeb00a48    ..H.    VMOV.F32 s0,s16
        0x0000143c:    eef00a68    ..h.    VMOV.F32 s1,s17
        0x00001440:    f8410025    A.%.    STR      r0,[r1,r5,LSL #2]
        0x00001444:    f003fd38    ..8.    BL       __hardfp_sin ; 0x4eb8
        0x00001448:    ec510b10    Q...    VMOV     r0,r1,d0
        0x0000144c:    f004fe42    ..B.    BL       __aeabi_d2f ; 0x60d4
        0x00001450:    9915        ..      LDR      r1,[sp,#0x54]
        0x00001452:    2c01        .,      CMP      r4,#1
        0x00001454:    f8410025    A.%.    STR      r0,[r1,r5,LSL #2]
        0x00001458:    d069        i.      BEQ      0x152e ; Fft_transformBluestein + 1102
        0x0000145a:    1c6c        l.      ADDS     r4,r5,#1
        0x0000145c:    463a        :F      MOV      r2,r7
        0x0000145e:    4633        3F      MOV      r3,r6
        0x00001460:    fba40104    ....    UMULL    r0,r1,r4,r4
        0x00001464:    f7feff18    ....    BL       __aeabi_uldivmod ; 0x298
        0x00001468:    4610        .F      MOV      r0,r2
        0x0000146a:    4619        .F      MOV      r1,r3
        0x0000146c:    f005f8ec    ....    BL       __aeabi_ul2d ; 0x6648
        0x00001470:    9a17        ..      LDR      r2,[sp,#0x5c]
        0x00001472:    4643        CF      MOV      r3,r8
        0x00001474:    f005f92e    ....    BL       __aeabi_dmul ; 0x66d4
        0x00001478:    e9dd230f    ...#    LDRD     r2,r3,[sp,#0x3c]
        0x0000147c:    f005f92a    ..*.    BL       __aeabi_dmul ; 0x66d4
        0x00001480:    f004fe28    ..(.    BL       __aeabi_d2f ; 0x60d4
        0x00001484:    f005fb1a    ....    BL       __aeabi_f2d ; 0x6abc
        0x00001488:    ec410b18    A...    VMOV     d8,r0,r1
        0x0000148c:    eeb00a48    ..H.    VMOV.F32 s0,s16
        0x00001490:    eef00a68    ..h.    VMOV.F32 s1,s17
        0x00001494:    f003fcac    ....    BL       __hardfp_cos ; 0x4df0
        0x00001498:    ec510b10    Q...    VMOV     r0,r1,d0
        0x0000149c:    f004fe1a    ....    BL       __aeabi_d2f ; 0x60d4
        0x000014a0:    9914        ..      LDR      r1,[sp,#0x50]
        0x000014a2:    eeb00a48    ..H.    VMOV.F32 s0,s16
        0x000014a6:    eef00a68    ..h.    VMOV.F32 s1,s17
        0x000014aa:    f8410024    A.$.    STR      r0,[r1,r4,LSL #2]
        0x000014ae:    f003fd03    ....    BL       __hardfp_sin ; 0x4eb8
        0x000014b2:    ec510b10    Q...    VMOV     r0,r1,d0
        0x000014b6:    f004fe0d    ....    BL       __aeabi_d2f ; 0x60d4
        0x000014ba:    9915        ..      LDR      r1,[sp,#0x54]
        0x000014bc:    f8410024    A.$.    STR      r0,[r1,r4,LSL #2]
        0x000014c0:    9c04        ..      LDR      r4,[sp,#0x10]
        0x000014c2:    2c02        .,      CMP      r4,#2
        0x000014c4:    d033        3.      BEQ      0x152e ; Fft_transformBluestein + 1102
        0x000014c6:    1cac        ..      ADDS     r4,r5,#2
        0x000014c8:    463a        :F      MOV      r2,r7
        0x000014ca:    4633        3F      MOV      r3,r6
        0x000014cc:    fba40104    ....    UMULL    r0,r1,r4,r4
        0x000014d0:    f7fefee2    ....    BL       __aeabi_uldivmod ; 0x298
        0x000014d4:    4610        .F      MOV      r0,r2
        0x000014d6:    4619        .F      MOV      r1,r3
        0x000014d8:    f005f8b6    ....    BL       __aeabi_ul2d ; 0x6648
        0x000014dc:    9a17        ..      LDR      r2,[sp,#0x5c]
        0x000014de:    4643        CF      MOV      r3,r8
        0x000014e0:    f005f8f8    ....    BL       __aeabi_dmul ; 0x66d4
        0x000014e4:    e9dd230f    ...#    LDRD     r2,r3,[sp,#0x3c]
        0x000014e8:    f005f8f4    ....    BL       __aeabi_dmul ; 0x66d4
        0x000014ec:    f004fdf2    ....    BL       __aeabi_d2f ; 0x60d4
        0x000014f0:    f005fae4    ....    BL       __aeabi_f2d ; 0x6abc
        0x000014f4:    ec410b18    A...    VMOV     d8,r0,r1
        0x000014f8:    eeb00a48    ..H.    VMOV.F32 s0,s16
        0x000014fc:    eef00a68    ..h.    VMOV.F32 s1,s17
        0x00001500:    f003fc76    ..v.    BL       __hardfp_cos ; 0x4df0
        0x00001504:    ec510b10    Q...    VMOV     r0,r1,d0
        0x00001508:    f004fde4    ....    BL       __aeabi_d2f ; 0x60d4
        0x0000150c:    9914        ..      LDR      r1,[sp,#0x50]
        0x0000150e:    eeb00a48    ..H.    VMOV.F32 s0,s16
        0x00001512:    eef00a68    ..h.    VMOV.F32 s1,s17
        0x00001516:    f8410024    A.$.    STR      r0,[r1,r4,LSL #2]
        0x0000151a:    f003fccd    ....    BL       __hardfp_sin ; 0x4eb8
        0x0000151e:    ec510b10    Q...    VMOV     r0,r1,d0
        0x00001522:    f004fdd7    ....    BL       __aeabi_d2f ; 0x60d4
        0x00001526:    9915        ..      LDR      r1,[sp,#0x54]
        0x00001528:    f8410024    A.$.    STR      r0,[r1,r4,LSL #2]
        0x0000152c:    9c04        ..      LDR      r4,[sp,#0x10]
        0x0000152e:    9d07        ..      LDR      r5,[sp,#0x1c]
        0x00001530:    9e15        ..      LDR      r6,[sp,#0x54]
        0x00001532:    f8dd8028    ..(.    LDR      r8,[sp,#0x28]
        0x00001536:    f8dda020    .. .    LDR      r10,[sp,#0x20]
        0x0000153a:    f8dde018    ....    LDR      lr,[sp,#0x18]
        0x0000153e:    2d00        .-      CMP      r5,#0
        0x00001540:    f00080f3    ....    BEQ.W    0x172a ; Fft_transformBluestein + 1610
        0x00001544:    9803        ..      LDR      r0,[sp,#0xc]
        0x00001546:    2803        .(      CMP      r0,#3
        0x00001548:    d20a        ..      BCS      0x1560 ; Fft_transformBluestein + 1152
        0x0000154a:    2000        .       MOVS     r0,#0
        0x0000154c:    46b2        .F      MOV      r10,r6
        0x0000154e:    e072        r.      B        0x1636 ; Fft_transformBluestein + 1366
    $d.5
        0x00001550:    00000000    ....    DCD    0
        0x00001554:    3ff00000    ...?    DCD    1072693248
        0x00001558:    54442eea    ..DT    DCD    1413754602
        0x0000155c:    400921fb    .!.@    DCD    1074340347
    $t.6
        0x00001560:    1b28        (.      SUBS     r0,r5,r4
        0x00001562:    f8dde024    ..$.    LDR      lr,[sp,#0x24]
        0x00001566:    f8ddc014    ....    LDR      r12,[sp,#0x14]
        0x0000156a:    2200        ."      MOVS     r2,#0
        0x0000156c:    46b2        .F      MOV      r10,r6
        0x0000156e:    9019        ..      STR      r0,[sp,#0x64]
        0x00001570:    2000        .       MOVS     r0,#0
        0x00001572:    bf00        ..      NOP      
        0x00001574:    9914        ..      LDR      r1,[sp,#0x50]
        0x00001576:    eb0c0602    ....    ADD      r6,r12,r2
        0x0000157a:    eb0a0502    ....    ADD      r5,r10,r2
        0x0000157e:    eb0e0702    ....    ADD      r7,lr,r2
        0x00001582:    eb080402    ....    ADD      r4,r8,r2
        0x00001586:    3004        .0      ADDS     r0,#4
        0x00001588:    ed960a00    ....    VLDR     s0,[r6,#0]
        0x0000158c:    ed953a00    ...:    VLDR     s6,[r5,#0]
        0x00001590:    188b        ..      ADDS     r3,r1,r2
        0x00001592:    990d        ..      LDR      r1,[sp,#0x34]
        0x00001594:    ed931a00    ....    VLDR     s2,[r3,#0]
        0x00001598:    4411        .D      ADD      r1,r1,r2
        0x0000159a:    3210        .2      ADDS     r2,r2,#0x10
        0x0000159c:    ed912a00    ...*    VLDR     s4,[r1,#0]
        0x000015a0:    ee214a00    !..J    VMUL.F32 s8,s2,s0
        0x000015a4:    ee221a01    "...    VMUL.F32 s2,s4,s2
        0x000015a8:    eea34a02    ...J    VFMA.F32 s8,s6,s4
        0x000015ac:    eea31a40    ..@.    VFMS.F32 s2,s6,s0
        0x000015b0:    ed844a00    ...J    VSTR     s8,[r4,#0]
        0x000015b4:    ed953a01    ...:    VLDR     s6,[r5,#4]
        0x000015b8:    ed871a00    ....    VSTR     s2,[r7,#0]
        0x000015bc:    ed931a01    ....    VLDR     s2,[r3,#4]
        0x000015c0:    ed960a01    ....    VLDR     s0,[r6,#4]
        0x000015c4:    ed912a01    ...*    VLDR     s4,[r1,#4]
        0x000015c8:    ee214a00    !..J    VMUL.F32 s8,s2,s0
        0x000015cc:    ee221a01    "...    VMUL.F32 s2,s4,s2
        0x000015d0:    eea34a02    ...J    VFMA.F32 s8,s6,s4
        0x000015d4:    eea31a40    ..@.    VFMS.F32 s2,s6,s0
        0x000015d8:    ed953a02    ...:    VLDR     s6,[r5,#8]
        0x000015dc:    ed871a01    ....    VSTR     s2,[r7,#4]
        0x000015e0:    ed844a01    ...J    VSTR     s8,[r4,#4]
        0x000015e4:    ed931a02    ....    VLDR     s2,[r3,#8]
        0x000015e8:    ed960a02    ....    VLDR     s0,[r6,#8]
        0x000015ec:    ed912a02    ...*    VLDR     s4,[r1,#8]
        0x000015f0:    ee214a00    !..J    VMUL.F32 s8,s2,s0
        0x000015f4:    ee221a01    "...    VMUL.F32 s2,s4,s2
        0x000015f8:    eea34a02    ...J    VFMA.F32 s8,s6,s4
        0x000015fc:    eea31a40    ..@.    VFMS.F32 s2,s6,s0
        0x00001600:    ed953a03    ...:    VLDR     s6,[r5,#0xc]
        0x00001604:    ed871a02    ....    VSTR     s2,[r7,#8]
        0x00001608:    ed844a02    ...J    VSTR     s8,[r4,#8]
        0x0000160c:    ed931a03    ....    VLDR     s2,[r3,#0xc]
        0x00001610:    ed960a03    ....    VLDR     s0,[r6,#0xc]
        0x00001614:    ed912a03    ...*    VLDR     s4,[r1,#0xc]
        0x00001618:    9919        ..      LDR      r1,[sp,#0x64]
        0x0000161a:    ee214a00    !..J    VMUL.F32 s8,s2,s0
        0x0000161e:    ee221a01    "...    VMUL.F32 s2,s4,s2
        0x00001622:    4281        .B      CMP      r1,r0
        0x00001624:    eea34a02    ...J    VFMA.F32 s8,s6,s4
        0x00001628:    eea31a40    ..@.    VFMS.F32 s2,s6,s0
        0x0000162c:    ed844a03    ...J    VSTR     s8,[r4,#0xc]
        0x00001630:    ed871a03    ....    VSTR     s2,[r7,#0xc]
        0x00001634:    d19e        ..      BNE      0x1574 ; Fft_transformBluestein + 1172
        0x00001636:    9f04        ..      LDR      r7,[sp,#0x10]
        0x00001638:    9908        ..      LDR      r1,[sp,#0x20]
        0x0000163a:    e9dde506    ....    LDRD     lr,r5,[sp,#0x18]
        0x0000163e:    4656        VF      MOV      r6,r10
        0x00001640:    2f00        ./      CMP      r7,#0
        0x00001642:    468a        .F      MOV      r10,r1
        0x00001644:    d071        q.      BEQ      0x172a ; Fft_transformBluestein + 1610
        0x00001646:    9a05        ..      LDR      r2,[sp,#0x14]
        0x00001648:    9914        ..      LDR      r1,[sp,#0x50]
        0x0000164a:    2f01        ./      CMP      r7,#1
        0x0000164c:    eb020280    ....    ADD      r2,r2,r0,LSL #2
        0x00001650:    eb010180    ....    ADD      r1,r1,r0,LSL #2
        0x00001654:    ed920a00    ....    VLDR     s0,[r2,#0]
        0x00001658:    9a0d        ..      LDR      r2,[sp,#0x34]
        0x0000165a:    ed911a00    ....    VLDR     s2,[r1,#0]
        0x0000165e:    eb060180    ....    ADD      r1,r6,r0,LSL #2
        0x00001662:    ed913a00    ...:    VLDR     s6,[r1,#0]
        0x00001666:    9909        ..      LDR      r1,[sp,#0x24]
        0x00001668:    eb020280    ....    ADD      r2,r2,r0,LSL #2
        0x0000166c:    ee214a00    !..J    VMUL.F32 s8,s2,s0
        0x00001670:    ed922a00    ...*    VLDR     s4,[r2,#0]
        0x00001674:    eb010180    ....    ADD      r1,r1,r0,LSL #2
        0x00001678:    eb080280    ....    ADD      r2,r8,r0,LSL #2
        0x0000167c:    ee221a01    "...    VMUL.F32 s2,s4,s2
        0x00001680:    eea34a02    ...J    VFMA.F32 s8,s6,s4
        0x00001684:    eea31a40    ..@.    VFMS.F32 s2,s6,s0
        0x00001688:    ed824a00    ...J    VSTR     s8,[r2,#0]
        0x0000168c:    ed811a00    ....    VSTR     s2,[r1,#0]
        0x00001690:    d04b        K.      BEQ      0x172a ; Fft_transformBluestein + 1610
        0x00001692:    9b05        ..      LDR      r3,[sp,#0x14]
        0x00001694:    1c41        A.      ADDS     r1,r0,#1
        0x00001696:    9a14        ..      LDR      r2,[sp,#0x50]
        0x00001698:    2f02        ./      CMP      r7,#2
        0x0000169a:    eb030381    ....    ADD      r3,r3,r1,LSL #2
        0x0000169e:    eb020281    ....    ADD      r2,r2,r1,LSL #2
        0x000016a2:    ed930a00    ....    VLDR     s0,[r3,#0]
        0x000016a6:    9b0d        ..      LDR      r3,[sp,#0x34]
        0x000016a8:    ed921a00    ....    VLDR     s2,[r2,#0]
        0x000016ac:    eb060281    ....    ADD      r2,r6,r1,LSL #2
        0x000016b0:    ed923a00    ...:    VLDR     s6,[r2,#0]
        0x000016b4:    9a09        ..      LDR      r2,[sp,#0x24]
        0x000016b6:    eb030381    ....    ADD      r3,r3,r1,LSL #2
        0x000016ba:    ee214a00    !..J    VMUL.F32 s8,s2,s0
        0x000016be:    ed932a00    ...*    VLDR     s4,[r3,#0]
        0x000016c2:    eb020281    ....    ADD      r2,r2,r1,LSL #2
        0x000016c6:    eb080181    ....    ADD      r1,r8,r1,LSL #2
        0x000016ca:    ee221a01    "...    VMUL.F32 s2,s4,s2
        0x000016ce:    eea34a02    ...J    VFMA.F32 s8,s6,s4
        0x000016d2:    eea31a40    ..@.    VFMS.F32 s2,s6,s0
        0x000016d6:    ed814a00    ...J    VSTR     s8,[r1,#0]
        0x000016da:    ed821a00    ....    VSTR     s2,[r2,#0]
        0x000016de:    d024        $.      BEQ      0x172a ; Fft_transformBluestein + 1610
        0x000016e0:    9a05        ..      LDR      r2,[sp,#0x14]
        0x000016e2:    3002        .0      ADDS     r0,#2
        0x000016e4:    9914        ..      LDR      r1,[sp,#0x50]
        0x000016e6:    eb020280    ....    ADD      r2,r2,r0,LSL #2
        0x000016ea:    eb010180    ....    ADD      r1,r1,r0,LSL #2
        0x000016ee:    ed920a00    ....    VLDR     s0,[r2,#0]
        0x000016f2:    9a0d        ..      LDR      r2,[sp,#0x34]
        0x000016f4:    ed911a00    ....    VLDR     s2,[r1,#0]
        0x000016f8:    eb060180    ....    ADD      r1,r6,r0,LSL #2
        0x000016fc:    ed913a00    ...:    VLDR     s6,[r1,#0]
        0x00001700:    9909        ..      LDR      r1,[sp,#0x24]
        0x00001702:    eb020280    ....    ADD      r2,r2,r0,LSL #2
        0x00001706:    ee214a00    !..J    VMUL.F32 s8,s2,s0
        0x0000170a:    ed922a00    ...*    VLDR     s4,[r2,#0]
        0x0000170e:    eb010180    ....    ADD      r1,r1,r0,LSL #2
        0x00001712:    eb080080    ....    ADD      r0,r8,r0,LSL #2
        0x00001716:    ee221a01    "...    VMUL.F32 s2,s4,s2
        0x0000171a:    eea34a02    ...J    VFMA.F32 s8,s6,s4
        0x0000171e:    eea31a40    ..@.    VFMS.F32 s2,s6,s0
        0x00001722:    ed804a00    ...J    VSTR     s8,[r0,#0]
        0x00001726:    ed811a00    ....    VSTR     s2,[r1,#0]
        0x0000172a:    9814        ..      LDR      r0,[sp,#0x50]
        0x0000172c:    f8dd802c    ..,.    LDR      r8,[sp,#0x2c]
        0x00001730:    2d02        .-      CMP      r5,#2
        0x00001732:    6807        .h      LDR      r7,[r0,#0]
        0x00001734:    6830        0h      LDR      r0,[r6,#0]
        0x00001736:    f8c87000    ...p    STR      r7,[r8,#0]
        0x0000173a:    9019        ..      STR      r0,[sp,#0x64]
        0x0000173c:    f8ca0000    ....    STR      r0,[r10,#0]
        0x00001740:    f0c08081    ....    BCC.W    0x1846 ; Fft_transformBluestein + 1894
        0x00001744:    1e6a        j.      SUBS     r2,r5,#1
        0x00001746:    1ea9        ..      SUBS     r1,r5,#2
        0x00001748:    f0020403    ....    AND      r4,r2,#3
        0x0000174c:    2903        .)      CMP      r1,#3
        0x0000174e:    d203        ..      BCS      0x1758 ; Fft_transformBluestein + 1656
        0x00001750:    2101        .!      MOVS     r1,#1
        0x00001752:    2c00        .,      CMP      r4,#0
        0x00001754:    d144        D.      BNE      0x17e0 ; Fft_transformBluestein + 1792
        0x00001756:    e076        v.      B        0x1846 ; Fft_transformBluestein + 1894
        0x00001758:    f06f0107    o...    MVN      r1,#7
        0x0000175c:    f8ddc050    ..P.    LDR      r12,[sp,#0x50]
        0x00001760:    eba20e04    ....    SUB      lr,r2,r4
        0x00001764:    2200        ."      MOVS     r2,#0
        0x00001766:    9718        ..      STR      r7,[sp,#0x60]
        0x00001768:    9417        ..      STR      r4,[sp,#0x5c]
        0x0000176a:    eb0101c9    ....    ADD      r1,r1,r9,LSL #3
        0x0000176e:    bf00        ..      NOP      
        0x00001770:    eb0c0482    ....    ADD      r4,r12,r2,LSL #2
        0x00001774:    eb080901    ....    ADD      r9,r8,r1
        0x00001778:    eb080582    ....    ADD      r5,r8,r2,LSL #2
        0x0000177c:    eb0a0601    ....    ADD      r6,r10,r1
        0x00001780:    eb0a0782    ....    ADD      r7,r10,r2,LSL #2
        0x00001784:    6860        `h      LDR      r0,[r4,#4]
        0x00001786:    f8c90004    ....    STR      r0,[r9,#4]
        0x0000178a:    6068        h`      STR      r0,[r5,#4]
        0x0000178c:    9815        ..      LDR      r0,[sp,#0x54]
        0x0000178e:    eb000082    ....    ADD      r0,r0,r2,LSL #2
        0x00001792:    3204        .2      ADDS     r2,#4
        0x00001794:    6843        Ch      LDR      r3,[r0,#4]
        0x00001796:    4596        .E      CMP      lr,r2
        0x00001798:    6073        s`      STR      r3,[r6,#4]
        0x0000179a:    607b        {`      STR      r3,[r7,#4]
        0x0000179c:    68a3        .h      LDR      r3,[r4,#8]
        0x0000179e:    f8483001    H..0    STR      r3,[r8,r1]
        0x000017a2:    60ab        .`      STR      r3,[r5,#8]
        0x000017a4:    6883        .h      LDR      r3,[r0,#8]
        0x000017a6:    f84a3001    J..0    STR      r3,[r10,r1]
        0x000017aa:    60bb        .`      STR      r3,[r7,#8]
        0x000017ac:    68e3        .h      LDR      r3,[r4,#0xc]
        0x000017ae:    f1a10110    ....    SUB      r1,r1,#0x10
        0x000017b2:    f8493c04    I..<    STR      r3,[r9,#-4]
        0x000017b6:    60eb        .`      STR      r3,[r5,#0xc]
        0x000017b8:    68c3        .h      LDR      r3,[r0,#0xc]
        0x000017ba:    6900        .i      LDR      r0,[r0,#0x10]
        0x000017bc:    f8463c04    F..<    STR      r3,[r6,#-4]
        0x000017c0:    60fb        .`      STR      r3,[r7,#0xc]
        0x000017c2:    6923        #i      LDR      r3,[r4,#0x10]
        0x000017c4:    f8460c08    F...    STR      r0,[r6,#-8]
        0x000017c8:    6138        8a      STR      r0,[r7,#0x10]
        0x000017ca:    f8493c08    I..<    STR      r3,[r9,#-8]
        0x000017ce:    612b        +a      STR      r3,[r5,#0x10]
        0x000017d0:    d1ce        ..      BNE      0x1770 ; Fft_transformBluestein + 1680
        0x000017d2:    9e15        ..      LDR      r6,[sp,#0x54]
        0x000017d4:    e9dde506    ....    LDRD     lr,r5,[sp,#0x18]
        0x000017d8:    e9dd4717    ...G    LDRD     r4,r7,[sp,#0x5c]
        0x000017dc:    1c51        Q.      ADDS     r1,r2,#1
        0x000017de:    b394        ..      CBZ      r4,0x1846 ; Fft_transformBluestein + 1894
        0x000017e0:    9814        ..      LDR      r0,[sp,#0x50]
        0x000017e2:    ebab0301    ....    SUB      r3,r11,r1
        0x000017e6:    2c01        .,      CMP      r4,#1
        0x000017e8:    f8502021    P.!     LDR      r2,[r0,r1,LSL #2]
        0x000017ec:    f8482023    H.#     STR      r2,[r8,r3,LSL #2]
        0x000017f0:    f8482021    H.!     STR      r2,[r8,r1,LSL #2]
        0x000017f4:    f8562021    V.!     LDR      r2,[r6,r1,LSL #2]
        0x000017f8:    f84a2023    J.#     STR      r2,[r10,r3,LSL #2]
        0x000017fc:    f84a2021    J.!     STR      r2,[r10,r1,LSL #2]
        0x00001800:    d021        !.      BEQ      0x1846 ; Fft_transformBluestein + 1894
        0x00001802:    9a14        ..      LDR      r2,[sp,#0x50]
        0x00001804:    1c48        H.      ADDS     r0,r1,#1
        0x00001806:    2c02        .,      CMP      r4,#2
        0x00001808:    ebab0300    ....    SUB      r3,r11,r0
        0x0000180c:    f8522020    R.      LDR      r2,[r2,r0,LSL #2]
        0x00001810:    f8482023    H.#     STR      r2,[r8,r3,LSL #2]
        0x00001814:    f8482020    H.      STR      r2,[r8,r0,LSL #2]
        0x00001818:    f8562020    V.      LDR      r2,[r6,r0,LSL #2]
        0x0000181c:    f84a2023    J.#     STR      r2,[r10,r3,LSL #2]
        0x00001820:    f84a2020    J.      STR      r2,[r10,r0,LSL #2]
        0x00001824:    d00f        ..      BEQ      0x1846 ; Fft_transformBluestein + 1894
        0x00001826:    1c88        ..      ADDS     r0,r1,#2
        0x00001828:    9914        ..      LDR      r1,[sp,#0x50]
        0x0000182a:    ebab0200    ....    SUB      r2,r11,r0
        0x0000182e:    f8511020    Q. .    LDR      r1,[r1,r0,LSL #2]
        0x00001832:    f8481022    H.".    STR      r1,[r8,r2,LSL #2]
        0x00001836:    f8481020    H. .    STR      r1,[r8,r0,LSL #2]
        0x0000183a:    f8561020    V. .    LDR      r1,[r6,r0,LSL #2]
        0x0000183e:    f84a1022    J.".    STR      r1,[r10,r2,LSL #2]
        0x00001842:    f84a1020    J. .    STR      r1,[r10,r0,LSL #2]
        0x00001846:    980c        ..      LDR      r0,[sp,#0x30]
        0x00001848:    4642        BF      MOV      r2,r8
        0x0000184a:    4653        SF      MOV      r3,r10
        0x0000184c:    e9cd0e00    ....    STRD     r0,lr,[sp,#0]
        0x00001850:    f8cdb008    ....    STR      r11,[sp,#8]
        0x00001854:    e9dd1009    ....    LDRD     r1,r0,[sp,#0x24]
        0x00001858:    f7fff908    ....    BL       Fft_convolveComplex ; 0xa6c
        0x0000185c:    4604        .F      MOV      r4,r0
        0x0000185e:    b3bd        ..      CBZ      r5,0x18d0 ; Fft_transformBluestein + 2032
        0x00001860:    9e15        ..      LDR      r6,[sp,#0x54]
        0x00001862:    f8dde018    ....    LDR      lr,[sp,#0x18]
        0x00001866:    b3b4        ..      CBZ      r4,0x18d6 ; Fft_transformBluestein + 2038
        0x00001868:    9819        ..      LDR      r0,[sp,#0x64]
        0x0000186a:    9914        ..      LDR      r1,[sp,#0x50]
        0x0000186c:    e9dd340c    ...4    LDRD     r3,r4,[sp,#0x30]
        0x00001870:    f1a50c01    ....    SUB      r12,r5,#1
        0x00001874:    46b1        .F      MOV      r9,r6
        0x00001876:    ee017a10    ...z    VMOV     s2,r7
        0x0000187a:    3604        .6      ADDS     r6,#4
        0x0000187c:    4672        rF      MOV      r2,lr
        0x0000187e:    ee000a10    ....    VMOV     s0,r0
        0x00001882:    9805        ..      LDR      r0,[sp,#0x14]
        0x00001884:    1d0d        ..      ADDS     r5,r1,#4
        0x00001886:    e00d        ..      B        0x18a4 ; Fft_transformBluestein + 1988
        0x00001888:    1d37        7.      ADDS     r7,r6,#4
        0x0000188a:    ed960a00    ....    VLDR     s0,[r6,#0]
        0x0000188e:    ed951a00    ....    VLDR     s2,[r5,#0]
        0x00001892:    1d29        ).      ADDS     r1,r5,#4
        0x00001894:    f1ac0c01    ....    SUB      r12,r12,#1
        0x00001898:    3404        .4      ADDS     r4,#4
        0x0000189a:    3004        .0      ADDS     r0,#4
        0x0000189c:    3204        .2      ADDS     r2,#4
        0x0000189e:    3304        .3      ADDS     r3,#4
        0x000018a0:    460d        .F      MOV      r5,r1
        0x000018a2:    463e        >F      MOV      r6,r7
        0x000018a4:    ed932a00    ...*    VLDR     s4,[r3,#0]
        0x000018a8:    ed923a00    ...:    VLDR     s6,[r2,#0]
        0x000018ac:    f1bc0f00    ....    CMP      r12,#0
        0x000018b0:    ee214a02    !..J    VMUL.F32 s8,s2,s4
        0x000018b4:    ee231a01    #...    VMUL.F32 s2,s6,s2
        0x000018b8:    eea04a03    ...J    VFMA.F32 s8,s0,s6
        0x000018bc:    eea01a42    ..B.    VFMS.F32 s2,s0,s4
        0x000018c0:    ed804a00    ...J    VSTR     s8,[r0,#0]
        0x000018c4:    ed841a00    ....    VSTR     s2,[r4,#0]
        0x000018c8:    d1de        ..      BNE      0x1888 ; Fft_transformBluestein + 1960
        0x000018ca:    2401        .$      MOVS     r4,#1
        0x000018cc:    464e        NF      MOV      r6,r9
        0x000018ce:    e002        ..      B        0x18d6 ; Fft_transformBluestein + 2038
        0x000018d0:    9e15        ..      LDR      r6,[sp,#0x54]
        0x000018d2:    f8dde018    ....    LDR      lr,[sp,#0x18]
        0x000018d6:    4670        pF      MOV      r0,lr
        0x000018d8:    f7fefcb7    ....    BL       free ; 0x24a
        0x000018dc:    980c        ..      LDR      r0,[sp,#0x30]
        0x000018de:    f7fefcb4    ....    BL       free ; 0x24a
        0x000018e2:    4650        PF      MOV      r0,r10
        0x000018e4:    f7fefcb1    ....    BL       free ; 0x24a
        0x000018e8:    4640        @F      MOV      r0,r8
        0x000018ea:    f7fefcae    ....    BL       free ; 0x24a
        0x000018ee:    9809        ..      LDR      r0,[sp,#0x24]
        0x000018f0:    f7fefcab    ....    BL       free ; 0x24a
        0x000018f4:    980a        ..      LDR      r0,[sp,#0x28]
        0x000018f6:    f7fefca8    ....    BL       free ; 0x24a
        0x000018fa:    4630        0F      MOV      r0,r6
        0x000018fc:    f7fefca5    ....    BL       free ; 0x24a
        0x00001900:    9814        ..      LDR      r0,[sp,#0x50]
        0x00001902:    f7fefca2    ....    BL       free ; 0x24a
        0x00001906:    4620         F      MOV      r0,r4
        0x00001908:    b01a        ..      ADD      sp,sp,#0x68
        0x0000190a:    ecbd8b02    ....    VPOP     {d8}
        0x0000190e:    b001        ..      ADD      sp,sp,#4
        0x00001910:    e8bd8ff0    ....    POP      {r4-r11,pc}
        0x00001914:    f8dd802c    ..,.    LDR      r8,[sp,#0x2c]
        0x00001918:    f8dda020    .. .    LDR      r10,[sp,#0x20]
        0x0000191c:    e7db        ..      B        0x18d6 ; Fft_transformBluestein + 2038
        0x0000191e:    0000        ..      MOVS     r0,r0
    Fft_transformRadix2
        0x00001920:    e92d4ff0    -..O    PUSH     {r4-r11,lr}
        0x00001924:    b081        ..      SUB      sp,sp,#4
        0x00001926:    ed2d8b02    -...    VPUSH    {d8}
        0x0000192a:    b08c        ..      SUB      sp,sp,#0x30
        0x0000192c:    4693        .F      MOV      r11,r2
        0x0000192e:    2500        .%      MOVS     r5,#0
        0x00001930:    910b        ..      STR      r1,[sp,#0x2c]
        0x00001932:    9007        ..      STR      r0,[sp,#0x1c]
        0x00001934:    f1bb0f02    ....    CMP      r11,#2
        0x00001938:    d310        ..      BCC      0x195c ; Fft_transformRadix2 + 60
        0x0000193a:    2003        .       MOVS     r0,#3
        0x0000193c:    4659        YF      MOV      r1,r11
        0x0000193e:    bf00        ..      NOP      
        0x00001940:    2903        .)      CMP      r1,#3
        0x00001942:    d952        R.      BLS      0x19ea ; Fft_transformRadix2 + 202
        0x00001944:    2908        .)      CMP      r1,#8
        0x00001946:    d35d        ].      BCC      0x1a04 ; Fft_transformRadix2 + 228
        0x00001948:    2910        .)      CMP      r1,#0x10
        0x0000194a:    d362        b.      BCC      0x1a12 ; Fft_transformRadix2 + 242
        0x0000194c:    090a        ..      LSRS     r2,r1,#4
        0x0000194e:    291f        .)      CMP      r1,#0x1f
        0x00001950:    f1000004    ....    ADD      r0,r0,#4
        0x00001954:    f1050504    ....    ADD      r5,r5,#4
        0x00001958:    4611        .F      MOV      r1,r2
        0x0000195a:    d8f1        ..      BHI      0x1940 ; Fft_transformRadix2 + 32
        0x0000195c:    2001        .       MOVS     r0,#1
        0x0000195e:    40a8        .@      LSLS     r0,r0,r5
        0x00001960:    4558        XE      CMP      r0,r11
        0x00001962:    d148        H.      BNE      0x19f6 ; Fft_transformRadix2 + 214
        0x00001964:    f1bb0f00    ....    CMP      r11,#0
        0x00001968:    db1b        ..      BLT      0x19a2 ; Fft_transformRadix2 + 130
        0x0000196a:    ea4f065b    O.[.    LSR      r6,r11,#1
        0x0000196e:    00b4        ..      LSLS     r4,r6,#2
        0x00001970:    4620         F      MOV      r0,r4
        0x00001972:    f7fefc3b    ..;.    BL       malloc ; 0x1ec
        0x00001976:    4607        .F      MOV      r7,r0
        0x00001978:    4620         F      MOV      r0,r4
        0x0000197a:    f7fefc37    ..7.    BL       malloc ; 0x1ec
        0x0000197e:    4604        .F      MOV      r4,r0
        0x00001980:    2f00        ./      CMP      r7,#0
        0x00001982:    bf18        ..      IT       NE
        0x00001984:    2c00        .,      CMPNE    r4,#0
        0x00001986:    d113        ..      BNE      0x19b0 ; Fft_transformRadix2 + 144
        0x00001988:    4638        8F      MOV      r0,r7
        0x0000198a:    f7fefc5e    ..^.    BL       free ; 0x24a
        0x0000198e:    4620         F      MOV      r0,r4
        0x00001990:    f7fefc5b    ..[.    BL       free ; 0x24a
        0x00001994:    2000        .       MOVS     r0,#0
        0x00001996:    b00c        ..      ADD      sp,sp,#0x30
        0x00001998:    ecbd8b02    ....    VPOP     {d8}
        0x0000199c:    b001        ..      ADD      sp,sp,#4
        0x0000199e:    e8bd8ff0    ....    POP      {r4-r11,pc}
        0x000019a2:    2000        .       MOVS     r0,#0
        0x000019a4:    b00c        ..      ADD      sp,sp,#0x30
        0x000019a6:    ecbd8b02    ....    VPOP     {d8}
        0x000019aa:    b001        ..      ADD      sp,sp,#4
        0x000019ac:    e8bd8ff0    ....    POP      {r4-r11,pc}
        0x000019b0:    2e00        ..      CMP      r6,#0
        0x000019b2:    f8cdb000    ....    STR      r11,[sp,#0]
        0x000019b6:    f0008179    ..y.    BEQ.W    0x1cac ; Fft_transformRadix2 + 908
        0x000019ba:    4658        XF      MOV      r0,r11
        0x000019bc:    f004fe30    ..0.    BL       __aeabi_ui2d ; 0x6620
        0x000019c0:    ed9f0bc7    ....    VLDR     d0,[pc,#796] ; [0x1ce0] = 0
        0x000019c4:    4602        .F      MOV      r2,r0
        0x000019c6:    460b        .F      MOV      r3,r1
        0x000019c8:    ec510b10    Q...    VMOV     r0,r1,d0
        0x000019cc:    f004fc5c    ..\.    BL       __aeabi_ddiv ; 0x6288
        0x000019d0:    4681        .F      MOV      r9,r0
        0x000019d2:    1e70        p.      SUBS     r0,r6,#1
        0x000019d4:    f0060803    ....    AND      r8,r6,#3
        0x000019d8:    2803        .(      CMP      r0,#3
        0x000019da:    d220         .      BCS      0x1a1e ; Fft_transformRadix2 + 254
        0x000019dc:    2600        .&      MOVS     r6,#0
        0x000019de:    468a        .F      MOV      r10,r1
        0x000019e0:    f1b80f00    ....    CMP      r8,#0
        0x000019e4:    f04080dc    @...    BNE.W    0x1ba0 ; Fft_transformRadix2 + 640
        0x000019e8:    e160        `.      B        0x1cac ; Fft_transformRadix2 + 908
        0x000019ea:    f0450501    E...    ORR      r5,r5,#1
        0x000019ee:    2001        .       MOVS     r0,#1
        0x000019f0:    40a8        .@      LSLS     r0,r0,r5
        0x000019f2:    4558        XE      CMP      r0,r11
        0x000019f4:    d0b6        ..      BEQ      0x1964 ; Fft_transformRadix2 + 68
        0x000019f6:    2000        .       MOVS     r0,#0
        0x000019f8:    b00c        ..      ADD      sp,sp,#0x30
        0x000019fa:    ecbd8b02    ....    VPOP     {d8}
        0x000019fe:    b001        ..      ADD      sp,sp,#4
        0x00001a00:    e8bd8ff0    ....    POP      {r4-r11,pc}
        0x00001a04:    f0450502    E...    ORR      r5,r5,#2
        0x00001a08:    2001        .       MOVS     r0,#1
        0x00001a0a:    40a8        .@      LSLS     r0,r0,r5
        0x00001a0c:    4558        XE      CMP      r0,r11
        0x00001a0e:    d0a9        ..      BEQ      0x1964 ; Fft_transformRadix2 + 68
        0x00001a10:    e7f1        ..      B        0x19f6 ; Fft_transformRadix2 + 214
        0x00001a12:    4605        .F      MOV      r5,r0
        0x00001a14:    2001        .       MOVS     r0,#1
        0x00001a16:    40a8        .@      LSLS     r0,r0,r5
        0x00001a18:    4558        XE      CMP      r0,r11
        0x00001a1a:    d0a3        ..      BEQ      0x1964 ; Fft_transformRadix2 + 68
        0x00001a1c:    e7eb        ..      B        0x19f6 ; Fft_transformRadix2 + 214
        0x00001a1e:    ed9f0bb2    ....    VLDR     d0,[pc,#712] ; [0x1ce8] = 0x54442eea
        0x00001a22:    eba60008    ....    SUB      r0,r6,r8
        0x00001a26:    e9cd5803    ...X    STRD     r5,r8,[sp,#0xc]
        0x00001a2a:    468a        .F      MOV      r10,r1
        0x00001a2c:    f1040808    ....    ADD      r8,r4,#8
        0x00001a30:    f1070b08    ....    ADD      r11,r7,#8
        0x00001a34:    2600        .&      MOVS     r6,#0
        0x00001a36:    9006        ..      STR      r0,[sp,#0x18]
        0x00001a38:    ec520b10    R...    VMOV     r0,r2,d0
        0x00001a3c:    9208        ..      STR      r2,[sp,#0x20]
        0x00001a3e:    9005        ..      STR      r0,[sp,#0x14]
        0x00001a40:    e9cda909    ....    STRD     r10,r9,[sp,#0x24]
        0x00001a44:    9d05        ..      LDR      r5,[sp,#0x14]
        0x00001a46:    bf00        ..      NOP      
        0x00001a48:    4630        0F      MOV      r0,r6
        0x00001a4a:    f004fde9    ....    BL       __aeabi_ui2d ; 0x6620
        0x00001a4e:    9b08        ..      LDR      r3,[sp,#0x20]
        0x00001a50:    462a        *F      MOV      r2,r5
        0x00001a52:    f004fe3f    ..?.    BL       __aeabi_dmul ; 0x66d4
        0x00001a56:    464a        JF      MOV      r2,r9
        0x00001a58:    4653        SF      MOV      r3,r10
        0x00001a5a:    f004fe3b    ..;.    BL       __aeabi_dmul ; 0x66d4
        0x00001a5e:    ec410b18    A...    VMOV     d8,r0,r1
        0x00001a62:    eeb00a48    ..H.    VMOV.F32 s0,s16
        0x00001a66:    eef00a68    ..h.    VMOV.F32 s1,s17
        0x00001a6a:    f003f9c1    ....    BL       __hardfp_cos ; 0x4df0
        0x00001a6e:    ec510b10    Q...    VMOV     r0,r1,d0
        0x00001a72:    f004fb2f    ../.    BL       __aeabi_d2f ; 0x60d4
        0x00001a76:    eeb00a48    ..H.    VMOV.F32 s0,s16
        0x00001a7a:    f84b0c08    K...    STR      r0,[r11,#-8]
        0x00001a7e:    eef00a68    ..h.    VMOV.F32 s1,s17
        0x00001a82:    f003fa19    ....    BL       __hardfp_sin ; 0x4eb8
        0x00001a86:    ec510b10    Q...    VMOV     r0,r1,d0
        0x00001a8a:    f004fb23    ..#.    BL       __aeabi_d2f ; 0x60d4
        0x00001a8e:    4681        .F      MOV      r9,r0
        0x00001a90:    1c70        p.      ADDS     r0,r6,#1
        0x00001a92:    f004fdc5    ....    BL       __aeabi_ui2d ; 0x6620
        0x00001a96:    f8dda020    .. .    LDR      r10,[sp,#0x20]
        0x00001a9a:    462a        *F      MOV      r2,r5
        0x00001a9c:    4653        SF      MOV      r3,r10
        0x00001a9e:    f004fe19    ....    BL       __aeabi_dmul ; 0x66d4
        0x00001aa2:    f8489c08    H...    STR      r9,[r8,#-8]
        0x00001aa6:    e9dd3209    ...2    LDRD     r3,r2,[sp,#0x24]
        0x00001aaa:    f004fe13    ....    BL       __aeabi_dmul ; 0x66d4
        0x00001aae:    ec410b18    A...    VMOV     d8,r0,r1
        0x00001ab2:    eeb00a48    ..H.    VMOV.F32 s0,s16
        0x00001ab6:    eef00a68    ..h.    VMOV.F32 s1,s17
        0x00001aba:    f003f999    ....    BL       __hardfp_cos ; 0x4df0
        0x00001abe:    ec510b10    Q...    VMOV     r0,r1,d0
        0x00001ac2:    f004fb07    ....    BL       __aeabi_d2f ; 0x60d4
        0x00001ac6:    eeb00a48    ..H.    VMOV.F32 s0,s16
        0x00001aca:    f84b0c04    K...    STR      r0,[r11,#-4]
        0x00001ace:    eef00a68    ..h.    VMOV.F32 s1,s17
        0x00001ad2:    f003f9f1    ....    BL       __hardfp_sin ; 0x4eb8
        0x00001ad6:    ec510b10    Q...    VMOV     r0,r1,d0
        0x00001ada:    f004fafb    ....    BL       __aeabi_d2f ; 0x60d4
        0x00001ade:    4681        .F      MOV      r9,r0
        0x00001ae0:    1cb0        ..      ADDS     r0,r6,#2
        0x00001ae2:    f004fd9d    ....    BL       __aeabi_ui2d ; 0x6620
        0x00001ae6:    462a        *F      MOV      r2,r5
        0x00001ae8:    4653        SF      MOV      r3,r10
        0x00001aea:    f004fdf3    ....    BL       __aeabi_dmul ; 0x66d4
        0x00001aee:    f8489c04    H...    STR      r9,[r8,#-4]
        0x00001af2:    e9dd3209    ...2    LDRD     r3,r2,[sp,#0x24]
        0x00001af6:    f004fded    ....    BL       __aeabi_dmul ; 0x66d4
        0x00001afa:    ec410b18    A...    VMOV     d8,r0,r1
        0x00001afe:    eeb00a48    ..H.    VMOV.F32 s0,s16
        0x00001b02:    eef00a68    ..h.    VMOV.F32 s1,s17
        0x00001b06:    f003f973    ..s.    BL       __hardfp_cos ; 0x4df0
        0x00001b0a:    ec510b10    Q...    VMOV     r0,r1,d0
        0x00001b0e:    f004fae1    ....    BL       __aeabi_d2f ; 0x60d4
        0x00001b12:    eeb00a48    ..H.    VMOV.F32 s0,s16
        0x00001b16:    f8cb0000    ....    STR      r0,[r11,#0]
        0x00001b1a:    eef00a68    ..h.    VMOV.F32 s1,s17
        0x00001b1e:    f003f9cb    ....    BL       __hardfp_sin ; 0x4eb8
        0x00001b22:    ec510b10    Q...    VMOV     r0,r1,d0
        0x00001b26:    f004fad5    ....    BL       __aeabi_d2f ; 0x60d4
        0x00001b2a:    4681        .F      MOV      r9,r0
        0x00001b2c:    1cf0        ..      ADDS     r0,r6,#3
        0x00001b2e:    f004fd77    ..w.    BL       __aeabi_ui2d ; 0x6620
        0x00001b32:    462a        *F      MOV      r2,r5
        0x00001b34:    4653        SF      MOV      r3,r10
        0x00001b36:    f004fdcd    ....    BL       __aeabi_dmul ; 0x66d4
        0x00001b3a:    f8c89000    ....    STR      r9,[r8,#0]
        0x00001b3e:    e9dda909    ....    LDRD     r10,r9,[sp,#0x24]
        0x00001b42:    464a        JF      MOV      r2,r9
        0x00001b44:    4653        SF      MOV      r3,r10
        0x00001b46:    f004fdc5    ....    BL       __aeabi_dmul ; 0x66d4
        0x00001b4a:    ec410b18    A...    VMOV     d8,r0,r1
        0x00001b4e:    eeb00a48    ..H.    VMOV.F32 s0,s16
        0x00001b52:    eef00a68    ..h.    VMOV.F32 s1,s17
        0x00001b56:    f003f94b    ..K.    BL       __hardfp_cos ; 0x4df0
        0x00001b5a:    ec510b10    Q...    VMOV     r0,r1,d0
        0x00001b5e:    f004fab9    ....    BL       __aeabi_d2f ; 0x60d4
        0x00001b62:    eeb00a48    ..H.    VMOV.F32 s0,s16
        0x00001b66:    f8cb0004    ....    STR      r0,[r11,#4]
        0x00001b6a:    eef00a68    ..h.    VMOV.F32 s1,s17
        0x00001b6e:    f003f9a3    ....    BL       __hardfp_sin ; 0x4eb8
        0x00001b72:    ec510b10    Q...    VMOV     r0,r1,d0
        0x00001b76:    f004faad    ....    BL       __aeabi_d2f ; 0x60d4
        0x00001b7a:    f8c80004    ....    STR      r0,[r8,#4]
        0x00001b7e:    9806        ..      LDR      r0,[sp,#0x18]
        0x00001b80:    3604        .6      ADDS     r6,#4
        0x00001b82:    f1080810    ....    ADD      r8,r8,#0x10
        0x00001b86:    f10b0b10    ....    ADD      r11,r11,#0x10
        0x00001b8a:    42b0        .B      CMP      r0,r6
        0x00001b8c:    f47faf5c    ..\.    BNE      0x1a48 ; Fft_transformRadix2 + 296
        0x00001b90:    f8ddb000    ....    LDR      r11,[sp,#0]
        0x00001b94:    e9dd5803    ...X    LDRD     r5,r8,[sp,#0xc]
        0x00001b98:    f1b80f00    ....    CMP      r8,#0
        0x00001b9c:    f0008086    ....    BEQ.W    0x1cac ; Fft_transformRadix2 + 908
        0x00001ba0:    4630        0F      MOV      r0,r6
        0x00001ba2:    f004fd3d    ..=.    BL       __aeabi_ui2d ; 0x6620
        0x00001ba6:    ed9f0b50    ..P.    VLDR     d0,[pc,#320] ; [0x1ce8] = 0x54442eea
        0x00001baa:    ec532b10    S..+    VMOV     r2,r3,d0
        0x00001bae:    9206        ..      STR      r2,[sp,#0x18]
        0x00001bb0:    9308        ..      STR      r3,[sp,#0x20]
        0x00001bb2:    f004fd8f    ....    BL       __aeabi_dmul ; 0x66d4
        0x00001bb6:    464a        JF      MOV      r2,r9
        0x00001bb8:    4653        SF      MOV      r3,r10
        0x00001bba:    f004fd8b    ....    BL       __aeabi_dmul ; 0x66d4
        0x00001bbe:    ec410b18    A...    VMOV     d8,r0,r1
        0x00001bc2:    eeb00a48    ..H.    VMOV.F32 s0,s16
        0x00001bc6:    eef00a68    ..h.    VMOV.F32 s1,s17
        0x00001bca:    f003f911    ....    BL       __hardfp_cos ; 0x4df0
        0x00001bce:    ec510b10    Q...    VMOV     r0,r1,d0
        0x00001bd2:    f004fa7f    ....    BL       __aeabi_d2f ; 0x60d4
        0x00001bd6:    eeb00a48    ..H.    VMOV.F32 s0,s16
        0x00001bda:    f8470026    G.&.    STR      r0,[r7,r6,LSL #2]
        0x00001bde:    eef00a68    ..h.    VMOV.F32 s1,s17
        0x00001be2:    f003f969    ..i.    BL       __hardfp_sin ; 0x4eb8
        0x00001be6:    ec510b10    Q...    VMOV     r0,r1,d0
        0x00001bea:    f004fa73    ..s.    BL       __aeabi_d2f ; 0x60d4
        0x00001bee:    f1b80f01    ....    CMP      r8,#1
        0x00001bf2:    f8440026    D.&.    STR      r0,[r4,r6,LSL #2]
        0x00001bf6:    d059        Y.      BEQ      0x1cac ; Fft_transformRadix2 + 908
        0x00001bf8:    9605        ..      STR      r6,[sp,#0x14]
        0x00001bfa:    f8cd9028    ..(.    STR      r9,[sp,#0x28]
        0x00001bfe:    9805        ..      LDR      r0,[sp,#0x14]
        0x00001c00:    f1000901    ....    ADD      r9,r0,#1
        0x00001c04:    4648        HF      MOV      r0,r9
        0x00001c06:    f004fd0b    ....    BL       __aeabi_ui2d ; 0x6620
        0x00001c0a:    9a06        ..      LDR      r2,[sp,#0x18]
        0x00001c0c:    9b08        ..      LDR      r3,[sp,#0x20]
        0x00001c0e:    f004fd61    ..a.    BL       __aeabi_dmul ; 0x66d4
        0x00001c12:    9a0a        ..      LDR      r2,[sp,#0x28]
        0x00001c14:    4653        SF      MOV      r3,r10
        0x00001c16:    f004fd5d    ..].    BL       __aeabi_dmul ; 0x66d4
        0x00001c1a:    ec410b18    A...    VMOV     d8,r0,r1
        0x00001c1e:    eeb00a48    ..H.    VMOV.F32 s0,s16
        0x00001c22:    eef00a68    ..h.    VMOV.F32 s1,s17
        0x00001c26:    f003f8e3    ....    BL       __hardfp_cos ; 0x4df0
        0x00001c2a:    ec510b10    Q...    VMOV     r0,r1,d0
        0x00001c2e:    f004fa51    ..Q.    BL       __aeabi_d2f ; 0x60d4
        0x00001c32:    eeb00a48    ..H.    VMOV.F32 s0,s16
        0x00001c36:    f8470029    G.).    STR      r0,[r7,r9,LSL #2]
        0x00001c3a:    eef00a68    ..h.    VMOV.F32 s1,s17
        0x00001c3e:    f003f93b    ..;.    BL       __hardfp_sin ; 0x4eb8
        0x00001c42:    ec510b10    Q...    VMOV     r0,r1,d0
        0x00001c46:    f004fa45    ..E.    BL       __aeabi_d2f ; 0x60d4
        0x00001c4a:    f8440029    D.).    STR      r0,[r4,r9,LSL #2]
        0x00001c4e:    4650        PF      MOV      r0,r10
        0x00001c50:    f8dda028    ..(.    LDR      r10,[sp,#0x28]
        0x00001c54:    9e05        ..      LDR      r6,[sp,#0x14]
        0x00001c56:    f1b80f02    ....    CMP      r8,#2
        0x00001c5a:    d027        '.      BEQ      0x1cac ; Fft_transformRadix2 + 908
        0x00001c5c:    f1060902    ....    ADD      r9,r6,#2
        0x00001c60:    4680        .F      MOV      r8,r0
        0x00001c62:    4648        HF      MOV      r0,r9
        0x00001c64:    f004fcdc    ....    BL       __aeabi_ui2d ; 0x6620
        0x00001c68:    9a06        ..      LDR      r2,[sp,#0x18]
        0x00001c6a:    9b08        ..      LDR      r3,[sp,#0x20]
        0x00001c6c:    f004fd32    ..2.    BL       __aeabi_dmul ; 0x66d4
        0x00001c70:    4652        RF      MOV      r2,r10
        0x00001c72:    4643        CF      MOV      r3,r8
        0x00001c74:    f004fd2e    ....    BL       __aeabi_dmul ; 0x66d4
        0x00001c78:    ec410b18    A...    VMOV     d8,r0,r1
        0x00001c7c:    eeb00a48    ..H.    VMOV.F32 s0,s16
        0x00001c80:    eef00a68    ..h.    VMOV.F32 s1,s17
        0x00001c84:    f003f8b4    ....    BL       __hardfp_cos ; 0x4df0
        0x00001c88:    ec510b10    Q...    VMOV     r0,r1,d0
        0x00001c8c:    f004fa22    ..".    BL       __aeabi_d2f ; 0x60d4
        0x00001c90:    eeb00a48    ..H.    VMOV.F32 s0,s16
        0x00001c94:    f8470029    G.).    STR      r0,[r7,r9,LSL #2]
        0x00001c98:    eef00a68    ..h.    VMOV.F32 s1,s17
        0x00001c9c:    f003f90c    ....    BL       __hardfp_sin ; 0x4eb8
        0x00001ca0:    ec510b10    Q...    VMOV     r0,r1,d0
        0x00001ca4:    f004fa16    ....    BL       __aeabi_d2f ; 0x60d4
        0x00001ca8:    f8440029    D.).    STR      r0,[r4,r9,LSL #2]
        0x00001cac:    f1bb0f00    ....    CMP      r11,#0
        0x00001cb0:    d06c        l.      BEQ      0x1d8c ; Fft_transformRadix2 + 1132
        0x00001cb2:    2d01        .-      CMP      r5,#1
        0x00001cb4:    db60        `.      BLT      0x1d78 ; Fft_transformRadix2 + 1112
        0x00001cb6:    f0050803    ....    AND      r8,r5,#3
        0x00001cba:    f1a50e01    ....    SUB      lr,r5,#1
        0x00001cbe:    eba80c05    ....    SUB      r12,r8,r5
        0x00001cc2:    2500        .%      MOVS     r5,#0
        0x00001cc4:    2600        .&      MOVS     r6,#0
        0x00001cc6:    f1be0f03    ....    CMP      lr,#3
        0x00001cca:    d211        ..      BCS      0x1cf0 ; Fft_transformRadix2 + 976
        0x00001ccc:    f8dd902c    ..,.    LDR      r9,[sp,#0x2c]
        0x00001cd0:    9807        ..      LDR      r0,[sp,#0x1c]
        0x00001cd2:    462b        +F      MOV      r3,r5
        0x00001cd4:    f1b80f00    ....    CMP      r8,#0
        0x00001cd8:    d127        '.      BNE      0x1d2a ; Fft_transformRadix2 + 1034
        0x00001cda:    e038        8.      B        0x1d4e ; Fft_transformRadix2 + 1070
        0x00001cdc:    bf00        ..      NOP      
        0x00001cde:    bf00        ..      NOP      
    $d.2
        0x00001ce0:    00000000    ....    DCD    0
        0x00001ce4:    3ff00000    ...?    DCD    1072693248
        0x00001ce8:    54442eea    ..DT    DCD    1413754602
        0x00001cec:    401921fb    .!.@    DCD    1075388923
    $t.3
        0x00001cf0:    f8dd902c    ..,.    LDR      r9,[sp,#0x2c]
        0x00001cf4:    9807        ..      LDR      r0,[sp,#0x1c]
        0x00001cf6:    4661        aF      MOV      r1,r12
        0x00001cf8:    462b        +F      MOV      r3,r5
        0x00001cfa:    bf00        ..      NOP      
        0x00001cfc:    f0030201    ....    AND      r2,r3,#1
        0x00001d00:    3104        .1      ADDS     r1,#4
        0x00001d02:    ea420246    B.F.    ORR      r2,r2,r6,LSL #1
        0x00001d06:    f0030602    ....    AND      r6,r3,#2
        0x00001d0a:    ea460282    F...    ORR      r2,r6,r2,LSL #2
        0x00001d0e:    f3c30680    ....    UBFX     r6,r3,#2,#1
        0x00001d12:    ea420206    B...    ORR      r2,r2,r6
        0x00001d16:    f3c306c0    ....    UBFX     r6,r3,#3,#1
        0x00001d1a:    ea4f1313    O...    LSR      r3,r3,#4
        0x00001d1e:    ea460642    F.B.    ORR      r6,r6,r2,LSL #1
        0x00001d22:    d1eb        ..      BNE      0x1cfc ; Fft_transformRadix2 + 988
        0x00001d24:    f1b80f00    ....    CMP      r8,#0
        0x00001d28:    d011        ..      BEQ      0x1d4e ; Fft_transformRadix2 + 1070
        0x00001d2a:    f0030101    ....    AND      r1,r3,#1
        0x00001d2e:    f1b80f01    ....    CMP      r8,#1
        0x00001d32:    ea410646    A.F.    ORR      r6,r1,r6,LSL #1
        0x00001d36:    d00a        ..      BEQ      0x1d4e ; Fft_transformRadix2 + 1070
        0x00001d38:    f3c30140    ..@.    UBFX     r1,r3,#1,#1
        0x00001d3c:    f1b80f02    ....    CMP      r8,#2
        0x00001d40:    ea410646    A.F.    ORR      r6,r1,r6,LSL #1
        0x00001d44:    bf1c        ..      ITT      NE
        0x00001d46:    f3c30180    ....    UBFXNE   r1,r3,#2,#1
        0x00001d4a:    ea410646    A.F.    ORRNE    r6,r1,r6,LSL #1
        0x00001d4e:    42ae        .B      CMP      r6,r5
        0x00001d50:    d90f        ..      BLS      0x1d72 ; Fft_transformRadix2 + 1106
        0x00001d52:    f8501025    P.%.    LDR      r1,[r0,r5,LSL #2]
        0x00001d56:    f8502026    P.&     LDR      r2,[r0,r6,LSL #2]
        0x00001d5a:    f8402025    @.%     STR      r2,[r0,r5,LSL #2]
        0x00001d5e:    f8401026    @.&.    STR      r1,[r0,r6,LSL #2]
        0x00001d62:    f8591025    Y.%.    LDR      r1,[r9,r5,LSL #2]
        0x00001d66:    f8592026    Y.&     LDR      r2,[r9,r6,LSL #2]
        0x00001d6a:    f8492025    I.%     STR      r2,[r9,r5,LSL #2]
        0x00001d6e:    f8491026    I.&.    STR      r1,[r9,r6,LSL #2]
        0x00001d72:    3501        .5      ADDS     r5,#1
        0x00001d74:    455d        ]E      CMP      r5,r11
        0x00001d76:    d1a5        ..      BNE      0x1cc4 ; Fft_transformRadix2 + 932
        0x00001d78:    f1bb0f02    ....    CMP      r11,#2
        0x00001d7c:    d20d        ..      BCS      0x1d9a ; Fft_transformRadix2 + 1146
        0x00001d7e:    2001        .       MOVS     r0,#1
        0x00001d80:    b00c        ..      ADD      sp,sp,#0x30
        0x00001d82:    ecbd8b02    ....    VPOP     {d8}
        0x00001d86:    b001        ..      ADD      sp,sp,#4
        0x00001d88:    e8bd8ff0    ....    POP      {r4-r11,pc}
        0x00001d8c:    2001        .       MOVS     r0,#1
        0x00001d8e:    b00c        ..      ADD      sp,sp,#0x30
        0x00001d90:    ecbd8b02    ....    VPOP     {d8}
        0x00001d94:    b001        ..      ADD      sp,sp,#4
        0x00001d96:    e8bd8ff0    ....    POP      {r4-r11,pc}
        0x00001d9a:    990b        ..      LDR      r1,[sp,#0x2c]
        0x00001d9c:    f8dda01c    ....    LDR      r10,[sp,#0x1c]
        0x00001da0:    f04f0e02    O...    MOV      lr,#2
        0x00001da4:    eb0a004e    ..N.    ADD      r0,r10,lr,LSL #1
        0x00001da8:    eb01034e    ..N.    ADD      r3,r1,lr,LSL #1
        0x00001dac:    fbbbf2fe    ....    UDIV     r2,r11,lr
        0x00001db0:    ea4f095e    O.^.    LSR      r9,lr,#1
        0x00001db4:    2600        .&      MOVS     r6,#0
        0x00001db6:    2500        .%      MOVS     r5,#0
        0x00001db8:    9009        ..      STR      r0,[sp,#0x24]
        0x00001dba:    f04f30ff    O..0    MOV      r0,#0xffffffff
        0x00001dbe:    eb00005e    ..^.    ADD      r0,r0,lr,LSR #1
        0x00001dc2:    9002        ..      STR      r0,[sp,#8]
        0x00001dc4:    f3ce0041    ..A.    UBFX     r0,lr,#1,#2
        0x00001dc8:    930a        ..      STR      r3,[sp,#0x28]
        0x00001dca:    f8cd900c    ....    STR      r9,[sp,#0xc]
        0x00001dce:    f8cde004    ....    STR      lr,[sp,#4]
        0x00001dd2:    9004        ..      STR      r0,[sp,#0x10]
        0x00001dd4:    eba0005e    ..^.    SUB      r0,r0,lr,LSR #1
        0x00001dd8:    9008        ..      STR      r0,[sp,#0x20]
        0x00001dda:    ea4f008e    O...    LSL      r0,lr,#2
        0x00001dde:    9005        ..      STR      r0,[sp,#0x14]
        0x00001de0:    eb050009    ....    ADD      r0,r5,r9
        0x00001de4:    9507        ..      STR      r5,[sp,#0x1c]
        0x00001de6:    4285        .B      CMP      r5,r0
        0x00001de8:    f08081a4    ....    BCS.W    0x2134 ; Fft_transformRadix2 + 2068
        0x00001dec:    9802        ..      LDR      r0,[sp,#8]
        0x00001dee:    9606        ..      STR      r6,[sp,#0x18]
        0x00001df0:    2803        .(      CMP      r0,#3
        0x00001df2:    d207        ..      BCS      0x1e04 ; Fft_transformRadix2 + 1252
        0x00001df4:    f8ddc01c    ....    LDR      r12,[sp,#0x1c]
        0x00001df8:    2500        .%      MOVS     r5,#0
        0x00001dfa:    9804        ..      LDR      r0,[sp,#0x10]
        0x00001dfc:    2800        .(      CMP      r0,#0
        0x00001dfe:    f04080e0    @...    BNE.W    0x1fc2 ; Fft_transformRadix2 + 1698
        0x00001e02:    e197        ..      B        0x2134 ; Fft_transformRadix2 + 2068
        0x00001e04:    f04f0900    O...    MOV      r9,#0
        0x00001e08:    46b0        .F      MOV      r8,r6
        0x00001e0a:    2500        .%      MOVS     r5,#0
        0x00001e0c:    46d6        .F      MOV      lr,r10
        0x00001e0e:    bf00        ..      NOP      
        0x00001e10:    990b        ..      LDR      r1,[sp,#0x2c]
        0x00001e12:    eb070085    ....    ADD      r0,r7,r5,LSL #2
        0x00001e16:    eb0e0c08    ....    ADD      r12,lr,r8
        0x00001e1a:    f1a90904    ....    SUB      r9,r9,#4
        0x00001e1e:    ed900a00    ....    VLDR     s0,[r0,#0]
        0x00001e22:    18a8        ..      ADDS     r0,r5,r2
        0x00001e24:    eb040585    ....    ADD      r5,r4,r5,LSL #2
        0x00001e28:    ed9c4a00    ...J    VLDR     s8,[r12,#0]
        0x00001e2c:    eb010a08    ....    ADD      r10,r1,r8
        0x00001e30:    9909        ..      LDR      r1,[sp,#0x24]
        0x00001e32:    ed951a00    ....    VLDR     s2,[r5,#0]
        0x00001e36:    eb030508    ....    ADD      r5,r3,r8
        0x00001e3a:    eb040380    ....    ADD      r3,r4,r0,LSL #2
        0x00001e3e:    ed953a00    ...:    VLDR     s6,[r5,#0]
        0x00001e42:    eb010608    ....    ADD      r6,r1,r8
        0x00001e46:    990b        ..      LDR      r1,[sp,#0x2c]
        0x00001e48:    f1080810    ....    ADD      r8,r8,#0x10
        0x00001e4c:    ed962a00    ...*    VLDR     s4,[r6,#0]
        0x00001e50:    ee205a02     ..Z    VMUL.F32 s10,s0,s4
        0x00001e54:    ee230a00    #...    VMUL.F32 s0,s6,s0
        0x00001e58:    eea15a03    ...Z    VFMA.F32 s10,s2,s6
        0x00001e5c:    eea10a42    ..B.    VFMS.F32 s0,s2,s4
        0x00001e60:    ee344a45    4.EJ    VSUB.F32 s8,s8,s10
        0x00001e64:    ed864a00    ...J    VSTR     s8,[r6,#0]
        0x00001e68:    ed9a4a00    ...J    VLDR     s8,[r10,#0]
        0x00001e6c:    ee341a40    4.@.    VSUB.F32 s2,s8,s0
        0x00001e70:    ed851a00    ....    VSTR     s2,[r5,#0]
        0x00001e74:    ed9c1a00    ....    VLDR     s2,[r12,#0]
        0x00001e78:    ee311a05    1...    VADD.F32 s2,s2,s10
        0x00001e7c:    ed8c1a00    ....    VSTR     s2,[r12,#0]
        0x00001e80:    ed9a1a00    ....    VLDR     s2,[r10,#0]
        0x00001e84:    ee310a00    1...    VADD.F32 s0,s2,s0
        0x00001e88:    ed8a0a00    ....    VSTR     s0,[r10,#0]
        0x00001e8c:    ed930a00    ....    VLDR     s0,[r3,#0]
        0x00001e90:    1883        ..      ADDS     r3,r0,r2
        0x00001e92:    eb070080    ....    ADD      r0,r7,r0,LSL #2
        0x00001e96:    ed962a01    ...*    VLDR     s4,[r6,#4]
        0x00001e9a:    ed953a01    ...:    VLDR     s6,[r5,#4]
        0x00001e9e:    ed9c4a01    ...J    VLDR     s8,[r12,#4]
        0x00001ea2:    ed901a00    ....    VLDR     s2,[r0,#0]
        0x00001ea6:    eb040083    ....    ADD      r0,r4,r3,LSL #2
        0x00001eaa:    eb030b02    ....    ADD      r11,r3,r2
        0x00001eae:    eb070383    ....    ADD      r3,r7,r3,LSL #2
        0x00001eb2:    ee215a02    !..Z    VMUL.F32 s10,s2,s4
        0x00001eb6:    ee231a01    #...    VMUL.F32 s2,s6,s2
        0x00001eba:    eea05a03    ...Z    VFMA.F32 s10,s0,s6
        0x00001ebe:    eea01a42    ..B.    VFMS.F32 s2,s0,s4
        0x00001ec2:    ee344a45    4.EJ    VSUB.F32 s8,s8,s10
        0x00001ec6:    ed864a01    ...J    VSTR     s8,[r6,#4]
        0x00001eca:    ed9a4a01    ...J    VLDR     s8,[r10,#4]
        0x00001ece:    ee340a41    4.A.    VSUB.F32 s0,s8,s2
        0x00001ed2:    ed850a01    ....    VSTR     s0,[r5,#4]
        0x00001ed6:    ed9c0a01    ....    VLDR     s0,[r12,#4]
        0x00001eda:    ee300a05    0...    VADD.F32 s0,s0,s10
        0x00001ede:    ed8c0a01    ....    VSTR     s0,[r12,#4]
        0x00001ee2:    ed9a0a01    ....    VLDR     s0,[r10,#4]
        0x00001ee6:    ee300a01    0...    VADD.F32 s0,s0,s2
        0x00001eea:    ed8a0a01    ....    VSTR     s0,[r10,#4]
        0x00001eee:    ed931a00    ....    VLDR     s2,[r3,#0]
        0x00001ef2:    ed962a02    ...*    VLDR     s4,[r6,#8]
        0x00001ef6:    ed900a00    ....    VLDR     s0,[r0,#0]
        0x00001efa:    ed953a02    ...:    VLDR     s6,[r5,#8]
        0x00001efe:    ed9c4a02    ...J    VLDR     s8,[r12,#8]
        0x00001f02:    eb07008b    ....    ADD      r0,r7,r11,LSL #2
        0x00001f06:    9b0a        ..      LDR      r3,[sp,#0x28]
        0x00001f08:    ee215a02    !..Z    VMUL.F32 s10,s2,s4
        0x00001f0c:    ee231a01    #...    VMUL.F32 s2,s6,s2
        0x00001f10:    eea05a03    ...Z    VFMA.F32 s10,s0,s6
        0x00001f14:    eea01a42    ..B.    VFMS.F32 s2,s0,s4
        0x00001f18:    ee344a45    4.EJ    VSUB.F32 s8,s8,s10
        0x00001f1c:    ed864a02    ...J    VSTR     s8,[r6,#8]
        0x00001f20:    ed9a4a02    ...J    VLDR     s8,[r10,#8]
        0x00001f24:    ee340a41    4.A.    VSUB.F32 s0,s8,s2
        0x00001f28:    ed850a02    ....    VSTR     s0,[r5,#8]
        0x00001f2c:    ed9c0a02    ....    VLDR     s0,[r12,#8]
        0x00001f30:    ee300a05    0...    VADD.F32 s0,s0,s10
        0x00001f34:    ed8c0a02    ....    VSTR     s0,[r12,#8]
        0x00001f38:    ed9a0a02    ....    VLDR     s0,[r10,#8]
        0x00001f3c:    ee300a01    0...    VADD.F32 s0,s0,s2
        0x00001f40:    ed8a0a02    ....    VSTR     s0,[r10,#8]
        0x00001f44:    ed900a00    ....    VLDR     s0,[r0,#0]
        0x00001f48:    eb04008b    ....    ADD      r0,r4,r11,LSL #2
        0x00001f4c:    ed961a03    ....    VLDR     s2,[r6,#0xc]
        0x00001f50:    ed952a03    ...*    VLDR     s4,[r5,#0xc]
        0x00001f54:    ed9c4a03    ...J    VLDR     s8,[r12,#0xc]
        0x00001f58:    ed903a00    ...:    VLDR     s6,[r0,#0]
        0x00001f5c:    9808        ..      LDR      r0,[sp,#0x20]
        0x00001f5e:    ee205a01     ..Z    VMUL.F32 s10,s0,s2
        0x00001f62:    ee220a00    "...    VMUL.F32 s0,s4,s0
        0x00001f66:    eea35a02    ...Z    VFMA.F32 s10,s6,s4
        0x00001f6a:    eea30a41    ..A.    VFMS.F32 s0,s6,s2
        0x00001f6e:    4548        HE      CMP      r0,r9
        0x00001f70:    ee344a45    4.EJ    VSUB.F32 s8,s8,s10
        0x00001f74:    ed864a03    ...J    VSTR     s8,[r6,#0xc]
        0x00001f78:    ed9a4a03    ...J    VLDR     s8,[r10,#0xc]
        0x00001f7c:    ee341a40    4.@.    VSUB.F32 s2,s8,s0
        0x00001f80:    ed851a03    ....    VSTR     s2,[r5,#0xc]
        0x00001f84:    eb0b0502    ....    ADD      r5,r11,r2
        0x00001f88:    ed9c1a03    ....    VLDR     s2,[r12,#0xc]
        0x00001f8c:    ee311a05    1...    VADD.F32 s2,s2,s10
        0x00001f90:    ed8c1a03    ....    VSTR     s2,[r12,#0xc]
        0x00001f94:    ed9a1a03    ....    VLDR     s2,[r10,#0xc]
        0x00001f98:    ee310a00    1...    VADD.F32 s0,s2,s0
        0x00001f9c:    ed8a0a03    ....    VSTR     s0,[r10,#0xc]
        0x00001fa0:    f47faf36    ..6.    BNE      0x1e10 ; Fft_transformRadix2 + 1264
        0x00001fa4:    9807        ..      LDR      r0,[sp,#0x1c]
        0x00001fa6:    46f2        .F      MOV      r10,lr
        0x00001fa8:    f8ddb000    ....    LDR      r11,[sp,#0]
        0x00001fac:    f8dde004    ....    LDR      lr,[sp,#4]
        0x00001fb0:    9e06        ..      LDR      r6,[sp,#0x18]
        0x00001fb2:    eba00c09    ....    SUB      r12,r0,r9
        0x00001fb6:    f8dd900c    ....    LDR      r9,[sp,#0xc]
        0x00001fba:    9804        ..      LDR      r0,[sp,#0x10]
        0x00001fbc:    2800        .(      CMP      r0,#0
        0x00001fbe:    f00080b9    ....    BEQ.W    0x2134 ; Fft_transformRadix2 + 2068
        0x00001fc2:    eb0c0009    ....    ADD      r0,r12,r9
        0x00001fc6:    eb070685    ....    ADD      r6,r7,r5,LSL #2
        0x00001fca:    eb0a0880    ....    ADD      r8,r10,r0,LSL #2
        0x00001fce:    eb010980    ....    ADD      r9,r1,r0,LSL #2
        0x00001fd2:    ed960a00    ....    VLDR     s0,[r6,#0]
        0x00001fd6:    eb040085    ....    ADD      r0,r4,r5,LSL #2
        0x00001fda:    eb0a068c    ....    ADD      r6,r10,r12,LSL #2
        0x00001fde:    ed981a00    ....    VLDR     s2,[r8,#0]
        0x00001fe2:    ed902a00    ...*    VLDR     s4,[r0,#0]
        0x00001fe6:    ed993a00    ...:    VLDR     s6,[r9,#0]
        0x00001fea:    ed964a00    ...J    VLDR     s8,[r6,#0]
        0x00001fee:    eb01008c    ....    ADD      r0,r1,r12,LSL #2
        0x00001ff2:    ee205a01     ..Z    VMUL.F32 s10,s0,s2
        0x00001ff6:    ee230a00    #...    VMUL.F32 s0,s6,s0
        0x00001ffa:    eea25a03    ...Z    VFMA.F32 s10,s4,s6
        0x00001ffe:    eea20a41    ..A.    VFMS.F32 s0,s4,s2
        0x00002002:    ee344a45    4.EJ    VSUB.F32 s8,s8,s10
        0x00002006:    ed884a00    ...J    VSTR     s8,[r8,#0]
        0x0000200a:    ed904a00    ...J    VLDR     s8,[r0,#0]
        0x0000200e:    ee341a40    4.@.    VSUB.F32 s2,s8,s0
        0x00002012:    ed891a00    ....    VSTR     s2,[r9,#0]
        0x00002016:    f8dd900c    ....    LDR      r9,[sp,#0xc]
        0x0000201a:    ed961a00    ....    VLDR     s2,[r6,#0]
        0x0000201e:    ee311a05    1...    VADD.F32 s2,s2,s10
        0x00002022:    ed861a00    ....    VSTR     s2,[r6,#0]
        0x00002026:    9e06        ..      LDR      r6,[sp,#0x18]
        0x00002028:    ed901a00    ....    VLDR     s2,[r0,#0]
        0x0000202c:    ee310a00    1...    VADD.F32 s0,s2,s0
        0x00002030:    ed800a00    ....    VSTR     s0,[r0,#0]
        0x00002034:    9804        ..      LDR      r0,[sp,#0x10]
        0x00002036:    2801        .(      CMP      r0,#1
        0x00002038:    d07c        |.      BEQ      0x2134 ; Fft_transformRadix2 + 2068
        0x0000203a:    f10c0001    ....    ADD      r0,r12,#1
        0x0000203e:    eb050802    ....    ADD      r8,r5,r2
        0x00002042:    eb000309    ....    ADD      r3,r0,r9
        0x00002046:    eb070588    ....    ADD      r5,r7,r8,LSL #2
        0x0000204a:    eb0a0683    ....    ADD      r6,r10,r3,LSL #2
        0x0000204e:    eb010983    ....    ADD      r9,r1,r3,LSL #2
        0x00002052:    ed950a00    ....    VLDR     s0,[r5,#0]
        0x00002056:    eb040388    ....    ADD      r3,r4,r8,LSL #2
        0x0000205a:    eb0a0580    ....    ADD      r5,r10,r0,LSL #2
        0x0000205e:    eb010080    ....    ADD      r0,r1,r0,LSL #2
        0x00002062:    ed961a00    ....    VLDR     s2,[r6,#0]
        0x00002066:    ed932a00    ...*    VLDR     s4,[r3,#0]
        0x0000206a:    ed993a00    ...:    VLDR     s6,[r9,#0]
        0x0000206e:    ed954a00    ...J    VLDR     s8,[r5,#0]
        0x00002072:    9b0a        ..      LDR      r3,[sp,#0x28]
        0x00002074:    ee205a01     ..Z    VMUL.F32 s10,s0,s2
        0x00002078:    ee230a00    #...    VMUL.F32 s0,s6,s0
        0x0000207c:    eea25a03    ...Z    VFMA.F32 s10,s4,s6
        0x00002080:    eea20a41    ..A.    VFMS.F32 s0,s4,s2
        0x00002084:    ee344a45    4.EJ    VSUB.F32 s8,s8,s10
        0x00002088:    ed864a00    ...J    VSTR     s8,[r6,#0]
        0x0000208c:    9e06        ..      LDR      r6,[sp,#0x18]
        0x0000208e:    ed904a00    ...J    VLDR     s8,[r0,#0]
        0x00002092:    ee341a40    4.@.    VSUB.F32 s2,s8,s0
        0x00002096:    ed891a00    ....    VSTR     s2,[r9,#0]
        0x0000209a:    f8dd900c    ....    LDR      r9,[sp,#0xc]
        0x0000209e:    ed951a00    ....    VLDR     s2,[r5,#0]
        0x000020a2:    ee311a05    1...    VADD.F32 s2,s2,s10
        0x000020a6:    ed851a00    ....    VSTR     s2,[r5,#0]
        0x000020aa:    ed901a00    ....    VLDR     s2,[r0,#0]
        0x000020ae:    ee310a00    1...    VADD.F32 s0,s2,s0
        0x000020b2:    ed800a00    ....    VSTR     s0,[r0,#0]
        0x000020b6:    9804        ..      LDR      r0,[sp,#0x10]
        0x000020b8:    2802        .(      CMP      r0,#2
        0x000020ba:    d03b        ;.      BEQ      0x2134 ; Fft_transformRadix2 + 2068
        0x000020bc:    f10c0302    ....    ADD      r3,r12,#2
        0x000020c0:    eb080002    ....    ADD      r0,r8,r2
        0x000020c4:    eb030609    ....    ADD      r6,r3,r9
        0x000020c8:    eb070580    ....    ADD      r5,r7,r0,LSL #2
        0x000020cc:    eb040080    ....    ADD      r0,r4,r0,LSL #2
        0x000020d0:    eb0a0c86    ....    ADD      r12,r10,r6,LSL #2
        0x000020d4:    ed950a00    ....    VLDR     s0,[r5,#0]
        0x000020d8:    eb010686    ....    ADD      r6,r1,r6,LSL #2
        0x000020dc:    eb0a0583    ....    ADD      r5,r10,r3,LSL #2
        0x000020e0:    ed902a00    ...*    VLDR     s4,[r0,#0]
        0x000020e4:    eb010083    ....    ADD      r0,r1,r3,LSL #2
        0x000020e8:    9b0a        ..      LDR      r3,[sp,#0x28]
        0x000020ea:    ed9c1a00    ....    VLDR     s2,[r12,#0]
        0x000020ee:    ed963a00    ...:    VLDR     s6,[r6,#0]
        0x000020f2:    ed954a00    ...J    VLDR     s8,[r5,#0]
        0x000020f6:    ee205a01     ..Z    VMUL.F32 s10,s0,s2
        0x000020fa:    ee230a00    #...    VMUL.F32 s0,s6,s0
        0x000020fe:    eea25a03    ...Z    VFMA.F32 s10,s4,s6
        0x00002102:    eea20a41    ..A.    VFMS.F32 s0,s4,s2
        0x00002106:    ee344a45    4.EJ    VSUB.F32 s8,s8,s10
        0x0000210a:    ed8c4a00    ...J    VSTR     s8,[r12,#0]
        0x0000210e:    ed904a00    ...J    VLDR     s8,[r0,#0]
        0x00002112:    ee341a40    4.@.    VSUB.F32 s2,s8,s0
        0x00002116:    ed861a00    ....    VSTR     s2,[r6,#0]
        0x0000211a:    9e06        ..      LDR      r6,[sp,#0x18]
        0x0000211c:    ed951a00    ....    VLDR     s2,[r5,#0]
        0x00002120:    ee311a05    1...    VADD.F32 s2,s2,s10
        0x00002124:    ed851a00    ....    VSTR     s2,[r5,#0]
        0x00002128:    ed901a00    ....    VLDR     s2,[r0,#0]
        0x0000212c:    ee310a00    1...    VADD.F32 s0,s2,s0
        0x00002130:    ed800a00    ....    VSTR     s0,[r0,#0]
        0x00002134:    9d07        ..      LDR      r5,[sp,#0x1c]
        0x00002136:    9805        ..      LDR      r0,[sp,#0x14]
        0x00002138:    4475        uD      ADD      r5,r5,lr
        0x0000213a:    4406        .D      ADD      r6,r6,r0
        0x0000213c:    455d        ]E      CMP      r5,r11
        0x0000213e:    f4ffae4f    ..O.    BCC      0x1de0 ; Fft_transformRadix2 + 1216
        0x00002142:    2001        .       MOVS     r0,#1
        0x00002144:    45de        .E      CMP      lr,r11
        0x00002146:    f43fac57    ?.W.    BEQ      0x19f8 ; Fft_transformRadix2 + 216
        0x0000214a:    ea4f0e4e    O.N.    LSL      lr,lr,#1
        0x0000214e:    45de        .E      CMP      lr,r11
        0x00002150:    f67fae28    ..(.    BLS      0x1da4 ; Fft_transformRadix2 + 1156
        0x00002154:    e450        P.      B        0x19f8 ; Fft_transformRadix2 + 216
        0x00002156:    0000        ..      MOVS     r0,r0
    Fft_transformRadix2_static
        0x00002158:    e92d4ff0    -..O    PUSH     {r4-r11,lr}
        0x0000215c:    b08c        ..      SUB      sp,sp,#0x30
        0x0000215e:    4604        .F      MOV      r4,r0
        0x00002160:    468b        .F      MOV      r11,r1
        0x00002162:    2000        .       MOVS     r0,#0
        0x00002164:    2a02        .*      CMP      r2,#2
        0x00002166:    d314        ..      BCC      0x2192 ; Fft_transformRadix2_static + 58
        0x00002168:    2103        .!      MOVS     r1,#3
        0x0000216a:    4617        .F      MOV      r7,r2
        0x0000216c:    2f03        ./      CMP      r7,#3
        0x0000216e:    d90e        ..      BLS      0x218e ; Fft_transformRadix2_static + 54
        0x00002170:    2f08        ./      CMP      r7,#8
        0x00002172:    f0c0824f    ..O.    BCC.W    0x2614 ; Fft_transformRadix2_static + 1212
        0x00002176:    2f10        ./      CMP      r7,#0x10
        0x00002178:    f0c08257    ..W.    BCC.W    0x262a ; Fft_transformRadix2_static + 1234
        0x0000217c:    093e        >.      LSRS     r6,r7,#4
        0x0000217e:    2f1f        ./      CMP      r7,#0x1f
        0x00002180:    f1010104    ....    ADD      r1,r1,#4
        0x00002184:    f1000004    ....    ADD      r0,r0,#4
        0x00002188:    4637        7F      MOV      r7,r6
        0x0000218a:    d8ef        ..      BHI      0x216c ; Fft_transformRadix2_static + 20
        0x0000218c:    e001        ..      B        0x2192 ; Fft_transformRadix2_static + 58
        0x0000218e:    f0400001    @...    ORR      r0,r0,#1
        0x00002192:    f04f0c00    O...    MOV      r12,#0
        0x00002196:    2a00        .*      CMP      r2,#0
        0x00002198:    f2c08243    ..C.    BLT.W    0x2622 ; Fft_transformRadix2_static + 1226
        0x0000219c:    2101        .!      MOVS     r1,#1
        0x0000219e:    4081        .@      LSLS     r1,r1,r0
        0x000021a0:    4291        .B      CMP      r1,r2
        0x000021a2:    f040823e    @.>.    BNE.W    0x2622 ; Fft_transformRadix2_static + 1226
        0x000021a6:    2a00        .*      CMP      r2,#0
        0x000021a8:    d057        W.      BEQ      0x225a ; Fft_transformRadix2_static + 258
        0x000021aa:    2801        .(      CMP      r0,#1
        0x000021ac:    9409        ..      STR      r4,[sp,#0x24]
        0x000021ae:    db4c        L.      BLT      0x224a ; Fft_transformRadix2_static + 242
        0x000021b0:    f0000603    ....    AND      r6,r0,#3
        0x000021b4:    f1a00e01    ....    SUB      lr,r0,#1
        0x000021b8:    2500        .%      MOVS     r5,#0
        0x000021ba:    eba60c00    ....    SUB      r12,r6,r0
        0x000021be:    bf00        ..      NOP      
        0x000021c0:    2000        .       MOVS     r0,#0
        0x000021c2:    f1be0f03    ....    CMP      lr,#3
        0x000021c6:    d203        ..      BCS      0x21d0 ; Fft_transformRadix2_static + 120
        0x000021c8:    4629        )F      MOV      r1,r5
        0x000021ca:    b9c6        ..      CBNZ     r6,0x21fe ; Fft_transformRadix2_static + 166
        0x000021cc:    e027        '.      B        0x221e ; Fft_transformRadix2_static + 198
        0x000021ce:    bf00        ..      NOP      
        0x000021d0:    4667        gF      MOV      r7,r12
        0x000021d2:    4629        )F      MOV      r1,r5
        0x000021d4:    f0010401    ....    AND      r4,r1,#1
        0x000021d8:    3704        .7      ADDS     r7,#4
        0x000021da:    ea440040    D.@.    ORR      r0,r4,r0,LSL #1
        0x000021de:    f0010402    ....    AND      r4,r1,#2
        0x000021e2:    ea440080    D...    ORR      r0,r4,r0,LSL #2
        0x000021e6:    f3c10480    ....    UBFX     r4,r1,#2,#1
        0x000021ea:    ea400004    @...    ORR      r0,r0,r4
        0x000021ee:    f3c104c0    ....    UBFX     r4,r1,#3,#1
        0x000021f2:    ea4f1111    O...    LSR      r1,r1,#4
        0x000021f6:    ea440040    D.@.    ORR      r0,r4,r0,LSL #1
        0x000021fa:    d1eb        ..      BNE      0x21d4 ; Fft_transformRadix2_static + 124
        0x000021fc:    b17e        ~.      CBZ      r6,0x221e ; Fft_transformRadix2_static + 198
        0x000021fe:    f0010701    ....    AND      r7,r1,#1
        0x00002202:    2e01        ..      CMP      r6,#1
        0x00002204:    ea470040    G.@.    ORR      r0,r7,r0,LSL #1
        0x00002208:    d009        ..      BEQ      0x221e ; Fft_transformRadix2_static + 198
        0x0000220a:    f3c10740    ..@.    UBFX     r7,r1,#1,#1
        0x0000220e:    2e02        ..      CMP      r6,#2
        0x00002210:    ea470040    G.@.    ORR      r0,r7,r0,LSL #1
        0x00002214:    bf1c        ..      ITT      NE
        0x00002216:    f3c10180    ....    UBFXNE   r1,r1,#2,#1
        0x0000221a:    ea410040    A.@.    ORRNE    r0,r1,r0,LSL #1
        0x0000221e:    9c09        ..      LDR      r4,[sp,#0x24]
        0x00002220:    42a8        .B      CMP      r0,r5
        0x00002222:    d90f        ..      BLS      0x2244 ; Fft_transformRadix2_static + 236
        0x00002224:    f8541025    T.%.    LDR      r1,[r4,r5,LSL #2]
        0x00002228:    f8547020    T. p    LDR      r7,[r4,r0,LSL #2]
        0x0000222c:    f8447025    D.%p    STR      r7,[r4,r5,LSL #2]
        0x00002230:    f8441020    D. .    STR      r1,[r4,r0,LSL #2]
        0x00002234:    f85b1025    [.%.    LDR      r1,[r11,r5,LSL #2]
        0x00002238:    f85b7020    [. p    LDR      r7,[r11,r0,LSL #2]
        0x0000223c:    f84b7025    K.%p    STR      r7,[r11,r5,LSL #2]
        0x00002240:    f84b1020    K. .    STR      r1,[r11,r0,LSL #2]
        0x00002244:    3501        .5      ADDS     r5,#1
        0x00002246:    4295        .B      CMP      r5,r2
        0x00002248:    d1ba        ..      BNE      0x21c0 ; Fft_transformRadix2_static + 104
        0x0000224a:    2a02        .*      CMP      r2,#2
        0x0000224c:    d20b        ..      BCS      0x2266 ; Fft_transformRadix2_static + 270
        0x0000224e:    f04f0c01    O...    MOV      r12,#1
        0x00002252:    4660        `F      MOV      r0,r12
        0x00002254:    b00c        ..      ADD      sp,sp,#0x30
        0x00002256:    e8bd8ff0    ....    POP      {r4-r11,pc}
        0x0000225a:    f04f0c01    O...    MOV      r12,#1
        0x0000225e:    4660        `F      MOV      r0,r12
        0x00002260:    b00c        ..      ADD      sp,sp,#0x30
        0x00002262:    e8bd8ff0    ....    POP      {r4-r11,pc}
        0x00002266:    f8dde054    ..T.    LDR      lr,[sp,#0x54]
        0x0000226a:    2602        .&      MOVS     r6,#2
        0x0000226c:    9200        ..      STR      r2,[sp,#0]
        0x0000226e:    bf00        ..      NOP      
        0x00002270:    f04f30ff    O..0    MOV      r0,#0xffffffff
        0x00002274:    eb0b0546    ..F.    ADD      r5,r11,r6,LSL #1
        0x00002278:    eb040a46    ..F.    ADD      r10,r4,r6,LSL #1
        0x0000227c:    fbb2f7f6    ....    UDIV     r7,r2,r6
        0x00002280:    2100        .!      MOVS     r1,#0
        0x00002282:    eb000056    ..V.    ADD      r0,r0,r6,LSR #1
        0x00002286:    9003        ..      STR      r0,[sp,#0xc]
        0x00002288:    f3c60041    ..A.    UBFX     r0,r6,#1,#2
        0x0000228c:    9602        ..      STR      r6,[sp,#8]
        0x0000228e:    9004        ..      STR      r0,[sp,#0x10]
        0x00002290:    eba00056    ..V.    SUB      r0,r0,r6,LSR #1
        0x00002294:    9001        ..      STR      r0,[sp,#4]
        0x00002296:    00b0        ..      LSLS     r0,r6,#2
        0x00002298:    9005        ..      STR      r0,[sp,#0x14]
        0x0000229a:    0870        p.      LSRS     r0,r6,#1
        0x0000229c:    9006        ..      STR      r0,[sp,#0x18]
        0x0000229e:    2000        .       MOVS     r0,#0
        0x000022a0:    9007        ..      STR      r0,[sp,#0x1c]
        0x000022a2:    e9cda50a    ....    STRD     r10,r5,[sp,#0x28]
        0x000022a6:    bf00        ..      NOP      
        0x000022a8:    9806        ..      LDR      r0,[sp,#0x18]
        0x000022aa:    9108        ..      STR      r1,[sp,#0x20]
        0x000022ac:    4408        .D      ADD      r0,r0,r1
        0x000022ae:    4281        .B      CMP      r1,r0
        0x000022b0:    f080819e    ....    BCS.W    0x25f0 ; Fft_transformRadix2_static + 1176
        0x000022b4:    9803        ..      LDR      r0,[sp,#0xc]
        0x000022b6:    2803        .(      CMP      r0,#3
        0x000022b8:    d208        ..      BCS      0x22cc ; Fft_transformRadix2_static + 372
        0x000022ba:    f8ddc020    .. .    LDR      r12,[sp,#0x20]
        0x000022be:    2100        .!      MOVS     r1,#0
        0x000022c0:    9804        ..      LDR      r0,[sp,#0x10]
        0x000022c2:    2800        .(      CMP      r0,#0
        0x000022c4:    f04080dc    @...    BNE.W    0x2480 ; Fft_transformRadix2_static + 808
        0x000022c8:    e192        ..      B        0x25f0 ; Fft_transformRadix2_static + 1176
        0x000022ca:    bf00        ..      NOP      
        0x000022cc:    f8ddc01c    ....    LDR      r12,[sp,#0x1c]
        0x000022d0:    f8dd9004    ....    LDR      r9,[sp,#4]
        0x000022d4:    2200        ."      MOVS     r2,#0
        0x000022d6:    2100        .!      MOVS     r1,#0
        0x000022d8:    eb0e0081    ....    ADD      r0,lr,r1,LSL #2
        0x000022dc:    eb04080c    ....    ADD      r8,r4,r12
        0x000022e0:    eb0b0a0c    ....    ADD      r10,r11,r12
        0x000022e4:    465c        \F      MOV      r4,r11
        0x000022e6:    eb050b0c    ....    ADD      r11,r5,r12
        0x000022ea:    3a04        .:      SUBS     r2,#4
        0x000022ec:    ed900a00    ....    VLDR     s0,[r0,#0]
        0x000022f0:    19c8        ..      ADDS     r0,r1,r7
        0x000022f2:    eb030181    ....    ADD      r1,r3,r1,LSL #2
        0x000022f6:    ed9b3a00    ...:    VLDR     s6,[r11,#0]
        0x000022fa:    ed984a00    ...J    VLDR     s8,[r8,#0]
        0x000022fe:    4591        .E      CMP      r9,r2
        0x00002300:    ed911a00    ....    VLDR     s2,[r1,#0]
        0x00002304:    990a        ..      LDR      r1,[sp,#0x28]
        0x00002306:    eb030580    ....    ADD      r5,r3,r0,LSL #2
        0x0000230a:    4461        aD      ADD      r1,r1,r12
        0x0000230c:    f10c0c10    ....    ADD      r12,r12,#0x10
        0x00002310:    ed912a00    ...*    VLDR     s4,[r1,#0]
        0x00002314:    ee205a02     ..Z    VMUL.F32 s10,s0,s4
        0x00002318:    ee230a00    #...    VMUL.F32 s0,s6,s0
        0x0000231c:    eea15a03    ...Z    VFMA.F32 s10,s2,s6
        0x00002320:    eea10a42    ..B.    VFMS.F32 s0,s2,s4
        0x00002324:    ee344a45    4.EJ    VSUB.F32 s8,s8,s10
        0x00002328:    ed814a00    ...J    VSTR     s8,[r1,#0]
        0x0000232c:    ed9a4a00    ...J    VLDR     s8,[r10,#0]
        0x00002330:    ee341a40    4.@.    VSUB.F32 s2,s8,s0
        0x00002334:    ed8b1a00    ....    VSTR     s2,[r11,#0]
        0x00002338:    ed981a00    ....    VLDR     s2,[r8,#0]
        0x0000233c:    ee311a05    1...    VADD.F32 s2,s2,s10
        0x00002340:    ed881a00    ....    VSTR     s2,[r8,#0]
        0x00002344:    ed9a1a00    ....    VLDR     s2,[r10,#0]
        0x00002348:    ee310a00    1...    VADD.F32 s0,s2,s0
        0x0000234c:    ed8a0a00    ....    VSTR     s0,[r10,#0]
        0x00002350:    ed950a00    ....    VLDR     s0,[r5,#0]
        0x00002354:    eb000507    ....    ADD      r5,r0,r7
        0x00002358:    eb0e0080    ....    ADD      r0,lr,r0,LSL #2
        0x0000235c:    ed912a01    ...*    VLDR     s4,[r1,#4]
        0x00002360:    ed9b3a01    ...:    VLDR     s6,[r11,#4]
        0x00002364:    ed984a01    ...J    VLDR     s8,[r8,#4]
        0x00002368:    ed901a00    ....    VLDR     s2,[r0,#0]
        0x0000236c:    eb030085    ....    ADD      r0,r3,r5,LSL #2
        0x00002370:    ee215a02    !..Z    VMUL.F32 s10,s2,s4
        0x00002374:    ee231a01    #...    VMUL.F32 s2,s6,s2
        0x00002378:    eea05a03    ...Z    VFMA.F32 s10,s0,s6
        0x0000237c:    eea01a42    ..B.    VFMS.F32 s2,s0,s4
        0x00002380:    ee344a45    4.EJ    VSUB.F32 s8,s8,s10
        0x00002384:    ed814a01    ...J    VSTR     s8,[r1,#4]
        0x00002388:    ed9a4a01    ...J    VLDR     s8,[r10,#4]
        0x0000238c:    ee340a41    4.A.    VSUB.F32 s0,s8,s2
        0x00002390:    ed8b0a01    ....    VSTR     s0,[r11,#4]
        0x00002394:    ed980a01    ....    VLDR     s0,[r8,#4]
        0x00002398:    ee300a05    0...    VADD.F32 s0,s0,s10
        0x0000239c:    ed880a01    ....    VSTR     s0,[r8,#4]
        0x000023a0:    ed9a0a01    ....    VLDR     s0,[r10,#4]
        0x000023a4:    ee300a01    0...    VADD.F32 s0,s0,s2
        0x000023a8:    ed8a0a01    ....    VSTR     s0,[r10,#4]
        0x000023ac:    ed900a00    ....    VLDR     s0,[r0,#0]
        0x000023b0:    eb050007    ....    ADD      r0,r5,r7
        0x000023b4:    eb0e0585    ....    ADD      r5,lr,r5,LSL #2
        0x000023b8:    ed912a02    ...*    VLDR     s4,[r1,#8]
        0x000023bc:    ed9b3a02    ...:    VLDR     s6,[r11,#8]
        0x000023c0:    ed984a02    ...J    VLDR     s8,[r8,#8]
        0x000023c4:    ed951a00    ....    VLDR     s2,[r5,#0]
        0x000023c8:    eb0e0680    ....    ADD      r6,lr,r0,LSL #2
        0x000023cc:    eb030580    ....    ADD      r5,r3,r0,LSL #2
        0x000023d0:    ee215a02    !..Z    VMUL.F32 s10,s2,s4
        0x000023d4:    ee231a01    #...    VMUL.F32 s2,s6,s2
        0x000023d8:    eea05a03    ...Z    VFMA.F32 s10,s0,s6
        0x000023dc:    eea01a42    ..B.    VFMS.F32 s2,s0,s4
        0x000023e0:    ee344a45    4.EJ    VSUB.F32 s8,s8,s10
        0x000023e4:    ed814a02    ...J    VSTR     s8,[r1,#8]
        0x000023e8:    ed9a4a02    ...J    VLDR     s8,[r10,#8]
        0x000023ec:    ee340a41    4.A.    VSUB.F32 s0,s8,s2
        0x000023f0:    ed8b0a02    ....    VSTR     s0,[r11,#8]
        0x000023f4:    ed980a02    ....    VLDR     s0,[r8,#8]
        0x000023f8:    ee300a05    0...    VADD.F32 s0,s0,s10
        0x000023fc:    ed880a02    ....    VSTR     s0,[r8,#8]
        0x00002400:    ed9a0a02    ....    VLDR     s0,[r10,#8]
        0x00002404:    ee300a01    0...    VADD.F32 s0,s0,s2
        0x00002408:    ed8a0a02    ....    VSTR     s0,[r10,#8]
        0x0000240c:    ed960a00    ....    VLDR     s0,[r6,#0]
        0x00002410:    ed911a03    ....    VLDR     s2,[r1,#0xc]
        0x00002414:    ed953a00    ...:    VLDR     s6,[r5,#0]
        0x00002418:    ed9b2a03    ...*    VLDR     s4,[r11,#0xc]
        0x0000241c:    ed984a03    ...J    VLDR     s8,[r8,#0xc]
        0x00002420:    9d0b        ..      LDR      r5,[sp,#0x2c]
        0x00002422:    ee205a01     ..Z    VMUL.F32 s10,s0,s2
        0x00002426:    ee220a00    "...    VMUL.F32 s0,s4,s0
        0x0000242a:    eea35a02    ...Z    VFMA.F32 s10,s6,s4
        0x0000242e:    eea30a41    ..A.    VFMS.F32 s0,s6,s2
        0x00002432:    ee344a45    4.EJ    VSUB.F32 s8,s8,s10
        0x00002436:    ed814a03    ...J    VSTR     s8,[r1,#0xc]
        0x0000243a:    eb000107    ....    ADD      r1,r0,r7
        0x0000243e:    ed9a4a03    ...J    VLDR     s8,[r10,#0xc]
        0x00002442:    ee341a40    4.@.    VSUB.F32 s2,s8,s0
        0x00002446:    ed8b1a03    ....    VSTR     s2,[r11,#0xc]
        0x0000244a:    46a3        .F      MOV      r11,r4
        0x0000244c:    9c09        ..      LDR      r4,[sp,#0x24]
        0x0000244e:    ed981a03    ....    VLDR     s2,[r8,#0xc]
        0x00002452:    ee311a05    1...    VADD.F32 s2,s2,s10
        0x00002456:    ed881a03    ....    VSTR     s2,[r8,#0xc]
        0x0000245a:    ed9a1a03    ....    VLDR     s2,[r10,#0xc]
        0x0000245e:    ee310a00    1...    VADD.F32 s0,s2,s0
        0x00002462:    ed8a0a03    ....    VSTR     s0,[r10,#0xc]
        0x00002466:    f47faf37    ..7.    BNE      0x22d8 ; Fft_transformRadix2_static + 384
        0x0000246a:    9808        ..      LDR      r0,[sp,#0x20]
        0x0000246c:    9e02        ..      LDR      r6,[sp,#8]
        0x0000246e:    f8dda028    ..(.    LDR      r10,[sp,#0x28]
        0x00002472:    eba00c02    ....    SUB      r12,r0,r2
        0x00002476:    9a00        ..      LDR      r2,[sp,#0]
        0x00002478:    9804        ..      LDR      r0,[sp,#0x10]
        0x0000247a:    2800        .(      CMP      r0,#0
        0x0000247c:    f00080b8    ....    BEQ.W    0x25f0 ; Fft_transformRadix2_static + 1176
        0x00002480:    9806        ..      LDR      r0,[sp,#0x18]
        0x00002482:    eb0e0581    ....    ADD      r5,lr,r1,LSL #2
        0x00002486:    46d1        .F      MOV      r9,r10
        0x00002488:    ed950a00    ....    VLDR     s0,[r5,#0]
        0x0000248c:    eb04058c    ....    ADD      r5,r4,r12,LSL #2
        0x00002490:    4460        `D      ADD      r0,r0,r12
        0x00002492:    ed954a00    ...J    VLDR     s8,[r5,#0]
        0x00002496:    eb040880    ....    ADD      r8,r4,r0,LSL #2
        0x0000249a:    eb0b0a80    ....    ADD      r10,r11,r0,LSL #2
        0x0000249e:    eb030081    ....    ADD      r0,r3,r1,LSL #2
        0x000024a2:    ed981a00    ....    VLDR     s2,[r8,#0]
        0x000024a6:    ed902a00    ...*    VLDR     s4,[r0,#0]
        0x000024aa:    ed9a3a00    ...:    VLDR     s6,[r10,#0]
        0x000024ae:    eb0b008c    ....    ADD      r0,r11,r12,LSL #2
        0x000024b2:    ee205a01     ..Z    VMUL.F32 s10,s0,s2
        0x000024b6:    ee230a00    #...    VMUL.F32 s0,s6,s0
        0x000024ba:    eea25a03    ...Z    VFMA.F32 s10,s4,s6
        0x000024be:    eea20a41    ..A.    VFMS.F32 s0,s4,s2
        0x000024c2:    ee344a45    4.EJ    VSUB.F32 s8,s8,s10
        0x000024c6:    ed884a00    ...J    VSTR     s8,[r8,#0]
        0x000024ca:    ed904a00    ...J    VLDR     s8,[r0,#0]
        0x000024ce:    ee341a40    4.@.    VSUB.F32 s2,s8,s0
        0x000024d2:    ed8a1a00    ....    VSTR     s2,[r10,#0]
        0x000024d6:    46ca        .F      MOV      r10,r9
        0x000024d8:    ed951a00    ....    VLDR     s2,[r5,#0]
        0x000024dc:    ee311a05    1...    VADD.F32 s2,s2,s10
        0x000024e0:    ed851a00    ....    VSTR     s2,[r5,#0]
        0x000024e4:    9d0b        ..      LDR      r5,[sp,#0x2c]
        0x000024e6:    ed901a00    ....    VLDR     s2,[r0,#0]
        0x000024ea:    ee310a00    1...    VADD.F32 s0,s2,s0
        0x000024ee:    ed800a00    ....    VSTR     s0,[r0,#0]
        0x000024f2:    9804        ..      LDR      r0,[sp,#0x10]
        0x000024f4:    2801        .(      CMP      r0,#1
        0x000024f6:    d07b        {.      BEQ      0x25f0 ; Fft_transformRadix2_static + 1176
        0x000024f8:    9806        ..      LDR      r0,[sp,#0x18]
        0x000024fa:    eb010807    ....    ADD      r8,r1,r7
        0x000024fe:    f10c0101    ....    ADD      r1,r12,#1
        0x00002502:    eb0e0688    ....    ADD      r6,lr,r8,LSL #2
        0x00002506:    4408        .D      ADD      r0,r0,r1
        0x00002508:    ed960a00    ....    VLDR     s0,[r6,#0]
        0x0000250c:    eb040681    ....    ADD      r6,r4,r1,LSL #2
        0x00002510:    eb040580    ....    ADD      r5,r4,r0,LSL #2
        0x00002514:    eb0b0a80    ....    ADD      r10,r11,r0,LSL #2
        0x00002518:    eb030088    ....    ADD      r0,r3,r8,LSL #2
        0x0000251c:    ed964a00    ...J    VLDR     s8,[r6,#0]
        0x00002520:    ed951a00    ....    VLDR     s2,[r5,#0]
        0x00002524:    ed902a00    ...*    VLDR     s4,[r0,#0]
        0x00002528:    ed9a3a00    ...:    VLDR     s6,[r10,#0]
        0x0000252c:    eb0b0081    ....    ADD      r0,r11,r1,LSL #2
        0x00002530:    ee205a01     ..Z    VMUL.F32 s10,s0,s2
        0x00002534:    ee230a00    #...    VMUL.F32 s0,s6,s0
        0x00002538:    eea25a03    ...Z    VFMA.F32 s10,s4,s6
        0x0000253c:    eea20a41    ..A.    VFMS.F32 s0,s4,s2
        0x00002540:    ee344a45    4.EJ    VSUB.F32 s8,s8,s10
        0x00002544:    ed854a00    ...J    VSTR     s8,[r5,#0]
        0x00002548:    9d0b        ..      LDR      r5,[sp,#0x2c]
        0x0000254a:    ed904a00    ...J    VLDR     s8,[r0,#0]
        0x0000254e:    ee341a40    4.@.    VSUB.F32 s2,s8,s0
        0x00002552:    ed8a1a00    ....    VSTR     s2,[r10,#0]
        0x00002556:    46ca        .F      MOV      r10,r9
        0x00002558:    ed961a00    ....    VLDR     s2,[r6,#0]
        0x0000255c:    ee311a05    1...    VADD.F32 s2,s2,s10
        0x00002560:    ed861a00    ....    VSTR     s2,[r6,#0]
        0x00002564:    9e02        ..      LDR      r6,[sp,#8]
        0x00002566:    ed901a00    ....    VLDR     s2,[r0,#0]
        0x0000256a:    ee310a00    1...    VADD.F32 s0,s2,s0
        0x0000256e:    ed800a00    ....    VSTR     s0,[r0,#0]
        0x00002572:    9804        ..      LDR      r0,[sp,#0x10]
        0x00002574:    2802        .(      CMP      r0,#2
        0x00002576:    d03b        ;.      BEQ      0x25f0 ; Fft_transformRadix2_static + 1176
        0x00002578:    9e06        ..      LDR      r6,[sp,#0x18]
        0x0000257a:    f10c0102    ....    ADD      r1,r12,#2
        0x0000257e:    eb080007    ....    ADD      r0,r8,r7
        0x00002582:    eb0e0580    ....    ADD      r5,lr,r0,LSL #2
        0x00002586:    eb030080    ....    ADD      r0,r3,r0,LSL #2
        0x0000258a:    440e        .D      ADD      r6,r6,r1
        0x0000258c:    ed950a00    ....    VLDR     s0,[r5,#0]
        0x00002590:    eb040581    ....    ADD      r5,r4,r1,LSL #2
        0x00002594:    ed902a00    ...*    VLDR     s4,[r0,#0]
        0x00002598:    eb0b0081    ....    ADD      r0,r11,r1,LSL #2
        0x0000259c:    eb040c86    ....    ADD      r12,r4,r6,LSL #2
        0x000025a0:    eb0b0686    ....    ADD      r6,r11,r6,LSL #2
        0x000025a4:    ed954a00    ...J    VLDR     s8,[r5,#0]
        0x000025a8:    ed9c1a00    ....    VLDR     s2,[r12,#0]
        0x000025ac:    ed963a00    ...:    VLDR     s6,[r6,#0]
        0x000025b0:    ee205a01     ..Z    VMUL.F32 s10,s0,s2
        0x000025b4:    ee230a00    #...    VMUL.F32 s0,s6,s0
        0x000025b8:    eea25a03    ...Z    VFMA.F32 s10,s4,s6
        0x000025bc:    eea20a41    ..A.    VFMS.F32 s0,s4,s2
        0x000025c0:    ee344a45    4.EJ    VSUB.F32 s8,s8,s10
        0x000025c4:    ed8c4a00    ...J    VSTR     s8,[r12,#0]
        0x000025c8:    ed904a00    ...J    VLDR     s8,[r0,#0]
        0x000025cc:    ee341a40    4.@.    VSUB.F32 s2,s8,s0
        0x000025d0:    ed861a00    ....    VSTR     s2,[r6,#0]
        0x000025d4:    9e02        ..      LDR      r6,[sp,#8]
        0x000025d6:    ed951a00    ....    VLDR     s2,[r5,#0]
        0x000025da:    ee311a05    1...    VADD.F32 s2,s2,s10
        0x000025de:    ed851a00    ....    VSTR     s2,[r5,#0]
        0x000025e2:    9d0b        ..      LDR      r5,[sp,#0x2c]
        0x000025e4:    ed901a00    ....    VLDR     s2,[r0,#0]
        0x000025e8:    ee310a00    1...    VADD.F32 s0,s2,s0
        0x000025ec:    ed800a00    ....    VSTR     s0,[r0,#0]
        0x000025f0:    9805        ..      LDR      r0,[sp,#0x14]
        0x000025f2:    9907        ..      LDR      r1,[sp,#0x1c]
        0x000025f4:    4401        .D      ADD      r1,r1,r0
        0x000025f6:    9107        ..      STR      r1,[sp,#0x1c]
        0x000025f8:    9908        ..      LDR      r1,[sp,#0x20]
        0x000025fa:    4431        1D      ADD      r1,r1,r6
        0x000025fc:    4291        .B      CMP      r1,r2
        0x000025fe:    f4ffae53    ..S.    BCC      0x22a8 ; Fft_transformRadix2_static + 336
        0x00002602:    f04f0c01    O...    MOV      r12,#1
        0x00002606:    4296        .B      CMP      r6,r2
        0x00002608:    d00b        ..      BEQ      0x2622 ; Fft_transformRadix2_static + 1226
        0x0000260a:    0076        v.      LSLS     r6,r6,#1
        0x0000260c:    4296        .B      CMP      r6,r2
        0x0000260e:    f67fae2f    ../.    BLS      0x2270 ; Fft_transformRadix2_static + 280
        0x00002612:    e006        ..      B        0x2622 ; Fft_transformRadix2_static + 1226
        0x00002614:    f0400002    @...    ORR      r0,r0,#2
        0x00002618:    f04f0c00    O...    MOV      r12,#0
        0x0000261c:    2a00        .*      CMP      r2,#0
        0x0000261e:    f6bfadbd    ....    BGE      0x219c ; Fft_transformRadix2_static + 68
        0x00002622:    4660        `F      MOV      r0,r12
        0x00002624:    b00c        ..      ADD      sp,sp,#0x30
        0x00002626:    e8bd8ff0    ....    POP      {r4-r11,pc}
        0x0000262a:    4608        .F      MOV      r0,r1
        0x0000262c:    f04f0c00    O...    MOV      r12,#0
        0x00002630:    2a00        .*      CMP      r2,#0
        0x00002632:    f6bfadb3    ....    BGE      0x219c ; Fft_transformRadix2_static + 68
        0x00002636:    e7f4        ..      B        0x2622 ; Fft_transformRadix2_static + 1226
    Fft_transform_static
        0x00002638:    2a00        .*      CMP      r2,#0
        0x0000263a:    bf04        ..      ITT      EQ
        0x0000263c:    2001        .       MOVEQ    r0,#1
        0x0000263e:    4770        pG      BXEQ     lr
        0x00002640:    f1a20c01    ....    SUB      r12,r2,#1
        0x00002644:    ea1c0f02    ....    TST      r12,r2
        0x00002648:    bf08        ..      IT       EQ
        0x0000264a:    f7ffbd85    ....    BEQ.W    Fft_transformRadix2_static ; 0x2158
        0x0000264e:    f7febd47    ..G.    B        Fft_transformBluestein ; 0x10e0
        0x00002652:    0000        ..      MOVS     r0,r0
        0x00002654:    0000        ..      MOVS     r0,r0
        0x00002656:    0000        ..      MOVS     r0,r0
    HanningWindow
        0x00002658:    e92d4ff0    -..O    PUSH     {r4-r11,lr}
        0x0000265c:    b091        ..      SUB      sp,sp,#0x44
        0x0000265e:    460d        .F      MOV      r5,r1
        0x00002660:    2104        .!      MOVS     r1,#4
        0x00002662:    4604        .F      MOV      r4,r0
        0x00002664:    f7fdfdae    ....    BL       calloc ; 0x1c4
        0x00002668:    00a1        ..      LSLS     r1,r4,#2
        0x0000266a:    4683        .F      MOV      r11,r0
        0x0000266c:    f7fdff02    ....    BL       __aeabi_memclr4 ; 0x474
        0x00002670:    2d01        .-      CMP      r5,#1
        0x00002672:    4622        "F      MOV      r2,r4
        0x00002674:    9506        ..      STR      r5,[sp,#0x18]
        0x00002676:    f04f0000    O...    MOV      r0,#0
        0x0000267a:    bf08        ..      IT       EQ
        0x0000267c:    3a01        .:      SUBEQ    r2,#1
        0x0000267e:    bf08        ..      IT       EQ
        0x00002680:    f04f30ff    O..0    MOVEQ    r0,#0xffffffff
        0x00002684:    f0120f01    ....    TST      r2,#1
        0x00002688:    9003        ..      STR      r0,[sp,#0xc]
        0x0000268a:    d128        (.      BNE      0x26de ; HanningWindow + 134
        0x0000268c:    eb0270d2    ...p    ADD      r0,r2,r2,LSR #31
        0x00002690:    2a02        .*      CMP      r2,#2
        0x00002692:    ea4f0560    O.`.    ASR      r5,r0,#1
        0x00002696:    f2c08231    ..1.    BLT.W    0x2afc ; HanningWindow + 1188
        0x0000269a:    1c50        P.      ADDS     r0,r2,#1
        0x0000269c:    9205        ..      STR      r2,[sp,#0x14]
        0x0000269e:    9501        ..      STR      r5,[sp,#4]
        0x000026a0:    f003ffa7    ....    BL       __aeabi_i2d ; 0x65f2
        0x000026a4:    ed9f0b7a    ..z.    VLDR     d0,[pc,#488] ; [0x2890] = 0
        0x000026a8:    4602        .F      MOV      r2,r0
        0x000026aa:    460b        .F      MOV      r3,r1
        0x000026ac:    ec596b10    Y..k    VMOV     r6,r9,d0
        0x000026b0:    4630        0F      MOV      r0,r6
        0x000026b2:    4649        IF      MOV      r1,r9
        0x000026b4:    f003fde8    ....    BL       __aeabi_ddiv ; 0x6288
        0x000026b8:    9d01        ..      LDR      r5,[sp,#4]
        0x000026ba:    960f        ..      STR      r6,[sp,#0x3c]
        0x000026bc:    f8cd9028    ..(.    STR      r9,[sp,#0x28]
        0x000026c0:    1e6a        j.      SUBS     r2,r5,#1
        0x000026c2:    f0050303    ....    AND      r3,r5,#3
        0x000026c6:    2a03        .*      CMP      r2,#3
        0x000026c8:    f08080ee    ....    BCS.W    0x28a8 ; HanningWindow + 592
        0x000026cc:    9a05        ..      LDR      r2,[sp,#0x14]
        0x000026ce:    4682        .F      MOV      r10,r0
        0x000026d0:    f04f0800    O...    MOV      r8,#0
        0x000026d4:    2b00        .+      CMP      r3,#0
        0x000026d6:    4689        .F      MOV      r9,r1
        0x000026d8:    f040819a    @...    BNE.W    0x2a10 ; HanningWindow + 952
        0x000026dc:    e20e        ..      B        0x2afc ; HanningWindow + 1188
        0x000026de:    1c50        P.      ADDS     r0,r2,#1
        0x000026e0:    2a01        .*      CMP      r2,#1
        0x000026e2:    f8cdb010    ....    STR      r11,[sp,#0x10]
        0x000026e6:    9402        ..      STR      r4,[sp,#8]
        0x000026e8:    9205        ..      STR      r2,[sp,#0x14]
        0x000026ea:    eb0071d0    ...q    ADD      r1,r0,r0,LSR #31
        0x000026ee:    ea4f0561    O.a.    ASR      r5,r1,#1
        0x000026f2:    f2c0809b    ....    BLT.W    0x282c ; HanningWindow + 468
        0x000026f6:    f003ff7c    ..|.    BL       __aeabi_i2d ; 0x65f2
        0x000026fa:    ed9f0b65    ..e.    VLDR     d0,[pc,#404] ; [0x2890] = 0
        0x000026fe:    4602        .F      MOV      r2,r0
        0x00002700:    460b        .F      MOV      r3,r1
        0x00002702:    ec510b10    Q...    VMOV     r0,r1,d0
        0x00002706:    e9cd100f    ....    STRD     r1,r0,[sp,#0x3c]
        0x0000270a:    f003fdbd    ....    BL       __aeabi_ddiv ; 0x6288
        0x0000270e:    ed9f0b62    ..b.    VLDR     d0,[pc,#392] ; [0x2898] = 0x54442eea
        0x00002712:    e9cd100d    ....    STRD     r1,r0,[sp,#0x34]
        0x00002716:    2600        .&      MOVS     r6,#0
        0x00002718:    9804        ..      LDR      r0,[sp,#0x10]
        0x0000271a:    ec598b10    Y...    VMOV     r8,r9,d0
        0x0000271e:    ed9f0b60    ..`.    VLDR     d0,[pc,#384] ; [0x28a0] = 0
        0x00002722:    f1000708    ....    ADD      r7,r0,#8
        0x00002726:    ec5bab10    [...    VMOV     r10,r11,d0
        0x0000272a:    bf00        ..      NOP      
        0x0000272c:    1c74        t.      ADDS     r4,r6,#1
        0x0000272e:    4620         F      MOV      r0,r4
        0x00002730:    f003ff5f    .._.    BL       __aeabi_i2d ; 0x65f2
        0x00002734:    4642        BF      MOV      r2,r8
        0x00002736:    464b        KF      MOV      r3,r9
        0x00002738:    f003ffcc    ....    BL       __aeabi_dmul ; 0x66d4
        0x0000273c:    e9dd320d    ...2    LDRD     r3,r2,[sp,#0x34]
        0x00002740:    f003ffc8    ....    BL       __aeabi_dmul ; 0x66d4
        0x00002744:    ec410b10    A...    VMOV     d0,r0,r1
        0x00002748:    f002fb52    ..R.    BL       __hardfp_cos ; 0x4df0
        0x0000274c:    e9dd100f    ....    LDRD     r1,r0,[sp,#0x3c]
        0x00002750:    ec532b10    S..+    VMOV     r2,r3,d0
        0x00002754:    f004f8c8    ....    BL       __aeabi_dsub ; 0x68e8
        0x00002758:    4652        RF      MOV      r2,r10
        0x0000275a:    465b        [F      MOV      r3,r11
        0x0000275c:    f003ffba    ....    BL       __aeabi_dmul ; 0x66d4
        0x00002760:    f003fcb8    ....    BL       __aeabi_d2f ; 0x60d4
        0x00002764:    42ac        .B      CMP      r4,r5
        0x00002766:    f8470c08    G...    STR      r0,[r7,#-8]
        0x0000276a:    da5f        _.      BGE      0x282c ; HanningWindow + 468
        0x0000276c:    1cb4        ..      ADDS     r4,r6,#2
        0x0000276e:    4620         F      MOV      r0,r4
        0x00002770:    f003ff3f    ..?.    BL       __aeabi_i2d ; 0x65f2
        0x00002774:    4642        BF      MOV      r2,r8
        0x00002776:    464b        KF      MOV      r3,r9
        0x00002778:    f003ffac    ....    BL       __aeabi_dmul ; 0x66d4
        0x0000277c:    e9dd320d    ...2    LDRD     r3,r2,[sp,#0x34]
        0x00002780:    f003ffa8    ....    BL       __aeabi_dmul ; 0x66d4
        0x00002784:    ec410b10    A...    VMOV     d0,r0,r1
        0x00002788:    f002fb32    ..2.    BL       __hardfp_cos ; 0x4df0
        0x0000278c:    e9dd100f    ....    LDRD     r1,r0,[sp,#0x3c]
        0x00002790:    ec532b10    S..+    VMOV     r2,r3,d0
        0x00002794:    f004f8a8    ....    BL       __aeabi_dsub ; 0x68e8
        0x00002798:    4652        RF      MOV      r2,r10
        0x0000279a:    465b        [F      MOV      r3,r11
        0x0000279c:    f003ff9a    ....    BL       __aeabi_dmul ; 0x66d4
        0x000027a0:    f003fc98    ....    BL       __aeabi_d2f ; 0x60d4
        0x000027a4:    42ac        .B      CMP      r4,r5
        0x000027a6:    f8470c04    G...    STR      r0,[r7,#-4]
        0x000027aa:    da3f        ?.      BGE      0x282c ; HanningWindow + 468
        0x000027ac:    1cf4        ..      ADDS     r4,r6,#3
        0x000027ae:    4620         F      MOV      r0,r4
        0x000027b0:    f003ff1f    ....    BL       __aeabi_i2d ; 0x65f2
        0x000027b4:    4642        BF      MOV      r2,r8
        0x000027b6:    464b        KF      MOV      r3,r9
        0x000027b8:    f003ff8c    ....    BL       __aeabi_dmul ; 0x66d4
        0x000027bc:    e9dd320d    ...2    LDRD     r3,r2,[sp,#0x34]
        0x000027c0:    f003ff88    ....    BL       __aeabi_dmul ; 0x66d4
        0x000027c4:    ec410b10    A...    VMOV     d0,r0,r1
        0x000027c8:    f002fb12    ....    BL       __hardfp_cos ; 0x4df0
        0x000027cc:    e9dd100f    ....    LDRD     r1,r0,[sp,#0x3c]
        0x000027d0:    ec532b10    S..+    VMOV     r2,r3,d0
        0x000027d4:    f004f888    ....    BL       __aeabi_dsub ; 0x68e8
        0x000027d8:    4652        RF      MOV      r2,r10
        0x000027da:    465b        [F      MOV      r3,r11
        0x000027dc:    f003ff7a    ..z.    BL       __aeabi_dmul ; 0x66d4
        0x000027e0:    f003fc78    ..x.    BL       __aeabi_d2f ; 0x60d4
        0x000027e4:    42ac        .B      CMP      r4,r5
        0x000027e6:    6038        8`      STR      r0,[r7,#0]
        0x000027e8:    da20         .      BGE      0x282c ; HanningWindow + 468
        0x000027ea:    3604        .6      ADDS     r6,#4
        0x000027ec:    4630        0F      MOV      r0,r6
        0x000027ee:    f003ff00    ....    BL       __aeabi_i2d ; 0x65f2
        0x000027f2:    4642        BF      MOV      r2,r8
        0x000027f4:    464b        KF      MOV      r3,r9
        0x000027f6:    f003ff6d    ..m.    BL       __aeabi_dmul ; 0x66d4
        0x000027fa:    e9dd320d    ...2    LDRD     r3,r2,[sp,#0x34]
        0x000027fe:    f003ff69    ..i.    BL       __aeabi_dmul ; 0x66d4
        0x00002802:    ec410b10    A...    VMOV     d0,r0,r1
        0x00002806:    f002faf3    ....    BL       __hardfp_cos ; 0x4df0
        0x0000280a:    e9dd100f    ....    LDRD     r1,r0,[sp,#0x3c]
        0x0000280e:    ec532b10    S..+    VMOV     r2,r3,d0
        0x00002812:    f004f869    ..i.    BL       __aeabi_dsub ; 0x68e8
        0x00002816:    4652        RF      MOV      r2,r10
        0x00002818:    465b        [F      MOV      r3,r11
        0x0000281a:    f003ff5b    ..[.    BL       __aeabi_dmul ; 0x66d4
        0x0000281e:    f003fc59    ..Y.    BL       __aeabi_d2f ; 0x60d4
        0x00002822:    6078        x`      STR      r0,[r7,#4]
        0x00002824:    3710        .7      ADDS     r7,r7,#0x10
        0x00002826:    42ae        .B      CMP      r6,r5
        0x00002828:    f6ffaf80    ....    BLT.W    0x272c ; HanningWindow + 212
        0x0000282c:    9805        ..      LDR      r0,[sp,#0x14]
        0x0000282e:    9c02        ..      LDR      r4,[sp,#8]
        0x00002830:    f8ddb010    ....    LDR      r11,[sp,#0x10]
        0x00002834:    4285        .B      CMP      r5,r0
        0x00002836:    f28081c3    ....    BGE.W    0x2bc0 ; HanningWindow + 1384
        0x0000283a:    9803        ..      LDR      r0,[sp,#0xc]
        0x0000283c:    1eab        ..      SUBS     r3,r5,#2
        0x0000283e:    4420         D      ADD      r0,r0,r4
        0x00002840:    1e41        A.      SUBS     r1,r0,#1
        0x00002842:    1b42        B.      SUBS     r2,r0,r5
        0x00002844:    1b49        I.      SUBS     r1,r1,r5
        0x00002846:    f0120703    ....    ANDS     r7,r2,#3
        0x0000284a:    f0008177    ..w.    BEQ.W    0x2b3c ; HanningWindow + 1252
        0x0000284e:    f85b2023    [.#     LDR      r2,[r11,r3,LSL #2]
        0x00002852:    1eeb        ..      SUBS     r3,r5,#3
        0x00002854:    2f01        ./      CMP      r7,#1
        0x00002856:    f84b2025    K.%     STR      r2,[r11,r5,LSL #2]
        0x0000285a:    f1050201    ....    ADD      r2,r5,#1
        0x0000285e:    f000816e    ..n.    BEQ.W    0x2b3e ; HanningWindow + 1254
        0x00002862:    f85b3023    [.#0    LDR      r3,[r11,r3,LSL #2]
        0x00002866:    2f02        ./      CMP      r7,#2
        0x00002868:    f84b3022    K."0    STR      r3,[r11,r2,LSL #2]
        0x0000286c:    f1050202    ....    ADD      r2,r5,#2
        0x00002870:    f1a50304    ....    SUB      r3,r5,#4
        0x00002874:    f0008163    ..c.    BEQ.W    0x2b3e ; HanningWindow + 1254
        0x00002878:    f85b3023    [.#0    LDR      r3,[r11,r3,LSL #2]
        0x0000287c:    f84b3022    K."0    STR      r3,[r11,r2,LSL #2]
        0x00002880:    1cea        ..      ADDS     r2,r5,#3
        0x00002882:    1f6b        k.      SUBS     r3,r5,#5
        0x00002884:    2903        .)      CMP      r1,#3
        0x00002886:    f080815c    ..\.    BCS.W    0x2b42 ; HanningWindow + 1258
        0x0000288a:    e199        ..      B        0x2bc0 ; HanningWindow + 1384
        0x0000288c:    bf00        ..      NOP      
        0x0000288e:    bf00        ..      NOP      
    $d.1
        0x00002890:    00000000    ....    DCD    0
        0x00002894:    3ff00000    ...?    DCD    1072693248
        0x00002898:    54442eea    ..DT    DCD    1413754602
        0x0000289c:    401921fb    .!.@    DCD    1075388923
        0x000028a0:    00000000    ....    DCD    0
        0x000028a4:    3fe00000    ...?    DCD    1071644672
    $t.2
        0x000028a8:    ed9f0bd9    ....    VLDR     d0,[pc,#868] ; [0x2c10] = 0x54442eea
        0x000028ac:    1b5a        Z.      SUBS     r2,r3,r5
        0x000028ae:    9300        ..      STR      r3,[sp,#0]
        0x000028b0:    9402        ..      STR      r4,[sp,#8]
        0x000028b2:    f8cdb010    ....    STR      r11,[sp,#0x10]
        0x000028b6:    f10b0708    ....    ADD      r7,r11,#8
        0x000028ba:    f04f0802    O...    MOV      r8,#2
        0x000028be:    9207        ..      STR      r2,[sp,#0x1c]
        0x000028c0:    ec532b10    S..+    VMOV     r2,r3,d0
        0x000028c4:    ed9f0bd4    ....    VLDR     d0,[pc,#848] ; [0x2c18] = 0
        0x000028c8:    e9cd320d    ...2    STRD     r3,r2,[sp,#0x34]
        0x000028cc:    ec532b10    S..+    VMOV     r2,r3,d0
        0x000028d0:    e9cd320b    ...2    STRD     r3,r2,[sp,#0x2c]
        0x000028d4:    e9cd1008    ....    STRD     r1,r0,[sp,#0x20]
        0x000028d8:    f8ddb028    ..(.    LDR      r11,[sp,#0x28]
        0x000028dc:    f1a80001    ....    SUB      r0,r8,#1
        0x000028e0:    9710        ..      STR      r7,[sp,#0x40]
        0x000028e2:    f003fe86    ....    BL       __aeabi_i2d ; 0x65f2
        0x000028e6:    9e0e        ..      LDR      r6,[sp,#0x38]
        0x000028e8:    9c0d        ..      LDR      r4,[sp,#0x34]
        0x000028ea:    4632        2F      MOV      r2,r6
        0x000028ec:    4623        #F      MOV      r3,r4
        0x000028ee:    f003fef1    ....    BL       __aeabi_dmul ; 0x66d4
        0x000028f2:    9a09        ..      LDR      r2,[sp,#0x24]
        0x000028f4:    9b08        ..      LDR      r3,[sp,#0x20]
        0x000028f6:    4692        .F      MOV      r10,r2
        0x000028f8:    461d        .F      MOV      r5,r3
        0x000028fa:    f003feeb    ....    BL       __aeabi_dmul ; 0x66d4
        0x000028fe:    ec410b10    A...    VMOV     d0,r0,r1
        0x00002902:    f002fa75    ..u.    BL       __hardfp_cos ; 0x4df0
        0x00002906:    980f        ..      LDR      r0,[sp,#0x3c]
        0x00002908:    ec532b10    S..+    VMOV     r2,r3,d0
        0x0000290c:    4659        YF      MOV      r1,r11
        0x0000290e:    f003ffeb    ....    BL       __aeabi_dsub ; 0x68e8
        0x00002912:    e9dd320b    ...2    LDRD     r3,r2,[sp,#0x2c]
        0x00002916:    f003fedd    ....    BL       __aeabi_dmul ; 0x66d4
        0x0000291a:    f003fbdb    ....    BL       __aeabi_d2f ; 0x60d4
        0x0000291e:    4681        .F      MOV      r9,r0
        0x00002920:    4640        @F      MOV      r0,r8
        0x00002922:    f003fe66    ..f.    BL       __aeabi_i2d ; 0x65f2
        0x00002926:    4632        2F      MOV      r2,r6
        0x00002928:    4623        #F      MOV      r3,r4
        0x0000292a:    f003fed3    ....    BL       __aeabi_dmul ; 0x66d4
        0x0000292e:    4656        VF      MOV      r6,r10
        0x00002930:    46aa        .F      MOV      r10,r5
        0x00002932:    f8479c08    G...    STR      r9,[r7,#-8]
        0x00002936:    4632        2F      MOV      r2,r6
        0x00002938:    4653        SF      MOV      r3,r10
        0x0000293a:    f003fecb    ....    BL       __aeabi_dmul ; 0x66d4
        0x0000293e:    ec410b10    A...    VMOV     d0,r0,r1
        0x00002942:    f002fa55    ..U.    BL       __hardfp_cos ; 0x4df0
        0x00002946:    9f0f        ..      LDR      r7,[sp,#0x3c]
        0x00002948:    ec532b10    S..+    VMOV     r2,r3,d0
        0x0000294c:    4659        YF      MOV      r1,r11
        0x0000294e:    4638        8F      MOV      r0,r7
        0x00002950:    f003ffca    ....    BL       __aeabi_dsub ; 0x68e8
        0x00002954:    9d0c        ..      LDR      r5,[sp,#0x30]
        0x00002956:    f8dd902c    ..,.    LDR      r9,[sp,#0x2c]
        0x0000295a:    462a        *F      MOV      r2,r5
        0x0000295c:    464b        KF      MOV      r3,r9
        0x0000295e:    f003feb9    ....    BL       __aeabi_dmul ; 0x66d4
        0x00002962:    f003fbb7    ....    BL       __aeabi_d2f ; 0x60d4
        0x00002966:    4604        .F      MOV      r4,r0
        0x00002968:    f1080001    ....    ADD      r0,r8,#1
        0x0000296c:    f003fe41    ..A.    BL       __aeabi_i2d ; 0x65f2
        0x00002970:    e9dd320d    ...2    LDRD     r3,r2,[sp,#0x34]
        0x00002974:    f003feae    ....    BL       __aeabi_dmul ; 0x66d4
        0x00002978:    9a10        ..      LDR      r2,[sp,#0x40]
        0x0000297a:    4653        SF      MOV      r3,r10
        0x0000297c:    f8424c04    B..L    STR      r4,[r2,#-4]
        0x00002980:    4632        2F      MOV      r2,r6
        0x00002982:    f003fea7    ....    BL       __aeabi_dmul ; 0x66d4
        0x00002986:    ec410b10    A...    VMOV     d0,r0,r1
        0x0000298a:    f002fa31    ..1.    BL       __hardfp_cos ; 0x4df0
        0x0000298e:    ec532b10    S..+    VMOV     r2,r3,d0
        0x00002992:    4638        8F      MOV      r0,r7
        0x00002994:    4659        YF      MOV      r1,r11
        0x00002996:    f003ffa7    ....    BL       __aeabi_dsub ; 0x68e8
        0x0000299a:    462a        *F      MOV      r2,r5
        0x0000299c:    464b        KF      MOV      r3,r9
        0x0000299e:    f003fe99    ....    BL       __aeabi_dmul ; 0x66d4
        0x000029a2:    f003fb97    ....    BL       __aeabi_d2f ; 0x60d4
        0x000029a6:    4604        .F      MOV      r4,r0
        0x000029a8:    f1080002    ....    ADD      r0,r8,#2
        0x000029ac:    f003fe21    ..!.    BL       __aeabi_i2d ; 0x65f2
        0x000029b0:    e9dd320d    ...2    LDRD     r3,r2,[sp,#0x34]
        0x000029b4:    f003fe8e    ....    BL       __aeabi_dmul ; 0x66d4
        0x000029b8:    9a10        ..      LDR      r2,[sp,#0x40]
        0x000029ba:    4653        SF      MOV      r3,r10
        0x000029bc:    9f10        ..      LDR      r7,[sp,#0x40]
        0x000029be:    6014        .`      STR      r4,[r2,#0]
        0x000029c0:    4632        2F      MOV      r2,r6
        0x000029c2:    f003fe87    ....    BL       __aeabi_dmul ; 0x66d4
        0x000029c6:    ec410b10    A...    VMOV     d0,r0,r1
        0x000029ca:    f002fa11    ....    BL       __hardfp_cos ; 0x4df0
        0x000029ce:    980f        ..      LDR      r0,[sp,#0x3c]
        0x000029d0:    ec532b10    S..+    VMOV     r2,r3,d0
        0x000029d4:    4659        YF      MOV      r1,r11
        0x000029d6:    f003ff87    ....    BL       __aeabi_dsub ; 0x68e8
        0x000029da:    462a        *F      MOV      r2,r5
        0x000029dc:    464b        KF      MOV      r3,r9
        0x000029de:    f003fe79    ..y.    BL       __aeabi_dmul ; 0x66d4
        0x000029e2:    f003fb77    ..w.    BL       __aeabi_d2f ; 0x60d4
        0x000029e6:    6078        x`      STR      r0,[r7,#4]
        0x000029e8:    9807        ..      LDR      r0,[sp,#0x1c]
        0x000029ea:    f1080804    ....    ADD      r8,r8,#4
        0x000029ee:    3710        .7      ADDS     r7,r7,#0x10
        0x000029f0:    4440        @D      ADD      r0,r0,r8
        0x000029f2:    2802        .(      CMP      r0,#2
        0x000029f4:    f47faf72    ..r.    BNE      0x28dc ; HanningWindow + 644
        0x000029f8:    e9dd1a08    ....    LDRD     r1,r10,[sp,#0x20]
        0x000029fc:    9c02        ..      LDR      r4,[sp,#8]
        0x000029fe:    e9ddb204    ....    LDRD     r11,r2,[sp,#0x10]
        0x00002a02:    e9dd3500    ...5    LDRD     r3,r5,[sp,#0]
        0x00002a06:    f1a80802    ....    SUB      r8,r8,#2
        0x00002a0a:    2b00        .+      CMP      r3,#0
        0x00002a0c:    4689        .F      MOV      r9,r1
        0x00002a0e:    d075        u.      BEQ      0x2afc ; HanningWindow + 1188
        0x00002a10:    f1080001    ....    ADD      r0,r8,#1
        0x00002a14:    461d        .F      MOV      r5,r3
        0x00002a16:    4601        .F      MOV      r1,r0
        0x00002a18:    910d        ..      STR      r1,[sp,#0x34]
        0x00002a1a:    f003fdea    ....    BL       __aeabi_i2d ; 0x65f2
        0x00002a1e:    ed9f0b7c    ..|.    VLDR     d0,[pc,#496] ; [0x2c10] = 0x54442eea
        0x00002a22:    ec532b10    S..+    VMOV     r2,r3,d0
        0x00002a26:    920e        ..      STR      r2,[sp,#0x38]
        0x00002a28:    9310        ..      STR      r3,[sp,#0x40]
        0x00002a2a:    f003fe53    ..S.    BL       __aeabi_dmul ; 0x66d4
        0x00002a2e:    4652        RF      MOV      r2,r10
        0x00002a30:    464b        KF      MOV      r3,r9
        0x00002a32:    f003fe4f    ..O.    BL       __aeabi_dmul ; 0x66d4
        0x00002a36:    ec410b10    A...    VMOV     d0,r0,r1
        0x00002a3a:    f002f9d9    ....    BL       __hardfp_cos ; 0x4df0
        0x00002a3e:    980f        ..      LDR      r0,[sp,#0x3c]
        0x00002a40:    990a        ..      LDR      r1,[sp,#0x28]
        0x00002a42:    ec532b10    S..+    VMOV     r2,r3,d0
        0x00002a46:    f003ff4f    ..O.    BL       __aeabi_dsub ; 0x68e8
        0x00002a4a:    ed9f0b73    ..s.    VLDR     d0,[pc,#460] ; [0x2c18] = 0
        0x00002a4e:    ec567b10    V..{    VMOV     r7,r6,d0
        0x00002a52:    463a        :F      MOV      r2,r7
        0x00002a54:    4633        3F      MOV      r3,r6
        0x00002a56:    f003fe3d    ..=.    BL       __aeabi_dmul ; 0x66d4
        0x00002a5a:    f003fb3b    ..;.    BL       __aeabi_d2f ; 0x60d4
        0x00002a5e:    4629        )F      MOV      r1,r5
        0x00002a60:    9d01        ..      LDR      r5,[sp,#4]
        0x00002a62:    9a05        ..      LDR      r2,[sp,#0x14]
        0x00002a64:    f84b0028    K.(.    STR      r0,[r11,r8,LSL #2]
        0x00002a68:    2901        .)      CMP      r1,#1
        0x00002a6a:    d047        G.      BEQ      0x2afc ; HanningWindow + 1188
        0x00002a6c:    f1080002    ....    ADD      r0,r8,#2
        0x00002a70:    9100        ..      STR      r1,[sp,#0]
        0x00002a72:    4602        .F      MOV      r2,r0
        0x00002a74:    920c        ..      STR      r2,[sp,#0x30]
        0x00002a76:    f003fdbc    ....    BL       __aeabi_i2d ; 0x65f2
        0x00002a7a:    9a0e        ..      LDR      r2,[sp,#0x38]
        0x00002a7c:    9b10        ..      LDR      r3,[sp,#0x40]
        0x00002a7e:    f003fe29    ..).    BL       __aeabi_dmul ; 0x66d4
        0x00002a82:    4652        RF      MOV      r2,r10
        0x00002a84:    464b        KF      MOV      r3,r9
        0x00002a86:    f003fe25    ..%.    BL       __aeabi_dmul ; 0x66d4
        0x00002a8a:    ec410b10    A...    VMOV     d0,r0,r1
        0x00002a8e:    f002f9af    ....    BL       __hardfp_cos ; 0x4df0
        0x00002a92:    980f        ..      LDR      r0,[sp,#0x3c]
        0x00002a94:    990a        ..      LDR      r1,[sp,#0x28]
        0x00002a96:    ec532b10    S..+    VMOV     r2,r3,d0
        0x00002a9a:    f003ff25    ..%.    BL       __aeabi_dsub ; 0x68e8
        0x00002a9e:    463a        :F      MOV      r2,r7
        0x00002aa0:    4633        3F      MOV      r3,r6
        0x00002aa2:    f003fe17    ....    BL       __aeabi_dmul ; 0x66d4
        0x00002aa6:    f003fb15    ....    BL       __aeabi_d2f ; 0x60d4
        0x00002aaa:    990d        ..      LDR      r1,[sp,#0x34]
        0x00002aac:    9d01        ..      LDR      r5,[sp,#4]
        0x00002aae:    9a05        ..      LDR      r2,[sp,#0x14]
        0x00002ab0:    f84b0021    K.!.    STR      r0,[r11,r1,LSL #2]
        0x00002ab4:    9800        ..      LDR      r0,[sp,#0]
        0x00002ab6:    2802        .(      CMP      r0,#2
        0x00002ab8:    d020         .      BEQ      0x2afc ; HanningWindow + 1188
        0x00002aba:    f1080003    ....    ADD      r0,r8,#3
        0x00002abe:    f003fd98    ....    BL       __aeabi_i2d ; 0x65f2
        0x00002ac2:    9a0e        ..      LDR      r2,[sp,#0x38]
        0x00002ac4:    9b10        ..      LDR      r3,[sp,#0x40]
        0x00002ac6:    f003fe05    ....    BL       __aeabi_dmul ; 0x66d4
        0x00002aca:    4652        RF      MOV      r2,r10
        0x00002acc:    464b        KF      MOV      r3,r9
        0x00002ace:    f003fe01    ....    BL       __aeabi_dmul ; 0x66d4
        0x00002ad2:    ec410b10    A...    VMOV     d0,r0,r1
        0x00002ad6:    f002f98b    ....    BL       __hardfp_cos ; 0x4df0
        0x00002ada:    980f        ..      LDR      r0,[sp,#0x3c]
        0x00002adc:    990a        ..      LDR      r1,[sp,#0x28]
        0x00002ade:    ec532b10    S..+    VMOV     r2,r3,d0
        0x00002ae2:    f003ff01    ....    BL       __aeabi_dsub ; 0x68e8
        0x00002ae6:    463a        :F      MOV      r2,r7
        0x00002ae8:    4633        3F      MOV      r3,r6
        0x00002aea:    f003fdf3    ....    BL       __aeabi_dmul ; 0x66d4
        0x00002aee:    f003faf1    ....    BL       __aeabi_d2f ; 0x60d4
        0x00002af2:    990c        ..      LDR      r1,[sp,#0x30]
        0x00002af4:    9d01        ..      LDR      r5,[sp,#4]
        0x00002af6:    9a05        ..      LDR      r2,[sp,#0x14]
        0x00002af8:    f84b0021    K.!.    STR      r0,[r11,r1,LSL #2]
        0x00002afc:    4295        .B      CMP      r5,r2
        0x00002afe:    da5f        _.      BGE      0x2bc0 ; HanningWindow + 1384
        0x00002b00:    9803        ..      LDR      r0,[sp,#0xc]
        0x00002b02:    4420         D      ADD      r0,r0,r4
        0x00002b04:    1e41        A.      SUBS     r1,r0,#1
        0x00002b06:    1b42        B.      SUBS     r2,r0,r5
        0x00002b08:    1b49        I.      SUBS     r1,r1,r5
        0x00002b0a:    f0120303    ....    ANDS     r3,r2,#3
        0x00002b0e:    d032        2.      BEQ      0x2b76 ; HanningWindow + 1310
        0x00002b10:    1e6a        j.      SUBS     r2,r5,#1
        0x00002b12:    2b01        .+      CMP      r3,#1
        0x00002b14:    f85b7022    [."p    LDR      r7,[r11,r2,LSL #2]
        0x00002b18:    f84b7025    K.%p    STR      r7,[r11,r5,LSL #2]
        0x00002b1c:    f1050701    ....    ADD      r7,r5,#1
        0x00002b20:    d008        ..      BEQ      0x2b34 ; HanningWindow + 1244
        0x00002b22:    1eaa        ..      SUBS     r2,r5,#2
        0x00002b24:    2b02        .+      CMP      r3,#2
        0x00002b26:    f85b6022    [."`    LDR      r6,[r11,r2,LSL #2]
        0x00002b2a:    f84b6027    K.'`    STR      r6,[r11,r7,LSL #2]
        0x00002b2e:    f1050702    ....    ADD      r7,r5,#2
        0x00002b32:    d124        $.      BNE      0x2b7e ; HanningWindow + 1318
        0x00002b34:    463d        =F      MOV      r5,r7
        0x00002b36:    2903        .)      CMP      r1,#3
        0x00002b38:    d229        ).      BCS      0x2b8e ; HanningWindow + 1334
        0x00002b3a:    e041        A.      B        0x2bc0 ; HanningWindow + 1384
        0x00002b3c:    462a        *F      MOV      r2,r5
        0x00002b3e:    2903        .)      CMP      r1,#3
        0x00002b40:    d33e        >.      BCC      0x2bc0 ; HanningWindow + 1384
        0x00002b42:    eb0b0183    ....    ADD      r1,r11,r3,LSL #2
        0x00002b46:    1a80        ..      SUBS     r0,r0,r2
        0x00002b48:    eb0b0282    ....    ADD      r2,r11,r2,LSL #2
        0x00002b4c:    3904        .9      SUBS     r1,#4
        0x00002b4e:    3208        .2      ADDS     r2,r2,#8
        0x00002b50:    684b        Kh      LDR      r3,[r1,#4]
        0x00002b52:    3804        .8      SUBS     r0,#4
        0x00002b54:    f8423c08    B..<    STR      r3,[r2,#-8]
        0x00002b58:    680b        .h      LDR      r3,[r1,#0]
        0x00002b5a:    f8423c04    B..<    STR      r3,[r2,#-4]
        0x00002b5e:    f8513c04    Q..<    LDR      r3,[r1,#-4]
        0x00002b62:    6013        .`      STR      r3,[r2,#0]
        0x00002b64:    f8513c08    Q..<    LDR      r3,[r1,#-8]
        0x00002b68:    f1a10110    ....    SUB      r1,r1,#0x10
        0x00002b6c:    6053        S`      STR      r3,[r2,#4]
        0x00002b6e:    f1020210    ....    ADD      r2,r2,#0x10
        0x00002b72:    d1ed        ..      BNE      0x2b50 ; HanningWindow + 1272
        0x00002b74:    e024        $.      B        0x2bc0 ; HanningWindow + 1384
        0x00002b76:    462a        *F      MOV      r2,r5
        0x00002b78:    2903        .)      CMP      r1,#3
        0x00002b7a:    d208        ..      BCS      0x2b8e ; HanningWindow + 1334
        0x00002b7c:    e020         .      B        0x2bc0 ; HanningWindow + 1384
        0x00002b7e:    1eea        ..      SUBS     r2,r5,#3
        0x00002b80:    3503        .5      ADDS     r5,#3
        0x00002b82:    f85b3022    [."0    LDR      r3,[r11,r2,LSL #2]
        0x00002b86:    f84b3027    K.'0    STR      r3,[r11,r7,LSL #2]
        0x00002b8a:    2903        .)      CMP      r1,#3
        0x00002b8c:    d318        ..      BCC      0x2bc0 ; HanningWindow + 1384
        0x00002b8e:    eb0b0182    ....    ADD      r1,r11,r2,LSL #2
        0x00002b92:    eb0b0285    ....    ADD      r2,r11,r5,LSL #2
        0x00002b96:    1b40        @.      SUBS     r0,r0,r5
        0x00002b98:    3908        .9      SUBS     r1,r1,#8
        0x00002b9a:    3208        .2      ADDS     r2,r2,#8
        0x00002b9c:    684b        Kh      LDR      r3,[r1,#4]
        0x00002b9e:    3804        .8      SUBS     r0,#4
        0x00002ba0:    f8423c08    B..<    STR      r3,[r2,#-8]
        0x00002ba4:    680b        .h      LDR      r3,[r1,#0]
        0x00002ba6:    f8423c04    B..<    STR      r3,[r2,#-4]
        0x00002baa:    f8513c04    Q..<    LDR      r3,[r1,#-4]
        0x00002bae:    6013        .`      STR      r3,[r2,#0]
        0x00002bb0:    f8513c08    Q..<    LDR      r3,[r1,#-8]
        0x00002bb4:    f1a10110    ....    SUB      r1,r1,#0x10
        0x00002bb8:    6053        S`      STR      r3,[r2,#4]
        0x00002bba:    f1020210    ....    ADD      r2,r2,#0x10
        0x00002bbe:    d1ed        ..      BNE      0x2b9c ; HanningWindow + 1348
        0x00002bc0:    9806        ..      LDR      r0,[sp,#0x18]
        0x00002bc2:    2801        .(      CMP      r0,#1
        0x00002bc4:    d11f        ..      BNE      0x2c06 ; HanningWindow + 1454
        0x00002bc6:    2c02        .,      CMP      r4,#2
        0x00002bc8:    db1a        ..      BLT      0x2c00 ; HanningWindow + 1448
        0x00002bca:    eb0b0084    ....    ADD      r0,r11,r4,LSL #2
        0x00002bce:    3808        .8      SUBS     r0,r0,#8
        0x00002bd0:    6801        .h      LDR      r1,[r0,#0]
        0x00002bd2:    2c02        .,      CMP      r4,#2
        0x00002bd4:    6041        A`      STR      r1,[r0,#4]
        0x00002bd6:    dd13        ..      BLE      0x2c00 ; HanningWindow + 1448
        0x00002bd8:    f8501c04    P...    LDR      r1,[r0,#-4]
        0x00002bdc:    2c03        .,      CMP      r4,#3
        0x00002bde:    6001        .`      STR      r1,[r0,#0]
        0x00002be0:    d00e        ..      BEQ      0x2c00 ; HanningWindow + 1448
        0x00002be2:    f8501c08    P...    LDR      r1,[r0,#-8]
        0x00002be6:    2c05        .,      CMP      r4,#5
        0x00002be8:    f8401c04    @...    STR      r1,[r0,#-4]
        0x00002bec:    db08        ..      BLT      0x2c00 ; HanningWindow + 1448
        0x00002bee:    f8501c0c    P...    LDR      r1,[r0,#-0xc]
        0x00002bf2:    3c04        .<      SUBS     r4,#4
        0x00002bf4:    2c01        .,      CMP      r4,#1
        0x00002bf6:    f8401c08    @...    STR      r1,[r0,#-8]
        0x00002bfa:    f1a00010    ....    SUB      r0,r0,#0x10
        0x00002bfe:    d1e7        ..      BNE      0x2bd0 ; HanningWindow + 1400
        0x00002c00:    2000        .       MOVS     r0,#0
        0x00002c02:    f8cb0000    ....    STR      r0,[r11,#0]
        0x00002c06:    4658        XF      MOV      r0,r11
        0x00002c08:    b011        ..      ADD      sp,sp,#0x44
        0x00002c0a:    e8bd8ff0    ....    POP      {r4-r11,pc}
        0x00002c0e:    bf00        ..      NOP      
    $d.3
        0x00002c10:    54442eea    ..DT    DCD    1413754602
        0x00002c14:    401921fb    .!.@    DCD    1075388923
        0x00002c18:    00000000    ....    DCD    0
        0x00002c1c:    3fe00000    ...?    DCD    1071644672
    $t.10
    InitializeCosineVectorAutoShift
        0x00002c20:    e92d4ff0    -..O    PUSH     {r4-r11,lr}
        0x00002c24:    b081        ..      SUB      sp,sp,#4
        0x00002c26:    460f        .F      MOV      r7,r1
        0x00002c28:    4680        .F      MOV      r8,r0
        0x00002c2a:    ee017a10    ...z    VMOV     s2,r7
        0x00002c2e:    2f01        ./      CMP      r7,#1
        0x00002c30:    eeb81ac1    ....    VCVT.F32.S32 s2,s2
        0x00002c34:    f2c080ad    ....    BLT.W    0x2d92 ; InitializeCosineVectorAutoShift + 370
        0x00002c38:    ee801a01    ....    VDIV.F32 s2,s0,s2
        0x00002c3c:    eeb73a00    ...:    VMOV.F32 s6,#1.00000000
        0x00002c40:    ee802a81    ...*    VDIV.F32 s4,s1,s2
        0x00002c44:    ee830a00    ....    VDIV.F32 s0,s6,s0
        0x00002c48:    eebd2ac2    ...*    VCVT.S32.F32 s4,s4
        0x00002c4c:    eeb82ac2    ...*    VCVT.F32.S32 s4,s4
        0x00002c50:    ee211a02    !...    VMUL.F32 s2,s2,s4
        0x00002c54:    ee210a00    !...    VMUL.F32 s0,s2,s0
        0x00002c58:    ee100a10    ....    VMOV     r0,s0
        0x00002c5c:    f003ff2e    ....    BL       __aeabi_f2d ; 0x6abc
        0x00002c60:    ed9f0b59    ..Y.    VLDR     d0,[pc,#356] ; [0x2dc8] = 0x54442eea
        0x00002c64:    ec532b10    S..+    VMOV     r2,r3,d0
        0x00002c68:    f003fd34    ..4.    BL       __aeabi_dmul ; 0x66d4
        0x00002c6c:    4683        .F      MOV      r11,r0
        0x00002c6e:    1e78        x.      SUBS     r0,r7,#1
        0x00002c70:    460e        .F      MOV      r6,r1
        0x00002c72:    f0070903    ....    AND      r9,r7,#3
        0x00002c76:    2803        .(      CMP      r0,#3
        0x00002c78:    d204        ..      BCS      0x2c84 ; InitializeCosineVectorAutoShift + 100
        0x00002c7a:    2700        .'      MOVS     r7,#0
        0x00002c7c:    f1b90f00    ....    CMP      r9,#0
        0x00002c80:    d15a        Z.      BNE      0x2d38 ; InitializeCosineVectorAutoShift + 280
        0x00002c82:    e086        ..      B        0x2d92 ; InitializeCosineVectorAutoShift + 370
        0x00002c84:    eba70a09    ....    SUB      r10,r7,r9
        0x00002c88:    f1080508    ....    ADD      r5,r8,#8
        0x00002c8c:    2700        .'      MOVS     r7,#0
        0x00002c8e:    bf00        ..      NOP      
        0x00002c90:    4638        8F      MOV      r0,r7
        0x00002c92:    f003fcae    ....    BL       __aeabi_i2d ; 0x65f2
        0x00002c96:    4602        .F      MOV      r2,r0
        0x00002c98:    460b        .F      MOV      r3,r1
        0x00002c9a:    4658        XF      MOV      r0,r11
        0x00002c9c:    4631        1F      MOV      r1,r6
        0x00002c9e:    f003fd19    ....    BL       __aeabi_dmul ; 0x66d4
        0x00002ca2:    ec410b10    A...    VMOV     d0,r0,r1
        0x00002ca6:    f002f8a3    ....    BL       __hardfp_cos ; 0x4df0
        0x00002caa:    ec510b10    Q...    VMOV     r0,r1,d0
        0x00002cae:    f003fa11    ....    BL       __aeabi_d2f ; 0x60d4
        0x00002cb2:    4604        .F      MOV      r4,r0
        0x00002cb4:    1c78        x.      ADDS     r0,r7,#1
        0x00002cb6:    f003fc9c    ....    BL       __aeabi_i2d ; 0x65f2
        0x00002cba:    4602        .F      MOV      r2,r0
        0x00002cbc:    460b        .F      MOV      r3,r1
        0x00002cbe:    4658        XF      MOV      r0,r11
        0x00002cc0:    4631        1F      MOV      r1,r6
        0x00002cc2:    f8454c08    E..L    STR      r4,[r5,#-8]
        0x00002cc6:    f003fd05    ....    BL       __aeabi_dmul ; 0x66d4
        0x00002cca:    ec410b10    A...    VMOV     d0,r0,r1
        0x00002cce:    f002f88f    ....    BL       __hardfp_cos ; 0x4df0
        0x00002cd2:    ec510b10    Q...    VMOV     r0,r1,d0
        0x00002cd6:    f003f9fd    ....    BL       __aeabi_d2f ; 0x60d4
        0x00002cda:    4604        .F      MOV      r4,r0
        0x00002cdc:    1cb8        ..      ADDS     r0,r7,#2
        0x00002cde:    f003fc88    ....    BL       __aeabi_i2d ; 0x65f2
        0x00002ce2:    4602        .F      MOV      r2,r0
        0x00002ce4:    460b        .F      MOV      r3,r1
        0x00002ce6:    4658        XF      MOV      r0,r11
        0x00002ce8:    4631        1F      MOV      r1,r6
        0x00002cea:    f8454c04    E..L    STR      r4,[r5,#-4]
        0x00002cee:    f003fcf1    ....    BL       __aeabi_dmul ; 0x66d4
        0x00002cf2:    ec410b10    A...    VMOV     d0,r0,r1
        0x00002cf6:    f002f87b    ..{.    BL       __hardfp_cos ; 0x4df0
        0x00002cfa:    ec510b10    Q...    VMOV     r0,r1,d0
        0x00002cfe:    f003f9e9    ....    BL       __aeabi_d2f ; 0x60d4
        0x00002d02:    4604        .F      MOV      r4,r0
        0x00002d04:    1cf8        ..      ADDS     r0,r7,#3
        0x00002d06:    f003fc74    ..t.    BL       __aeabi_i2d ; 0x65f2
        0x00002d0a:    4602        .F      MOV      r2,r0
        0x00002d0c:    460b        .F      MOV      r3,r1
        0x00002d0e:    4658        XF      MOV      r0,r11
        0x00002d10:    4631        1F      MOV      r1,r6
        0x00002d12:    602c        ,`      STR      r4,[r5,#0]
        0x00002d14:    f003fcde    ....    BL       __aeabi_dmul ; 0x66d4
        0x00002d18:    ec410b10    A...    VMOV     d0,r0,r1
        0x00002d1c:    f002f868    ..h.    BL       __hardfp_cos ; 0x4df0
        0x00002d20:    ec510b10    Q...    VMOV     r0,r1,d0
        0x00002d24:    f003f9d6    ....    BL       __aeabi_d2f ; 0x60d4
        0x00002d28:    3704        .7      ADDS     r7,#4
        0x00002d2a:    6068        h`      STR      r0,[r5,#4]
        0x00002d2c:    3510        .5      ADDS     r5,r5,#0x10
        0x00002d2e:    45ba        .E      CMP      r10,r7
        0x00002d30:    d1ae        ..      BNE      0x2c90 ; InitializeCosineVectorAutoShift + 112
        0x00002d32:    f1b90f00    ....    CMP      r9,#0
        0x00002d36:    d02c        ,.      BEQ      0x2d92 ; InitializeCosineVectorAutoShift + 370
        0x00002d38:    4638        8F      MOV      r0,r7
        0x00002d3a:    f003fc5a    ..Z.    BL       __aeabi_i2d ; 0x65f2
        0x00002d3e:    4602        .F      MOV      r2,r0
        0x00002d40:    460b        .F      MOV      r3,r1
        0x00002d42:    4658        XF      MOV      r0,r11
        0x00002d44:    4631        1F      MOV      r1,r6
        0x00002d46:    f003fcc5    ....    BL       __aeabi_dmul ; 0x66d4
        0x00002d4a:    ec410b10    A...    VMOV     d0,r0,r1
        0x00002d4e:    f002f84f    ..O.    BL       __hardfp_cos ; 0x4df0
        0x00002d52:    ec510b10    Q...    VMOV     r0,r1,d0
        0x00002d56:    f003f9bd    ....    BL       __aeabi_d2f ; 0x60d4
        0x00002d5a:    f1b90f01    ....    CMP      r9,#1
        0x00002d5e:    f8480027    H.'.    STR      r0,[r8,r7,LSL #2]
        0x00002d62:    d016        ..      BEQ      0x2d92 ; InitializeCosineVectorAutoShift + 370
        0x00002d64:    1c7c        |.      ADDS     r4,r7,#1
        0x00002d66:    4620         F      MOV      r0,r4
        0x00002d68:    f003fc43    ..C.    BL       __aeabi_i2d ; 0x65f2
        0x00002d6c:    4602        .F      MOV      r2,r0
        0x00002d6e:    460b        .F      MOV      r3,r1
        0x00002d70:    4658        XF      MOV      r0,r11
        0x00002d72:    4631        1F      MOV      r1,r6
        0x00002d74:    f003fcae    ....    BL       __aeabi_dmul ; 0x66d4
        0x00002d78:    ec410b10    A...    VMOV     d0,r0,r1
        0x00002d7c:    f002f838    ..8.    BL       __hardfp_cos ; 0x4df0
        0x00002d80:    ec510b10    Q...    VMOV     r0,r1,d0
        0x00002d84:    f003f9a6    ....    BL       __aeabi_d2f ; 0x60d4
        0x00002d88:    f1b90f02    ....    CMP      r9,#2
        0x00002d8c:    f8480024    H.$.    STR      r0,[r8,r4,LSL #2]
        0x00002d90:    d102        ..      BNE      0x2d98 ; InitializeCosineVectorAutoShift + 376
        0x00002d92:    b001        ..      ADD      sp,sp,#4
        0x00002d94:    e8bd8ff0    ....    POP      {r4-r11,pc}
        0x00002d98:    1cbc        ..      ADDS     r4,r7,#2
        0x00002d9a:    4620         F      MOV      r0,r4
        0x00002d9c:    f003fc29    ..).    BL       __aeabi_i2d ; 0x65f2
        0x00002da0:    4602        .F      MOV      r2,r0
        0x00002da2:    460b        .F      MOV      r3,r1
        0x00002da4:    4658        XF      MOV      r0,r11
        0x00002da6:    4631        1F      MOV      r1,r6
        0x00002da8:    f003fc94    ....    BL       __aeabi_dmul ; 0x66d4
        0x00002dac:    ec410b10    A...    VMOV     d0,r0,r1
        0x00002db0:    f002f81e    ....    BL       __hardfp_cos ; 0x4df0
        0x00002db4:    ec510b10    Q...    VMOV     r0,r1,d0
        0x00002db8:    f003f98c    ....    BL       __aeabi_d2f ; 0x60d4
        0x00002dbc:    f8480024    H.$.    STR      r0,[r8,r4,LSL #2]
        0x00002dc0:    b001        ..      ADD      sp,sp,#4
        0x00002dc2:    e8bd8ff0    ....    POP      {r4-r11,pc}
        0x00002dc6:    bf00        ..      NOP      
    $d.11
        0x00002dc8:    54442eea    ..DT    DCD    1413754602
        0x00002dcc:    401921fb    .!.@    DCD    1075388923
    $t.0
    LowpassFilter
        0x00002dd0:    e92d43f0    -..C    PUSH     {r4-r9,lr}
        0x00002dd4:    b081        ..      SUB      sp,sp,#4
        0x00002dd6:    4605        .F      MOV      r5,r0
        0x00002dd8:    eeb72a00    ...*    VMOV.F32 s4,#1.00000000
        0x00002ddc:    ee800a80    ....    VDIV.F32 s0,s1,s0
        0x00002de0:    460e        .F      MOV      r6,r1
        0x00002de2:    2104        .!      MOVS     r1,#4
        0x00002de4:    1c68        h.      ADDS     r0,r5,#1
        0x00002de6:    ee035a10    ...Z    VMOV     s6,r5
        0x00002dea:    ee010a10    ....    VMOV     s2,r0
        0x00002dee:    1c70        p.      ADDS     r0,r6,#1
        0x00002df0:    eeb81ac1    ....    VCVT.F32.S32 s2,s2
        0x00002df4:    eb0077d0    ...w    ADD      r7,r0,r0,LSR #31
        0x00002df8:    4628        (F      MOV      r0,r5
        0x00002dfa:    ee821a01    ....    VDIV.F32 s2,s4,s2
        0x00002dfe:    eeb82ac3    ...*    VCVT.F32.S32 s4,s6
        0x00002e02:    ee300a01    0...    VADD.F32 s0,s0,s2
        0x00002e06:    ee200a02     ...    VMUL.F32 s0,s0,s4
        0x00002e0a:    eebd0ac0    ....    VCVT.S32.F32 s0,s0
        0x00002e0e:    ee109a10    ....    VMOV     r9,s0
        0x00002e12:    eba90467    ..g.    SUB      r4,r9,r7,ASR #1
        0x00002e16:    f7fdf9d5    ....    BL       calloc ; 0x1c4
        0x00002e1a:    4680        .F      MOV      r8,r0
        0x00002e1c:    0070        p.      LSLS     r0,r6,#1
        0x00002e1e:    2100        .!      MOVS     r1,#0
        0x00002e20:    f7fffc1a    ....    BL       HanningWindow ; 0x2658
        0x00002e24:    ea4f0c67    O.g.    ASR      r12,r7,#1
        0x00002e28:    2c01        .,      CMP      r4,#1
        0x00002e2a:    db2e        ..      BLT      0x2e8a ; LowpassFilter + 186
        0x00002e2c:    f1a90101    ....    SUB      r1,r9,#1
        0x00002e30:    f0040e03    ....    AND      lr,r4,#3
        0x00002e34:    eba1010c    ....    SUB      r1,r1,r12
        0x00002e38:    2903        .)      CMP      r1,#3
        0x00002e3a:    d204        ..      BCS      0x2e46 ; LowpassFilter + 118
        0x00002e3c:    2300        .#      MOVS     r3,#0
        0x00002e3e:    f1be0f00    ....    CMP      lr,#0
        0x00002e42:    d112        ..      BNE      0x2e6a ; LowpassFilter + 154
        0x00002e44:    e021        !.      B        0x2e8a ; LowpassFilter + 186
        0x00002e46:    eba4040e    ....    SUB      r4,r4,lr
        0x00002e4a:    f1080208    ....    ADD      r2,r8,#8
        0x00002e4e:    2300        .#      MOVS     r3,#0
        0x00002e50:    f04f517e    O.~Q    MOV      r1,#0x3f800000
        0x00002e54:    3304        .3      ADDS     r3,#4
        0x00002e56:    e9421102    B...    STRD     r1,r1,[r2,#-8]
        0x00002e5a:    e9c21100    ....    STRD     r1,r1,[r2,#0]
        0x00002e5e:    3210        .2      ADDS     r2,r2,#0x10
        0x00002e60:    429c        .B      CMP      r4,r3
        0x00002e62:    d1f7        ..      BNE      0x2e54 ; LowpassFilter + 132
        0x00002e64:    f1be0f00    ....    CMP      lr,#0
        0x00002e68:    d00f        ..      BEQ      0x2e8a ; LowpassFilter + 186
        0x00002e6a:    f04f517e    O.~Q    MOV      r1,#0x3f800000
        0x00002e6e:    f1be0f01    ....    CMP      lr,#1
        0x00002e72:    f8481023    H.#.    STR      r1,[r8,r3,LSL #2]
        0x00002e76:    d008        ..      BEQ      0x2e8a ; LowpassFilter + 186
        0x00002e78:    eb080283    ....    ADD      r2,r8,r3,LSL #2
        0x00002e7c:    f1be0f02    ....    CMP      lr,#2
        0x00002e80:    6051        Q`      STR      r1,[r2,#4]
        0x00002e82:    bf1c        ..      ITT      NE
        0x00002e84:    f04f517e    O.~Q    MOVNE    r1,#0x3f800000
        0x00002e88:    6091        .`      STRNE    r1,[r2,#8]
        0x00002e8a:    2e01        ..      CMP      r6,#1
        0x00002e8c:    db08        ..      BLT      0x2ea0 ; LowpassFilter + 208
        0x00002e8e:    eb000186    ....    ADD      r1,r0,r6,LSL #2
        0x00002e92:    eba9000c    ....    SUB      r0,r9,r12
        0x00002e96:    00b2        ..      LSLS     r2,r6,#2
        0x00002e98:    eb080080    ....    ADD      r0,r8,r0,LSL #2
        0x00002e9c:    f7fdfab8    ....    BL       __aeabi_memcpy4 ; 0x410
        0x00002ea0:    eb0671d6    ...q    ADD      r1,r6,r6,LSR #31
        0x00002ea4:    eba50061    ..a.    SUB      r0,r5,r1,ASR #1
        0x00002ea8:    eba00009    ....    SUB      r0,r0,r9
        0x00002eac:    42a8        .B      CMP      r0,r5
        0x00002eae:    da3e        >.      BGE      0x2f2e ; LowpassFilter + 350
        0x00002eb0:    2200        ."      MOVS     r2,#0
        0x00002eb2:    eba20161    ..a.    SUB      r1,r2,r1,ASR #1
        0x00002eb6:    f1a90201    ....    SUB      r2,r9,#1
        0x00002eba:    1a52        R.      SUBS     r2,r2,r1
        0x00002ebc:    eba90101    ....    SUB      r1,r9,r1
        0x00002ec0:    f0110303    ....    ANDS     r3,r1,#3
        0x00002ec4:    4629        )F      MOV      r1,r5
        0x00002ec6:    d014        ..      BEQ      0x2ef2 ; LowpassFilter + 290
        0x00002ec8:    f8d81000    ....    LDR      r1,[r8,#0]
        0x00002ecc:    2b01        .+      CMP      r3,#1
        0x00002ece:    f8481025    H.%.    STR      r1,[r8,r5,LSL #2]
        0x00002ed2:    f1a50101    ....    SUB      r1,r5,#1
        0x00002ed6:    d00c        ..      BEQ      0x2ef2 ; LowpassFilter + 290
        0x00002ed8:    f8d87004    ...p    LDR      r7,[r8,#4]
        0x00002edc:    2b02        .+      CMP      r3,#2
        0x00002ede:    f8487021    H.!p    STR      r7,[r8,r1,LSL #2]
        0x00002ee2:    f1a50102    ....    SUB      r1,r5,#2
        0x00002ee6:    d004        ..      BEQ      0x2ef2 ; LowpassFilter + 290
        0x00002ee8:    f8d83008    ...0    LDR      r3,[r8,#8]
        0x00002eec:    f8483021    H.!0    STR      r3,[r8,r1,LSL #2]
        0x00002ef0:    1ee9        ..      SUBS     r1,r5,#3
        0x00002ef2:    2a03        .*      CMP      r2,#3
        0x00002ef4:    d31b        ..      BCC      0x2f2e ; LowpassFilter + 350
        0x00002ef6:    2208        ."      MOVS     r2,#8
        0x00002ef8:    eb080381    ....    ADD      r3,r8,r1,LSL #2
        0x00002efc:    eb020285    ....    ADD      r2,r2,r5,LSL #2
        0x00002f00:    3b04        .;      SUBS     r3,#4
        0x00002f02:    eba20281    ....    SUB      r2,r2,r1,LSL #2
        0x00002f06:    4442        BD      ADD      r2,r2,r8
        0x00002f08:    f8527c08    R..|    LDR      r7,[r2,#-8]
        0x00002f0c:    3904        .9      SUBS     r1,#4
        0x00002f0e:    4281        .B      CMP      r1,r0
        0x00002f10:    605f        _`      STR      r7,[r3,#4]
        0x00002f12:    f8527c04    R..|    LDR      r7,[r2,#-4]
        0x00002f16:    601f        .`      STR      r7,[r3,#0]
        0x00002f18:    6817        .h      LDR      r7,[r2,#0]
        0x00002f1a:    f8437c04    C..|    STR      r7,[r3,#-4]
        0x00002f1e:    6857        Wh      LDR      r7,[r2,#4]
        0x00002f20:    f1020210    ....    ADD      r2,r2,#0x10
        0x00002f24:    f8437c08    C..|    STR      r7,[r3,#-8]
        0x00002f28:    f1a30310    ....    SUB      r3,r3,#0x10
        0x00002f2c:    dcec        ..      BGT      0x2f08 ; LowpassFilter + 312
        0x00002f2e:    4640        @F      MOV      r0,r8
        0x00002f30:    b001        ..      ADD      sp,sp,#4
        0x00002f32:    e8bd83f0    ....    POP      {r4-r9,pc}
        0x00002f36:    0000        ..      MOVS     r0,r0
    OverlapAddHanning
        0x00002f38:    e92d4ff0    -..O    PUSH     {r4-r11,lr}
        0x00002f3c:    b081        ..      SUB      sp,sp,#4
        0x00002f3e:    eeb71a00    ....    VMOV.F32 s2,#1.00000000
        0x00002f42:    4683        .F      MOV      r11,r0
        0x00002f44:    4688        .F      MOV      r8,r1
        0x00002f46:    2104        .!      MOVS     r1,#4
        0x00002f48:    4615        .F      MOV      r5,r2
        0x00002f4a:    ee310a40    1.@.    VSUB.F32 s0,s2,s0
        0x00002f4e:    ee01ba10    ....    VMOV     s2,r11
        0x00002f52:    eeb81ac1    ....    VCVT.F32.S32 s2,s2
        0x00002f56:    ee200a01     ...    VMUL.F32 s0,s0,s2
        0x00002f5a:    eebd0ac0    ....    VCVT.S32.F32 s0,s0
        0x00002f5e:    ee107a10    ...z    VMOV     r7,s0
        0x00002f62:    eb07090b    ....    ADD      r9,r7,r11
        0x00002f66:    4648        HF      MOV      r0,r9
        0x00002f68:    f7fdf92c    ..,.    BL       calloc ; 0x1c4
        0x00002f6c:    4682        .F      MOV      r10,r0
        0x00002f6e:    2f01        ./      CMP      r7,#1
        0x00002f70:    db04        ..      BLT      0x2f7c ; OverlapAddHanning + 68
        0x00002f72:    00ba        ..      LSLS     r2,r7,#2
        0x00002f74:    4650        PF      MOV      r0,r10
        0x00002f76:    4629        )F      MOV      r1,r5
        0x00002f78:    f7fdfa4a    ..J.    BL       __aeabi_memcpy4 ; 0x410
        0x00002f7c:    455f        _E      CMP      r7,r11
        0x00002f7e:    da6b        k.      BGE      0x3058 ; OverlapAddHanning + 288
        0x00002f80:    f1ab0001    ....    SUB      r0,r11,#1
        0x00002f84:    ebab0107    ....    SUB      r1,r11,r7
        0x00002f88:    1bc0        ..      SUBS     r0,r0,r7
        0x00002f8a:    f0110103    ....    ANDS     r1,r1,#3
        0x00002f8e:    d02f        /.      BEQ      0x2ff0 ; OverlapAddHanning + 184
        0x00002f90:    eb050287    ....    ADD      r2,r5,r7,LSL #2
        0x00002f94:    ed980a00    ....    VLDR     s0,[r8,#0]
        0x00002f98:    2901        .)      CMP      r1,#1
        0x00002f9a:    ed921a00    ....    VLDR     s2,[r2,#0]
        0x00002f9e:    eb0a0287    ....    ADD      r2,r10,r7,LSL #2
        0x00002fa2:    ee310a00    1...    VADD.F32 s0,s2,s0
        0x00002fa6:    ed820a00    ....    VSTR     s0,[r2,#0]
        0x00002faa:    f1070201    ....    ADD      r2,r7,#1
        0x00002fae:    d020         .      BEQ      0x2ff2 ; OverlapAddHanning + 186
        0x00002fb0:    eb050382    ....    ADD      r3,r5,r2,LSL #2
        0x00002fb4:    ed980a01    ....    VLDR     s0,[r8,#4]
        0x00002fb8:    eb0a0282    ....    ADD      r2,r10,r2,LSL #2
        0x00002fbc:    2902        .)      CMP      r1,#2
        0x00002fbe:    ed931a00    ....    VLDR     s2,[r3,#0]
        0x00002fc2:    ee310a00    1...    VADD.F32 s0,s2,s0
        0x00002fc6:    ed820a00    ....    VSTR     s0,[r2,#0]
        0x00002fca:    f1070202    ....    ADD      r2,r7,#2
        0x00002fce:    d010        ..      BEQ      0x2ff2 ; OverlapAddHanning + 186
        0x00002fd0:    eb050182    ....    ADD      r1,r5,r2,LSL #2
        0x00002fd4:    ed980a02    ....    VLDR     s0,[r8,#8]
        0x00002fd8:    ed911a00    ....    VLDR     s2,[r1,#0]
        0x00002fdc:    eb0a0182    ....    ADD      r1,r10,r2,LSL #2
        0x00002fe0:    1cfa        ..      ADDS     r2,r7,#3
        0x00002fe2:    ee310a00    1...    VADD.F32 s0,s2,s0
        0x00002fe6:    ed810a00    ....    VSTR     s0,[r1,#0]
        0x00002fea:    2803        .(      CMP      r0,#3
        0x00002fec:    d203        ..      BCS      0x2ff6 ; OverlapAddHanning + 190
        0x00002fee:    e033        3.      B        0x3058 ; OverlapAddHanning + 288
        0x00002ff0:    463a        :F      MOV      r2,r7
        0x00002ff2:    2803        .(      CMP      r0,#3
        0x00002ff4:    d330        0.      BCC      0x3058 ; OverlapAddHanning + 288
        0x00002ff6:    ebab0102    ....    SUB      r1,r11,r2
        0x00002ffa:    eba80087    ....    SUB      r0,r8,r7,LSL #2
        0x00002ffe:    0092        ..      LSLS     r2,r2,#2
        0x00003000:    4653        SF      MOV      r3,r10
        0x00003002:    bf00        ..      NOP      
        0x00003004:    18ae        ..      ADDS     r6,r5,r2
        0x00003006:    1884        ..      ADDS     r4,r0,r2
        0x00003008:    3010        .0      ADDS     r0,r0,#0x10
        0x0000300a:    3510        .5      ADDS     r5,r5,#0x10
        0x0000300c:    3904        .9      SUBS     r1,#4
        0x0000300e:    ed940a00    ....    VLDR     s0,[r4,#0]
        0x00003012:    ed964a00    ...J    VLDR     s8,[r6,#0]
        0x00003016:    ed941a01    ....    VLDR     s2,[r4,#4]
        0x0000301a:    ed965a01    ...Z    VLDR     s10,[r6,#4]
        0x0000301e:    ed942a02    ...*    VLDR     s4,[r4,#8]
        0x00003022:    ed966a02    ...j    VLDR     s12,[r6,#8]
        0x00003026:    ed967a03    ...z    VLDR     s14,[r6,#0xc]
        0x0000302a:    ed943a03    ...:    VLDR     s6,[r4,#0xc]
        0x0000302e:    eb030602    ....    ADD      r6,r3,r2
        0x00003032:    f1030310    ....    ADD      r3,r3,#0x10
        0x00003036:    ee340a00    4...    VADD.F32 s0,s8,s0
        0x0000303a:    ee351a01    5...    VADD.F32 s2,s10,s2
        0x0000303e:    ee362a02    6..*    VADD.F32 s4,s12,s4
        0x00003042:    ee373a03    7..:    VADD.F32 s6,s14,s6
        0x00003046:    ed860a00    ....    VSTR     s0,[r6,#0]
        0x0000304a:    ed861a01    ....    VSTR     s2,[r6,#4]
        0x0000304e:    ed862a02    ...*    VSTR     s4,[r6,#8]
        0x00003052:    ed863a03    ...:    VSTR     s6,[r6,#0xc]
        0x00003056:    d1d5        ..      BNE      0x3004 ; OverlapAddHanning + 204
        0x00003058:    2f01        ./      CMP      r7,#1
        0x0000305a:    db0f        ..      BLT      0x307c ; OverlapAddHanning + 324
        0x0000305c:    f10b0201    ....    ADD      r2,r11,#1
        0x00003060:    ebab0107    ....    SUB      r1,r11,r7
        0x00003064:    eb0a008b    ....    ADD      r0,r10,r11,LSL #2
        0x00003068:    4591        .E      CMP      r9,r2
        0x0000306a:    eb080181    ....    ADD      r1,r8,r1,LSL #2
        0x0000306e:    bfc8        ..      IT       GT
        0x00003070:    464a        JF      MOVGT    r2,r9
        0x00003072:    0092        ..      LSLS     r2,r2,#2
        0x00003074:    eba2028b    ....    SUB      r2,r2,r11,LSL #2
        0x00003078:    f7fdf9ca    ....    BL       __aeabi_memcpy4 ; 0x410
        0x0000307c:    4650        PF      MOV      r0,r10
        0x0000307e:    b001        ..      ADD      sp,sp,#4
        0x00003080:    e8bd8ff0    ....    POP      {r4-r11,pc}
    ProcessData_tweaked
        0x00003084:    e92d4ff0    -..O    PUSH     {r4-r11,lr}
        0x00003088:    b081        ..      SUB      sp,sp,#4
        0x0000308a:    ed2d8b06    -...    VPUSH    {d8-d10}
        0x0000308e:    b08a        ..      SUB      sp,sp,#0x28
        0x00003090:    4681        .F      MOV      r9,r0
        0x00003092:    e9dda71d    ....    LDRD     r10,r7,[sp,#0x74]
        0x00003096:    e9dd481a    ...H    LDRD     r4,r8,[sp,#0x68]
        0x0000309a:    eeb09a41    ..A.    VMOV.F32 s18,s2
        0x0000309e:    eeb0aa60    ..`.    VMOV.F32 s20,s1
        0x000030a2:    eeb08a40    ..@.    VMOV.F32 s16,s0
        0x000030a6:    9307        ..      STR      r3,[sp,#0x1c]
        0x000030a8:    f1b90f01    ....    CMP      r9,#1
        0x000030ac:    f2c080e3    ....    BLT.W    0x3276 ; ProcessData_tweaked + 498
        0x000030b0:    e9cd1403    ....    STRD     r1,r4,[sp,#0xc]
        0x000030b4:    f0090003    ....    AND      r0,r9,#3
        0x000030b8:    f04f0b00    O...    MOV      r11,#0
        0x000030bc:    9d1f        ..      LDR      r5,[sp,#0x7c]
        0x000030be:    9c1c        ..      LDR      r4,[sp,#0x70]
        0x000030c0:    e9cd9005    ....    STRD     r9,r0,[sp,#0x14]
        0x000030c4:    f1a90001    ....    SUB      r0,r9,#1
        0x000030c8:    2803        .(      CMP      r0,#3
        0x000030ca:    9002        ..      STR      r0,[sp,#8]
        0x000030cc:    d360        `.      BCC      0x3190 ; ProcessData_tweaked + 268
        0x000030ce:    e9dd0105    ....    LDRD     r0,r1,[sp,#0x14]
        0x000030d2:    f04f0b00    O...    MOV      r11,#0
        0x000030d6:    1a40        @.      SUBS     r0,r0,r1
        0x000030d8:    2100        .!      MOVS     r1,#0
        0x000030da:    9008        ..      STR      r0,[sp,#0x20]
        0x000030dc:    2000        .       MOVS     r0,#0
        0x000030de:    9209        ..      STR      r2,[sp,#0x24]
        0x000030e0:    f85a6000    Z..`    LDR      r6,[r10,r0]
        0x000030e4:    463b        ;F      MOV      r3,r7
        0x000030e6:    46d6        .F      MOV      lr,r10
        0x000030e8:    eb080a00    ....    ADD      r10,r8,r0
        0x000030ec:    46a4        .F      MOV      r12,r4
        0x000030ee:    f10b0b04    ....    ADD      r11,r11,#4
        0x000030f2:    eb0e0900    ....    ADD      r9,lr,r0
        0x000030f6:    f8486000    H..`    STR      r6,[r8,r0]
        0x000030fa:    583e        >X      LDR      r6,[r7,r0]
        0x000030fc:    1817        ..      ADDS     r7,r2,r0
        0x000030fe:    5026        &P      STR      r6,[r4,r0]
        0x00003100:    182e        ..      ADDS     r6,r5,r0
        0x00003102:    eb0c0400    ....    ADD      r4,r12,r0
        0x00003106:    ed960a00    ....    VLDR     s0,[r6,#0]
        0x0000310a:    ed971a00    ....    VLDR     s2,[r7,#0]
        0x0000310e:    ee210a00    !...    VMUL.F32 s0,s2,s0
        0x00003112:    ed890a00    ....    VSTR     s0,[r9,#0]
        0x00003116:    5019        .P      STR      r1,[r3,r0]
        0x00003118:    4641        AF      MOV      r1,r8
        0x0000311a:    f8d98004    ....    LDR      r8,[r9,#4]
        0x0000311e:    f8ca8004    ....    STR      r8,[r10,#4]
        0x00003122:    4688        .F      MOV      r8,r1
        0x00003124:    1819        ..      ADDS     r1,r3,r0
        0x00003126:    3010        .0      ADDS     r0,r0,#0x10
        0x00003128:    684a        Jh      LDR      r2,[r1,#4]
        0x0000312a:    6062        b`      STR      r2,[r4,#4]
        0x0000312c:    2200        ."      MOVS     r2,#0
        0x0000312e:    ed960a01    ....    VLDR     s0,[r6,#4]
        0x00003132:    ed971a01    ....    VLDR     s2,[r7,#4]
        0x00003136:    ee210a00    !...    VMUL.F32 s0,s2,s0
        0x0000313a:    ed890a01    ....    VSTR     s0,[r9,#4]
        0x0000313e:    604a        J`      STR      r2,[r1,#4]
        0x00003140:    f8d92008    ...     LDR      r2,[r9,#8]
        0x00003144:    f8ca2008    ...     STR      r2,[r10,#8]
        0x00003148:    688a        .h      LDR      r2,[r1,#8]
        0x0000314a:    60a2        .`      STR      r2,[r4,#8]
        0x0000314c:    2200        ."      MOVS     r2,#0
        0x0000314e:    ed960a02    ....    VLDR     s0,[r6,#8]
        0x00003152:    ed971a02    ....    VLDR     s2,[r7,#8]
        0x00003156:    ee210a00    !...    VMUL.F32 s0,s2,s0
        0x0000315a:    ed890a02    ....    VSTR     s0,[r9,#8]
        0x0000315e:    608a        .`      STR      r2,[r1,#8]
        0x00003160:    f8d9200c    ...     LDR      r2,[r9,#0xc]
        0x00003164:    f8ca200c    ...     STR      r2,[r10,#0xc]
        0x00003168:    46f2        .F      MOV      r10,lr
        0x0000316a:    68ca        .h      LDR      r2,[r1,#0xc]
        0x0000316c:    60e2        .`      STR      r2,[r4,#0xc]
        0x0000316e:    9a09        ..      LDR      r2,[sp,#0x24]
        0x00003170:    4664        dF      MOV      r4,r12
        0x00003172:    ed971a03    ....    VLDR     s2,[r7,#0xc]
        0x00003176:    ed960a03    ....    VLDR     s0,[r6,#0xc]
        0x0000317a:    461f        .F      MOV      r7,r3
        0x0000317c:    2300        .#      MOVS     r3,#0
        0x0000317e:    ee210a00    !...    VMUL.F32 s0,s2,s0
        0x00003182:    ed890a03    ....    VSTR     s0,[r9,#0xc]
        0x00003186:    60cb        .`      STR      r3,[r1,#0xc]
        0x00003188:    9b08        ..      LDR      r3,[sp,#0x20]
        0x0000318a:    2100        .!      MOVS     r1,#0
        0x0000318c:    455b        [E      CMP      r3,r11
        0x0000318e:    d1a7        ..      BNE      0x30e0 ; ProcessData_tweaked + 92
        0x00003190:    9b06        ..      LDR      r3,[sp,#0x18]
        0x00003192:    463e        >F      MOV      r6,r7
        0x00003194:    2b00        .+      CMP      r3,#0
        0x00003196:    d054        T.      BEQ      0x3242 ; ProcessData_tweaked + 446
        0x00003198:    f85a002b    Z.+.    LDR      r0,[r10,r11,LSL #2]
        0x0000319c:    eb05018b    ....    ADD      r1,r5,r11,LSL #2
        0x000031a0:    f04f0c00    O...    MOV      r12,#0
        0x000031a4:    2b01        .+      CMP      r3,#1
        0x000031a6:    f848002b    H.+.    STR      r0,[r8,r11,LSL #2]
        0x000031aa:    f856002b    V.+.    LDR      r0,[r6,r11,LSL #2]
        0x000031ae:    f844002b    D.+.    STR      r0,[r4,r11,LSL #2]
        0x000031b2:    eb02008b    ....    ADD      r0,r2,r11,LSL #2
        0x000031b6:    ed901a00    ....    VLDR     s2,[r0,#0]
        0x000031ba:    ed910a00    ....    VLDR     s0,[r1,#0]
        0x000031be:    eb0a008b    ....    ADD      r0,r10,r11,LSL #2
        0x000031c2:    ee210a00    !...    VMUL.F32 s0,s2,s0
        0x000031c6:    ed800a00    ....    VSTR     s0,[r0,#0]
        0x000031ca:    f846c02b    F.+.    STR      r12,[r6,r11,LSL #2]
        0x000031ce:    d038        8.      BEQ      0x3242 ; ProcessData_tweaked + 446
        0x000031d0:    f10b0101    ....    ADD      r1,r11,#1
        0x000031d4:    4630        0F      MOV      r0,r6
        0x000031d6:    2b02        .+      CMP      r3,#2
        0x000031d8:    f85a7021    Z.!p    LDR      r7,[r10,r1,LSL #2]
        0x000031dc:    f8487021    H.!p    STR      r7,[r8,r1,LSL #2]
        0x000031e0:    f8567021    V.!p    LDR      r7,[r6,r1,LSL #2]
        0x000031e4:    eb020681    ....    ADD      r6,r2,r1,LSL #2
        0x000031e8:    f8447021    D.!p    STR      r7,[r4,r1,LSL #2]
        0x000031ec:    eb050781    ....    ADD      r7,r5,r1,LSL #2
        0x000031f0:    ed970a00    ....    VLDR     s0,[r7,#0]
        0x000031f4:    ed961a00    ....    VLDR     s2,[r6,#0]
        0x000031f8:    4606        .F      MOV      r6,r0
        0x000031fa:    eb0a0781    ....    ADD      r7,r10,r1,LSL #2
        0x000031fe:    ee210a00    !...    VMUL.F32 s0,s2,s0
        0x00003202:    ed870a00    ....    VSTR     s0,[r7,#0]
        0x00003206:    f846c021    F.!.    STR      r12,[r6,r1,LSL #2]
        0x0000320a:    d01a        ..      BEQ      0x3242 ; ProcessData_tweaked + 446
        0x0000320c:    f10b0002    ....    ADD      r0,r11,#2
        0x00003210:    f85a1020    Z. .    LDR      r1,[r10,r0,LSL #2]
        0x00003214:    f8481020    H. .    STR      r1,[r8,r0,LSL #2]
        0x00003218:    f8561020    V. .    LDR      r1,[r6,r0,LSL #2]
        0x0000321c:    f8441020    D. .    STR      r1,[r4,r0,LSL #2]
        0x00003220:    eb020180    ....    ADD      r1,r2,r0,LSL #2
        0x00003224:    eb050280    ....    ADD      r2,r5,r0,LSL #2
        0x00003228:    ed911a00    ....    VLDR     s2,[r1,#0]
        0x0000322c:    ed920a00    ....    VLDR     s0,[r2,#0]
        0x00003230:    eb0a0180    ....    ADD      r1,r10,r0,LSL #2
        0x00003234:    ee210a00    !...    VMUL.F32 s0,s2,s0
        0x00003238:    ed810a00    ....    VSTR     s0,[r1,#0]
        0x0000323c:    2100        .!      MOVS     r1,#0
        0x0000323e:    f8461020    F. .    STR      r1,[r6,r0,LSL #2]
        0x00003242:    9c04        ..      LDR      r4,[sp,#0x10]
        0x00003244:    461d        .F      MOV      r5,r3
        0x00003246:    4650        PF      MOV      r0,r10
        0x00003248:    4631        1F      MOV      r1,r6
        0x0000324a:    9400        ..      STR      r4,[sp,#0]
        0x0000324c:    f8dd9014    ....    LDR      r9,[sp,#0x14]
        0x00003250:    9b07        ..      LDR      r3,[sp,#0x1c]
        0x00003252:    464a        JF      MOV      r2,r9
        0x00003254:    f7fff9f0    ....    BL       Fft_transform_static ; 0x2638
        0x00003258:    f8ddc00c    ....    LDR      r12,[sp,#0xc]
        0x0000325c:    f1b90f01    ....    CMP      r9,#1
        0x00003260:    4631        1F      MOV      r1,r6
        0x00003262:    f2c080a9    ....    BLT.W    0x33b8 ; ProcessData_tweaked + 820
        0x00003266:    9802        ..      LDR      r0,[sp,#8]
        0x00003268:    2803        .(      CMP      r0,#3
        0x0000326a:    d20c        ..      BCS      0x3286 ; ProcessData_tweaked + 514
        0x0000326c:    2000        .       MOVS     r0,#0
        0x0000326e:    9f06        ..      LDR      r7,[sp,#0x18]
        0x00003270:    2f00        ./      CMP      r7,#0
        0x00003272:    d159        Y.      BNE      0x3328 ; ProcessData_tweaked + 676
        0x00003274:    e0a0        ..      B        0x33b8 ; ProcessData_tweaked + 820
        0x00003276:    4650        PF      MOV      r0,r10
        0x00003278:    4639        9F      MOV      r1,r7
        0x0000327a:    464a        JF      MOV      r2,r9
        0x0000327c:    9400        ..      STR      r4,[sp,#0]
        0x0000327e:    f7fff9db    ....    BL       Fft_transform_static ; 0x2638
        0x00003282:    4639        9F      MOV      r1,r7
        0x00003284:    e098        ..      B        0x33b8 ; ProcessData_tweaked + 820
        0x00003286:    eba90505    ....    SUB      r5,r9,r5
        0x0000328a:    2200        ."      MOVS     r2,#0
        0x0000328c:    2000        .       MOVS     r0,#0
        0x0000328e:    bf00        ..      NOP      
        0x00003290:    188b        ..      ADDS     r3,r1,r2
        0x00003292:    eb0c0702    ....    ADD      r7,r12,r2
        0x00003296:    eb0a0602    ....    ADD      r6,r10,r2
        0x0000329a:    3004        .0      ADDS     r0,#4
        0x0000329c:    3210        .2      ADDS     r2,r2,#0x10
        0x0000329e:    ed970a00    ....    VLDR     s0,[r7,#0]
        0x000032a2:    ed931a00    ....    VLDR     s2,[r3,#0]
        0x000032a6:    4285        .B      CMP      r5,r0
        0x000032a8:    ee210a00    !...    VMUL.F32 s0,s2,s0
        0x000032ac:    ed830a00    ....    VSTR     s0,[r3,#0]
        0x000032b0:    ed970a00    ....    VLDR     s0,[r7,#0]
        0x000032b4:    ed961a00    ....    VLDR     s2,[r6,#0]
        0x000032b8:    ee210a00    !...    VMUL.F32 s0,s2,s0
        0x000032bc:    ed860a00    ....    VSTR     s0,[r6,#0]
        0x000032c0:    ed970a01    ....    VLDR     s0,[r7,#4]
        0x000032c4:    ed931a01    ....    VLDR     s2,[r3,#4]
        0x000032c8:    ee210a00    !...    VMUL.F32 s0,s2,s0
        0x000032cc:    ed830a01    ....    VSTR     s0,[r3,#4]
        0x000032d0:    ed970a01    ....    VLDR     s0,[r7,#4]
        0x000032d4:    ed961a01    ....    VLDR     s2,[r6,#4]
        0x000032d8:    ee210a00    !...    VMUL.F32 s0,s2,s0
        0x000032dc:    ed860a01    ....    VSTR     s0,[r6,#4]
        0x000032e0:    ed970a02    ....    VLDR     s0,[r7,#8]
        0x000032e4:    ed931a02    ....    VLDR     s2,[r3,#8]
        0x000032e8:    ee210a00    !...    VMUL.F32 s0,s2,s0
        0x000032ec:    ed830a02    ....    VSTR     s0,[r3,#8]
        0x000032f0:    ed970a02    ....    VLDR     s0,[r7,#8]
        0x000032f4:    ed961a02    ....    VLDR     s2,[r6,#8]
        0x000032f8:    ee210a00    !...    VMUL.F32 s0,s2,s0
        0x000032fc:    ed860a02    ....    VSTR     s0,[r6,#8]
        0x00003300:    ed970a03    ....    VLDR     s0,[r7,#0xc]
        0x00003304:    ed931a03    ....    VLDR     s2,[r3,#0xc]
        0x00003308:    ee210a00    !...    VMUL.F32 s0,s2,s0
        0x0000330c:    ed830a03    ....    VSTR     s0,[r3,#0xc]
        0x00003310:    ed970a03    ....    VLDR     s0,[r7,#0xc]
        0x00003314:    ed961a03    ....    VLDR     s2,[r6,#0xc]
        0x00003318:    ee210a00    !...    VMUL.F32 s0,s2,s0
        0x0000331c:    ed860a03    ....    VSTR     s0,[r6,#0xc]
        0x00003320:    d1b6        ..      BNE      0x3290 ; ProcessData_tweaked + 524
        0x00003322:    9f06        ..      LDR      r7,[sp,#0x18]
        0x00003324:    2f00        ./      CMP      r7,#0
        0x00003326:    d047        G.      BEQ      0x33b8 ; ProcessData_tweaked + 820
        0x00003328:    eb010380    ....    ADD      r3,r1,r0,LSL #2
        0x0000332c:    eb0c0280    ....    ADD      r2,r12,r0,LSL #2
        0x00003330:    2f01        ./      CMP      r7,#1
        0x00003332:    ed920a00    ....    VLDR     s0,[r2,#0]
        0x00003336:    ed931a00    ....    VLDR     s2,[r3,#0]
        0x0000333a:    ee210a00    !...    VMUL.F32 s0,s2,s0
        0x0000333e:    ed830a00    ....    VSTR     s0,[r3,#0]
        0x00003342:    eb0a0380    ....    ADD      r3,r10,r0,LSL #2
        0x00003346:    ed920a00    ....    VLDR     s0,[r2,#0]
        0x0000334a:    ed931a00    ....    VLDR     s2,[r3,#0]
        0x0000334e:    ee210a00    !...    VMUL.F32 s0,s2,s0
        0x00003352:    ed830a00    ....    VSTR     s0,[r3,#0]
        0x00003356:    d02f        /.      BEQ      0x33b8 ; ProcessData_tweaked + 820
        0x00003358:    1c46        F.      ADDS     r6,r0,#1
        0x0000335a:    2f02        ./      CMP      r7,#2
        0x0000335c:    eb010286    ....    ADD      r2,r1,r6,LSL #2
        0x00003360:    eb0c0386    ....    ADD      r3,r12,r6,LSL #2
        0x00003364:    ed930a00    ....    VLDR     s0,[r3,#0]
        0x00003368:    ed921a00    ....    VLDR     s2,[r2,#0]
        0x0000336c:    ee210a00    !...    VMUL.F32 s0,s2,s0
        0x00003370:    ed820a00    ....    VSTR     s0,[r2,#0]
        0x00003374:    eb0a0286    ....    ADD      r2,r10,r6,LSL #2
        0x00003378:    ed930a00    ....    VLDR     s0,[r3,#0]
        0x0000337c:    ed921a00    ....    VLDR     s2,[r2,#0]
        0x00003380:    ee210a00    !...    VMUL.F32 s0,s2,s0
        0x00003384:    ed820a00    ....    VSTR     s0,[r2,#0]
        0x00003388:    d016        ..      BEQ      0x33b8 ; ProcessData_tweaked + 820
        0x0000338a:    3002        .0      ADDS     r0,#2
        0x0000338c:    eb010380    ....    ADD      r3,r1,r0,LSL #2
        0x00003390:    eb0c0280    ....    ADD      r2,r12,r0,LSL #2
        0x00003394:    eb0a0080    ....    ADD      r0,r10,r0,LSL #2
        0x00003398:    ed920a00    ....    VLDR     s0,[r2,#0]
        0x0000339c:    ed931a00    ....    VLDR     s2,[r3,#0]
        0x000033a0:    ee210a00    !...    VMUL.F32 s0,s2,s0
        0x000033a4:    ed830a00    ....    VSTR     s0,[r3,#0]
        0x000033a8:    ed920a00    ....    VLDR     s0,[r2,#0]
        0x000033ac:    ed901a00    ....    VLDR     s2,[r0,#0]
        0x000033b0:    ee210a00    !...    VMUL.F32 s0,s2,s0
        0x000033b4:    ed800a00    ....    VSTR     s0,[r0,#0]
        0x000033b8:    4650        PF      MOV      r0,r10
        0x000033ba:    464a        JF      MOV      r2,r9
        0x000033bc:    eeb00a4a    ..J.    VMOV.F32 s0,s20
        0x000033c0:    eef00a49    ..I.    VMOV.F32 s1,s18
        0x000033c4:    460d        .F      MOV      r5,r1
        0x000033c6:    f7fdf9ab    ....    BL       CyclicCosineForwardShift ; 0x720
        0x000033ca:    9400        ..      STR      r4,[sp,#0]
        0x000033cc:    4650        PF      MOV      r0,r10
        0x000033ce:    4629        )F      MOV      r1,r5
        0x000033d0:    464a        JF      MOV      r2,r9
        0x000033d2:    9b07        ..      LDR      r3,[sp,#0x1c]
        0x000033d4:    f7fdfdde    ....    BL       Fft_inverseTransform_static ; 0xf94
        0x000033d8:    4648        HF      MOV      r0,r9
        0x000033da:    eeb00a48    ..H.    VMOV.F32 s0,s16
        0x000033de:    4651        QF      MOV      r1,r10
        0x000033e0:    4642        BF      MOV      r2,r8
        0x000033e2:    b00a        ..      ADD      sp,sp,#0x28
        0x000033e4:    ecbd8b06    ....    VPOP     {d8-d10}
        0x000033e8:    b001        ..      ADD      sp,sp,#4
        0x000033ea:    e8bd4ff0    ...O    POP      {r4-r11,lr}
        0x000033ee:    f7ffbda3    ....    B.W      OverlapAddHanning ; 0x2f38
        0x000033f2:    0000        ..      MOVS     r0,r0
    ReturnWindowOutputHanning
        0x000033f4:    b5f0        ..      PUSH     {r4-r7,lr}
        0x000033f6:    b081        ..      SUB      sp,sp,#4
        0x000033f8:    ed2d8b02    -...    VPUSH    {d8}
        0x000033fc:    460e        .F      MOV      r6,r1
        0x000033fe:    2104        .!      MOVS     r1,#4
        0x00003400:    4617        .F      MOV      r7,r2
        0x00003402:    eeb08a40    ..@.    VMOV.F32 s16,s0
        0x00003406:    4605        .F      MOV      r5,r0
        0x00003408:    f7fcfedc    ....    BL       calloc ; 0x1c4
        0x0000340c:    eeb70a00    ....    VMOV.F32 s0,#1.00000000
        0x00003410:    ee015a10    ...Z    VMOV     s2,r5
        0x00003414:    4604        .F      MOV      r4,r0
        0x00003416:    2f02        ./      CMP      r7,#2
        0x00003418:    ee300a48    0.H.    VSUB.F32 s0,s0,s16
        0x0000341c:    eeb81ac1    ....    VCVT.F32.S32 s2,s2
        0x00003420:    ee200a01     ...    VMUL.F32 s0,s0,s2
        0x00003424:    eebd0ac0    ....    VCVT.S32.F32 s0,s0
        0x00003428:    ee100a10    ....    VMOV     r0,s0
        0x0000342c:    d010        ..      BEQ      0x3450 ; ReturnWindowOutputHanning + 92
        0x0000342e:    2f01        ./      CMP      r7,#1
        0x00003430:    d021        !.      BEQ      0x3476 ; ReturnWindowOutputHanning + 130
        0x00003432:    bb4f        O.      CBNZ     r7,0x3488 ; ReturnWindowOutputHanning + 148
        0x00003434:    42a8        .B      CMP      r0,r5
        0x00003436:    da27        '.      BGE      0x3488 ; ReturnWindowOutputHanning + 148
        0x00003438:    eb060180    ....    ADD      r1,r6,r0,LSL #2
        0x0000343c:    1a28        (.      SUBS     r0,r5,r0
        0x0000343e:    0082        ..      LSLS     r2,r0,#2
        0x00003440:    4620         F      MOV      r0,r4
        0x00003442:    f7fcffe5    ....    BL       __aeabi_memcpy4 ; 0x410
        0x00003446:    4620         F      MOV      r0,r4
        0x00003448:    ecbd8b02    ....    VPOP     {d8}
        0x0000344c:    b001        ..      ADD      sp,sp,#4
        0x0000344e:    bdf0        ..      POP      {r4-r7,pc}
        0x00003450:    2801        .(      CMP      r0,#1
        0x00003452:    db19        ..      BLT      0x3488 ; ReturnWindowOutputHanning + 148
        0x00003454:    4428        (D      ADD      r0,r0,r5
        0x00003456:    1c6a        j.      ADDS     r2,r5,#1
        0x00003458:    eb060185    ....    ADD      r1,r6,r5,LSL #2
        0x0000345c:    4290        .B      CMP      r0,r2
        0x0000345e:    bfc8        ..      IT       GT
        0x00003460:    4602        .F      MOVGT    r2,r0
        0x00003462:    1b50        P.      SUBS     r0,r2,r5
        0x00003464:    0082        ..      LSLS     r2,r0,#2
        0x00003466:    4620         F      MOV      r0,r4
        0x00003468:    f7fcffd2    ....    BL       __aeabi_memcpy4 ; 0x410
        0x0000346c:    4620         F      MOV      r0,r4
        0x0000346e:    ecbd8b02    ....    VPOP     {d8}
        0x00003472:    b001        ..      ADD      sp,sp,#4
        0x00003474:    bdf0        ..      POP      {r4-r7,pc}
        0x00003476:    42a8        .B      CMP      r0,r5
        0x00003478:    da06        ..      BGE      0x3488 ; ReturnWindowOutputHanning + 148
        0x0000347a:    eb060180    ....    ADD      r1,r6,r0,LSL #2
        0x0000347e:    1a28        (.      SUBS     r0,r5,r0
        0x00003480:    0082        ..      LSLS     r2,r0,#2
        0x00003482:    4620         F      MOV      r0,r4
        0x00003484:    f7fcffc4    ....    BL       __aeabi_memcpy4 ; 0x410
        0x00003488:    4620         F      MOV      r0,r4
        0x0000348a:    ecbd8b02    ....    VPOP     {d8}
        0x0000348e:    b001        ..      ADD      sp,sp,#4
        0x00003490:    bdf0        ..      POP      {r4-r7,pc}
        0x00003492:    0000        ..      MOVS     r0,r0
        0x00003494:    0000        ..      MOVS     r0,r0
        0x00003496:    0000        ..      MOVS     r0,r0
    TestSetup
        0x00003498:    e92d4ff0    -..O    PUSH     {r4-r11,lr}
        0x0000349c:    b081        ..      SUB      sp,sp,#4
        0x0000349e:    ed2d8b06    -...    VPUSH    {d8-d10}
        0x000034a2:    b09c        ..      SUB      sp,sp,#0x70
        0x000034a4:    460f        .F      MOV      r7,r1
        0x000034a6:    900b        ..      STR      r0,[sp,#0x2c]
        0x000034a8:    2104        .!      MOVS     r1,#4
        0x000034aa:    4691        .F      MOV      r9,r2
        0x000034ac:    0078        x.      LSLS     r0,r7,#1
        0x000034ae:    f7fcfe89    ....    BL       calloc ; 0x1c4
        0x000034b2:    901b        ..      STR      r0,[sp,#0x6c]
        0x000034b4:    4638        8F      MOV      r0,r7
        0x000034b6:    2101        .!      MOVS     r1,#1
        0x000034b8:    f7fff8ce    ....    BL       HanningWindow ; 0x2658
        0x000034bc:    9016        ..      STR      r0,[sp,#0x58]
        0x000034be:    4638        8F      MOV      r0,r7
        0x000034c0:    2104        .!      MOVS     r1,#4
        0x000034c2:    f7fcfe7f    ....    BL       calloc ; 0x1c4
        0x000034c6:    9015        ..      STR      r0,[sp,#0x54]
        0x000034c8:    4638        8F      MOV      r0,r7
        0x000034ca:    2104        .!      MOVS     r1,#4
        0x000034cc:    f7fcfe7a    ..z.    BL       calloc ; 0x1c4
        0x000034d0:    9014        ..      STR      r0,[sp,#0x50]
        0x000034d2:    4638        8F      MOV      r0,r7
        0x000034d4:    2104        .!      MOVS     r1,#4
        0x000034d6:    f7fcfe75    ..u.    BL       calloc ; 0x1c4
        0x000034da:    9013        ..      STR      r0,[sp,#0x4c]
        0x000034dc:    4638        8F      MOV      r0,r7
        0x000034de:    2104        .!      MOVS     r1,#4
        0x000034e0:    f7fcfe70    ..p.    BL       calloc ; 0x1c4
        0x000034e4:    9012        ..      STR      r0,[sp,#0x48]
        0x000034e6:    4638        8F      MOV      r0,r7
        0x000034e8:    2104        .!      MOVS     r1,#4
        0x000034ea:    f7fcfe6b    ..k.    BL       calloc ; 0x1c4
        0x000034ee:    ed9f0aeb    ....    VLDR     s0,[pc,#940] ; [0x389c] = 0x463b8000
        0x000034f2:    eddf0aeb    ....    VLDR     s1,[pc,#940] ; [0x38a0] = 0x45bb8000
        0x000034f6:    901a        ..      STR      r0,[sp,#0x68]
        0x000034f8:    4638        8F      MOV      r0,r7
        0x000034fa:    2104        .!      MOVS     r1,#4
        0x000034fc:    f7fffc68    ..h.    BL       LowpassFilter ; 0x2dd0
        0x00003500:    9011        ..      STR      r0,[sp,#0x44]
        0x00003502:    eb0770d7    ...p    ADD      r0,r7,r7,LSR #31
        0x00003506:    2104        .!      MOVS     r1,#4
        0x00003508:    1044        D.      ASRS     r4,r0,#1
        0x0000350a:    4620         F      MOV      r0,r4
        0x0000350c:    f7fcfe5a    ..Z.    BL       calloc ; 0x1c4
        0x00003510:    9018        ..      STR      r0,[sp,#0x60]
        0x00003512:    4620         F      MOV      r0,r4
        0x00003514:    2104        .!      MOVS     r1,#4
        0x00003516:    f7fcfe55    ..U.    BL       calloc ; 0x1c4
        0x0000351a:    ee017a10    ...z    VMOV     s2,r7
        0x0000351e:    9017        ..      STR      r0,[sp,#0x5c]
        0x00003520:    eeb60a00    ....    VMOV.F32 s0,#0.50000000
        0x00003524:    2f02        ./      CMP      r7,#2
        0x00003526:    eeb81ac1    ....    VCVT.F32.S32 s2,s2
        0x0000352a:    ee210a00    !...    VMUL.F32 s0,s2,s0
        0x0000352e:    eebd9ac0    ....    VCVT.S32.F32 s18,s0
        0x00003532:    970f        ..      STR      r7,[sp,#0x3c]
        0x00003534:    f2c0815c    ..\.    BLT.W    0x37f0 ; TestSetup + 856
        0x00003538:    4638        8F      MOV      r0,r7
        0x0000353a:    f003f85a    ..Z.    BL       __aeabi_i2d ; 0x65f2
        0x0000353e:    ed9f0bda    ....    VLDR     d0,[pc,#872] ; [0x38a8] = 0
        0x00003542:    4602        .F      MOV      r2,r0
        0x00003544:    460b        .F      MOV      r3,r1
        0x00003546:    ec510b10    Q...    VMOV     r0,r1,d0
        0x0000354a:    f002fe9d    ....    BL       __aeabi_ddiv ; 0x6288
        0x0000354e:    4606        .F      MOV      r6,r0
        0x00003550:    1e60        `.      SUBS     r0,r4,#1
        0x00003552:    4688        .F      MOV      r8,r1
        0x00003554:    f0040503    ....    AND      r5,r4,#3
        0x00003558:    2803        .(      CMP      r0,#3
        0x0000355a:    d205        ..      BCS      0x3568 ; TestSetup + 208
        0x0000355c:    f04f0a00    O...    MOV      r10,#0
        0x00003560:    2d00        .-      CMP      r5,#0
        0x00003562:    f04080c4    @...    BNE.W    0x36ee ; TestSetup + 598
        0x00003566:    e143        C.      B        0x37f0 ; TestSetup + 856
        0x00003568:    1b60        `.      SUBS     r0,r4,r5
        0x0000356a:    f8cd9038    ..8.    STR      r9,[sp,#0x38]
        0x0000356e:    950c        ..      STR      r5,[sp,#0x30]
        0x00003570:    ed9f0bcf    ....    VLDR     d0,[pc,#828] ; [0x38b0] = 0x54442eea
        0x00003574:    f04f0a00    O...    MOV      r10,#0
        0x00003578:    9010        ..      STR      r0,[sp,#0x40]
        0x0000357a:    9818        ..      LDR      r0,[sp,#0x60]
        0x0000357c:    f1000708    ....    ADD      r7,r0,#8
        0x00003580:    9817        ..      LDR      r0,[sp,#0x5c]
        0x00003582:    f1000908    ....    ADD      r9,r0,#8
        0x00003586:    ec510b10    Q...    VMOV     r0,r1,d0
        0x0000358a:    9119        ..      STR      r1,[sp,#0x64]
        0x0000358c:    900d        ..      STR      r0,[sp,#0x34]
        0x0000358e:    f8ddb034    ..4.    LDR      r11,[sp,#0x34]
        0x00003592:    bf00        ..      NOP      
        0x00003594:    4650        PF      MOV      r0,r10
        0x00003596:    f003f82c    ..,.    BL       __aeabi_i2d ; 0x65f2
        0x0000359a:    9c19        ..      LDR      r4,[sp,#0x64]
        0x0000359c:    465a        ZF      MOV      r2,r11
        0x0000359e:    4623        #F      MOV      r3,r4
        0x000035a0:    f003f898    ....    BL       __aeabi_dmul ; 0x66d4
        0x000035a4:    4632        2F      MOV      r2,r6
        0x000035a6:    4643        CF      MOV      r3,r8
        0x000035a8:    f003f894    ....    BL       __aeabi_dmul ; 0x66d4
        0x000035ac:    ec410b18    A...    VMOV     d8,r0,r1
        0x000035b0:    eeb00a48    ..H.    VMOV.F32 s0,s16
        0x000035b4:    eef00a68    ..h.    VMOV.F32 s1,s17
        0x000035b8:    f001fc1a    ....    BL       __hardfp_cos ; 0x4df0
        0x000035bc:    ec510b10    Q...    VMOV     r0,r1,d0
        0x000035c0:    f002fd88    ....    BL       __aeabi_d2f ; 0x60d4
        0x000035c4:    eeb00a48    ..H.    VMOV.F32 s0,s16
        0x000035c8:    f8490c08    I...    STR      r0,[r9,#-8]
        0x000035cc:    eef00a68    ..h.    VMOV.F32 s1,s17
        0x000035d0:    f001fc72    ..r.    BL       __hardfp_sin ; 0x4eb8
        0x000035d4:    ec510b10    Q...    VMOV     r0,r1,d0
        0x000035d8:    f002fd7c    ..|.    BL       __aeabi_d2f ; 0x60d4
        0x000035dc:    4645        EF      MOV      r5,r8
        0x000035de:    4680        .F      MOV      r8,r0
        0x000035e0:    f10a0001    ....    ADD      r0,r10,#1
        0x000035e4:    f003f805    ....    BL       __aeabi_i2d ; 0x65f2
        0x000035e8:    465a        ZF      MOV      r2,r11
        0x000035ea:    4623        #F      MOV      r3,r4
        0x000035ec:    f003f872    ..r.    BL       __aeabi_dmul ; 0x66d4
        0x000035f0:    f8478c08    G...    STR      r8,[r7,#-8]
        0x000035f4:    46a8        .F      MOV      r8,r5
        0x000035f6:    4632        2F      MOV      r2,r6
        0x000035f8:    4643        CF      MOV      r3,r8
        0x000035fa:    f003f86b    ..k.    BL       __aeabi_dmul ; 0x66d4
        0x000035fe:    ec410b18    A...    VMOV     d8,r0,r1
        0x00003602:    eeb00a48    ..H.    VMOV.F32 s0,s16
        0x00003606:    eef00a68    ..h.    VMOV.F32 s1,s17
        0x0000360a:    f001fbf1    ....    BL       __hardfp_cos ; 0x4df0
        0x0000360e:    ec510b10    Q...    VMOV     r0,r1,d0
        0x00003612:    f002fd5f    .._.    BL       __aeabi_d2f ; 0x60d4
        0x00003616:    eeb00a48    ..H.    VMOV.F32 s0,s16
        0x0000361a:    f8490c04    I...    STR      r0,[r9,#-4]
        0x0000361e:    eef00a68    ..h.    VMOV.F32 s1,s17
        0x00003622:    f001fc49    ..I.    BL       __hardfp_sin ; 0x4eb8
        0x00003626:    ec510b10    Q...    VMOV     r0,r1,d0
        0x0000362a:    f002fd53    ..S.    BL       __aeabi_d2f ; 0x60d4
        0x0000362e:    4634        4F      MOV      r4,r6
        0x00003630:    4606        .F      MOV      r6,r0
        0x00003632:    f10a0002    ....    ADD      r0,r10,#2
        0x00003636:    f002ffdc    ....    BL       __aeabi_i2d ; 0x65f2
        0x0000363a:    9d19        ..      LDR      r5,[sp,#0x64]
        0x0000363c:    465a        ZF      MOV      r2,r11
        0x0000363e:    462b        +F      MOV      r3,r5
        0x00003640:    f003f848    ..H.    BL       __aeabi_dmul ; 0x66d4
        0x00003644:    4622        "F      MOV      r2,r4
        0x00003646:    4643        CF      MOV      r3,r8
        0x00003648:    f8476c04    G..l    STR      r6,[r7,#-4]
        0x0000364c:    f003f842    ..B.    BL       __aeabi_dmul ; 0x66d4
        0x00003650:    ec410b18    A...    VMOV     d8,r0,r1
        0x00003654:    eeb00a48    ..H.    VMOV.F32 s0,s16
        0x00003658:    eef00a68    ..h.    VMOV.F32 s1,s17
        0x0000365c:    f001fbc8    ....    BL       __hardfp_cos ; 0x4df0
        0x00003660:    ec510b10    Q...    VMOV     r0,r1,d0
        0x00003664:    f002fd36    ..6.    BL       __aeabi_d2f ; 0x60d4
        0x00003668:    eeb00a48    ..H.    VMOV.F32 s0,s16
        0x0000366c:    f8c90000    ....    STR      r0,[r9,#0]
        0x00003670:    eef00a68    ..h.    VMOV.F32 s1,s17
        0x00003674:    f001fc20    .. .    BL       __hardfp_sin ; 0x4eb8
        0x00003678:    ec510b10    Q...    VMOV     r0,r1,d0
        0x0000367c:    f002fd2a    ..*.    BL       __aeabi_d2f ; 0x60d4
        0x00003680:    4606        .F      MOV      r6,r0
        0x00003682:    f10a0003    ....    ADD      r0,r10,#3
        0x00003686:    f002ffb4    ....    BL       __aeabi_i2d ; 0x65f2
        0x0000368a:    465a        ZF      MOV      r2,r11
        0x0000368c:    462b        +F      MOV      r3,r5
        0x0000368e:    f003f821    ..!.    BL       __aeabi_dmul ; 0x66d4
        0x00003692:    603e        >`      STR      r6,[r7,#0]
        0x00003694:    4626        &F      MOV      r6,r4
        0x00003696:    4643        CF      MOV      r3,r8
        0x00003698:    4632        2F      MOV      r2,r6
        0x0000369a:    f003f81b    ....    BL       __aeabi_dmul ; 0x66d4
        0x0000369e:    ec410b18    A...    VMOV     d8,r0,r1
        0x000036a2:    eeb00a48    ..H.    VMOV.F32 s0,s16
        0x000036a6:    eef00a68    ..h.    VMOV.F32 s1,s17
        0x000036aa:    f001fba1    ....    BL       __hardfp_cos ; 0x4df0
        0x000036ae:    ec510b10    Q...    VMOV     r0,r1,d0
        0x000036b2:    f002fd0f    ....    BL       __aeabi_d2f ; 0x60d4
        0x000036b6:    eeb00a48    ..H.    VMOV.F32 s0,s16
        0x000036ba:    f8c90004    ....    STR      r0,[r9,#4]
        0x000036be:    eef00a68    ..h.    VMOV.F32 s1,s17
        0x000036c2:    f001fbf9    ....    BL       __hardfp_sin ; 0x4eb8
        0x000036c6:    ec510b10    Q...    VMOV     r0,r1,d0
        0x000036ca:    f002fd03    ....    BL       __aeabi_d2f ; 0x60d4
        0x000036ce:    6078        x`      STR      r0,[r7,#4]
        0x000036d0:    9810        ..      LDR      r0,[sp,#0x40]
        0x000036d2:    f10a0a04    ....    ADD      r10,r10,#4
        0x000036d6:    3710        .7      ADDS     r7,r7,#0x10
        0x000036d8:    f1090910    ....    ADD      r9,r9,#0x10
        0x000036dc:    4550        PE      CMP      r0,r10
        0x000036de:    f47faf59    ..Y.    BNE      0x3594 ; TestSetup + 252
        0x000036e2:    e9dd970e    ....    LDRD     r9,r7,[sp,#0x38]
        0x000036e6:    9d0c        ..      LDR      r5,[sp,#0x30]
        0x000036e8:    2d00        .-      CMP      r5,#0
        0x000036ea:    f0008081    ....    BEQ.W    0x37f0 ; TestSetup + 856
        0x000036ee:    4650        PF      MOV      r0,r10
        0x000036f0:    f002ff7f    ....    BL       __aeabi_i2d ; 0x65f2
        0x000036f4:    ed9f0be0    ....    VLDR     d0,[pc,#896] ; [0x3a78] = 0x54442eea
        0x000036f8:    ec53bb10    S...    VMOV     r11,r3,d0
        0x000036fc:    465a        ZF      MOV      r2,r11
        0x000036fe:    9319        ..      STR      r3,[sp,#0x64]
        0x00003700:    f002ffe8    ....    BL       __aeabi_dmul ; 0x66d4
        0x00003704:    4632        2F      MOV      r2,r6
        0x00003706:    4643        CF      MOV      r3,r8
        0x00003708:    f002ffe4    ....    BL       __aeabi_dmul ; 0x66d4
        0x0000370c:    ec410b18    A...    VMOV     d8,r0,r1
        0x00003710:    eeb00a48    ..H.    VMOV.F32 s0,s16
        0x00003714:    eef00a68    ..h.    VMOV.F32 s1,s17
        0x00003718:    f001fb6a    ..j.    BL       __hardfp_cos ; 0x4df0
        0x0000371c:    ec510b10    Q...    VMOV     r0,r1,d0
        0x00003720:    f002fcd8    ....    BL       __aeabi_d2f ; 0x60d4
        0x00003724:    9917        ..      LDR      r1,[sp,#0x5c]
        0x00003726:    eeb00a48    ..H.    VMOV.F32 s0,s16
        0x0000372a:    eef00a68    ..h.    VMOV.F32 s1,s17
        0x0000372e:    f841002a    A.*.    STR      r0,[r1,r10,LSL #2]
        0x00003732:    f001fbc1    ....    BL       __hardfp_sin ; 0x4eb8
        0x00003736:    ec510b10    Q...    VMOV     r0,r1,d0
        0x0000373a:    f002fccb    ....    BL       __aeabi_d2f ; 0x60d4
        0x0000373e:    9918        ..      LDR      r1,[sp,#0x60]
        0x00003740:    2d01        .-      CMP      r5,#1
        0x00003742:    f841002a    A.*.    STR      r0,[r1,r10,LSL #2]
        0x00003746:    d053        S.      BEQ      0x37f0 ; TestSetup + 856
        0x00003748:    f10a0401    ....    ADD      r4,r10,#1
        0x0000374c:    4620         F      MOV      r0,r4
        0x0000374e:    f002ff50    ..P.    BL       __aeabi_i2d ; 0x65f2
        0x00003752:    9b19        ..      LDR      r3,[sp,#0x64]
        0x00003754:    465a        ZF      MOV      r2,r11
        0x00003756:    f002ffbd    ....    BL       __aeabi_dmul ; 0x66d4
        0x0000375a:    4632        2F      MOV      r2,r6
        0x0000375c:    4643        CF      MOV      r3,r8
        0x0000375e:    f002ffb9    ....    BL       __aeabi_dmul ; 0x66d4
        0x00003762:    ec410b18    A...    VMOV     d8,r0,r1
        0x00003766:    eeb00a48    ..H.    VMOV.F32 s0,s16
        0x0000376a:    eef00a68    ..h.    VMOV.F32 s1,s17
        0x0000376e:    f001fb3f    ..?.    BL       __hardfp_cos ; 0x4df0
        0x00003772:    ec510b10    Q...    VMOV     r0,r1,d0
        0x00003776:    f002fcad    ....    BL       __aeabi_d2f ; 0x60d4
        0x0000377a:    9917        ..      LDR      r1,[sp,#0x5c]
        0x0000377c:    eeb00a48    ..H.    VMOV.F32 s0,s16
        0x00003780:    eef00a68    ..h.    VMOV.F32 s1,s17
        0x00003784:    f8410024    A.$.    STR      r0,[r1,r4,LSL #2]
        0x00003788:    f001fb96    ....    BL       __hardfp_sin ; 0x4eb8
        0x0000378c:    ec510b10    Q...    VMOV     r0,r1,d0
        0x00003790:    f002fca0    ....    BL       __aeabi_d2f ; 0x60d4
        0x00003794:    9918        ..      LDR      r1,[sp,#0x60]
        0x00003796:    2d02        .-      CMP      r5,#2
        0x00003798:    f8410024    A.$.    STR      r0,[r1,r4,LSL #2]
        0x0000379c:    d028        (.      BEQ      0x37f0 ; TestSetup + 856
        0x0000379e:    f10a0402    ....    ADD      r4,r10,#2
        0x000037a2:    4620         F      MOV      r0,r4
        0x000037a4:    f002ff25    ..%.    BL       __aeabi_i2d ; 0x65f2
        0x000037a8:    9b19        ..      LDR      r3,[sp,#0x64]
        0x000037aa:    465a        ZF      MOV      r2,r11
        0x000037ac:    f002ff92    ....    BL       __aeabi_dmul ; 0x66d4
        0x000037b0:    4632        2F      MOV      r2,r6
        0x000037b2:    4643        CF      MOV      r3,r8
        0x000037b4:    f002ff8e    ....    BL       __aeabi_dmul ; 0x66d4
        0x000037b8:    ec410b18    A...    VMOV     d8,r0,r1
        0x000037bc:    eeb00a48    ..H.    VMOV.F32 s0,s16
        0x000037c0:    eef00a68    ..h.    VMOV.F32 s1,s17
        0x000037c4:    f001fb14    ....    BL       __hardfp_cos ; 0x4df0
        0x000037c8:    ec510b10    Q...    VMOV     r0,r1,d0
        0x000037cc:    f002fc82    ....    BL       __aeabi_d2f ; 0x60d4
        0x000037d0:    9917        ..      LDR      r1,[sp,#0x5c]
        0x000037d2:    eeb00a48    ..H.    VMOV.F32 s0,s16
        0x000037d6:    eef00a68    ..h.    VMOV.F32 s1,s17
        0x000037da:    f8410024    A.$.    STR      r0,[r1,r4,LSL #2]
        0x000037de:    f001fb6b    ..k.    BL       __hardfp_sin ; 0x4eb8
        0x000037e2:    ec510b10    Q...    VMOV     r0,r1,d0
        0x000037e6:    f002fc75    ..u.    BL       __aeabi_d2f ; 0x60d4
        0x000037ea:    9918        ..      LDR      r1,[sp,#0x60]
        0x000037ec:    f8410024    A.$.    STR      r0,[r1,r4,LSL #2]
        0x000037f0:    4638        8F      MOV      r0,r7
        0x000037f2:    2104        .!      MOVS     r1,#4
        0x000037f4:    f7fcfce6    ....    BL       calloc ; 0x1c4
        0x000037f8:    ed9f0aa3    ....    VLDR     s0,[pc,#652] ; [0x3a88] = 0x463b8000
        0x000037fc:    eddf0aa3    ....    VLDR     s1,[pc,#652] ; [0x3a8c] = 0x43dc0000
        0x00003800:    4639        9F      MOV      r1,r7
        0x00003802:    f7fffa0d    ....    BL       InitializeCosineVectorAutoShift ; 0x2c20
        0x00003806:    f04f4040    O.@@    MOV      r0,#0xc0000000
        0x0000380a:    f002fb1f    ....    BL       am_hal_stimer_config ; 0x5e4c
        0x0000380e:    2003        .       MOVS     r0,#3
        0x00003810:    f002fb1c    ....    BL       am_hal_stimer_config ; 0x5e4c
        0x00003814:    f1b90f01    ....    CMP      r9,#1
        0x00003818:    f2c08112    ....    BLT.W    0x3a40 ; 0x3a40
        0x0000381c:    ee192a10    ...*    VMOV     r2,s18
        0x00003820:    f64644e0    F..D    MOV      r4,#0x6ce0
        0x00003824:    ed9f8a98    ....    VLDR     s16,[pc,#608] ; [0x3a88] = 0x463b8000
        0x00003828:    ed9f9a98    ....    VLDR     s18,[pc,#608] ; [0x3a8c] = 0x43dc0000
        0x0000382c:    f04f0a00    O...    MOV      r10,#0
        0x00003830:    f04f587e    O.~X    MOV      r8,#0x3f800000
        0x00003834:    eeb6aa00    ....    VMOV.F32 s20,#0.50000000
        0x00003838:    1ab8        ..      SUBS     r0,r7,r2
        0x0000383a:    f2c00400    ....    MOVT     r4,#0
        0x0000383e:    900c        ..      STR      r0,[sp,#0x30]
        0x00003840:    2801        .(      CMP      r0,#1
        0x00003842:    f04f0000    O...    MOV      r0,#0
        0x00003846:    bfb8        ..      IT       LT
        0x00003848:    2001        .       MOVLT    r0,#1
        0x0000384a:    990b        ..      LDR      r1,[sp,#0x2c]
        0x0000384c:    3901        .9      SUBS     r1,#1
        0x0000384e:    bf18        ..      IT       NE
        0x00003850:    2101        .!      MOVNE    r1,#1
        0x00003852:    2a01        .*      CMP      r2,#1
        0x00003854:    ea400001    @...    ORR      r0,r0,r1
        0x00003858:    e9cd0209    ....    STRD     r0,r2,[sp,#0x24]
        0x0000385c:    f04f0000    O...    MOV      r0,#0
        0x00003860:    bfb8        ..      IT       LT
        0x00003862:    2001        .       MOVLT    r0,#1
        0x00003864:    4308        .C      ORRS     r0,r0,r1
        0x00003866:    9007        ..      STR      r0,[sp,#0x1c]
        0x00003868:    981a        ..      LDR      r0,[sp,#0x68]
        0x0000386a:    3008        .0      ADDS     r0,r0,#8
        0x0000386c:    9008        ..      STR      r0,[sp,#0x20]
        0x0000386e:    f0070003    ....    AND      r0,r7,#3
        0x00003872:    eba70b00    ....    SUB      r11,r7,r0
        0x00003876:    9019        ..      STR      r0,[sp,#0x64]
        0x00003878:    1e78        x.      SUBS     r0,r7,#1
        0x0000387a:    900d        ..      STR      r0,[sp,#0x34]
        0x0000387c:    f1a90001    ....    SUB      r0,r9,#1
        0x00003880:    9010        ..      STR      r0,[sp,#0x40]
        0x00003882:    f8cd9038    ..8.    STR      r9,[sp,#0x38]
        0x00003886:    bf00        ..      NOP      
        0x00003888:    2f01        ./      CMP      r7,#1
        0x0000388a:    db31        1.      BLT      0x38f0 ; 0x38f0
        0x0000388c:    980d        ..      LDR      r0,[sp,#0x34]
        0x0000388e:    2803        .(      CMP      r0,#3
        0x00003890:    d212        ..      BCS      0x38b8 ; 0x38b8
        0x00003892:    2000        .       MOVS     r0,#0
        0x00003894:    9919        ..      LDR      r1,[sp,#0x64]
        0x00003896:    b9d9        ..      CBNZ     r1,0x38d0 ; 0x38d0
        0x00003898:    e02a        *.      B        0x38f0 ; 0x38f0
        0x0000389a:    bf00        ..      NOP      
    $d.10
        0x0000389c:    463b8000    ..;F    DCD    1178304512
    __arm_cp.8_8
        0x000038a0:    45bb8000    ...E    DCD    1169915904
        0x000038a4:    bf00bf00    ....    DCD    3204497152
        0x000038a8:    00000000    ....    DCD    0
        0x000038ac:    3ff00000    ...?    DCD    1072693248
        0x000038b0:    54442eea    ..DT    DCD    1413754602
        0x000038b4:    401921fb    .!.@    DCD    1075388923
    $t.11
        0x000038b8:    9908        ..      LDR      r1,[sp,#0x20]
        0x000038ba:    2000        .       MOVS     r0,#0
        0x000038bc:    3004        .0      ADDS     r0,#4
        0x000038be:    e9418802    A...    STRD     r8,r8,[r1,#-8]
        0x000038c2:    e9c18800    ....    STRD     r8,r8,[r1,#0]
        0x000038c6:    3110        .1      ADDS     r1,r1,#0x10
        0x000038c8:    4583        .E      CMP      r11,r0
        0x000038ca:    d1f7        ..      BNE      0x38bc ; 0x38bc
        0x000038cc:    9919        ..      LDR      r1,[sp,#0x64]
        0x000038ce:    b179        y.      CBZ      r1,0x38f0 ; 0x38f0
        0x000038d0:    991a        ..      LDR      r1,[sp,#0x68]
        0x000038d2:    f8418020    A. .    STR      r8,[r1,r0,LSL #2]
        0x000038d6:    9919        ..      LDR      r1,[sp,#0x64]
        0x000038d8:    2901        .)      CMP      r1,#1
        0x000038da:    d009        ..      BEQ      0x38f0 ; 0x38f0
        0x000038dc:    991a        ..      LDR      r1,[sp,#0x68]
        0x000038de:    eb010080    ....    ADD      r0,r1,r0,LSL #2
        0x000038e2:    9919        ..      LDR      r1,[sp,#0x64]
        0x000038e4:    f8c08004    ....    STR      r8,[r0,#4]
        0x000038e8:    2902        .)      CMP      r1,#2
        0x000038ea:    bf18        ..      IT       NE
        0x000038ec:    f8c08008    ....    STRNE    r8,[r0,#8]
        0x000038f0:    9817        ..      LDR      r0,[sp,#0x5c]
        0x000038f2:    eeb00a4a    ..J.    VMOV.F32 s0,s20
        0x000038f6:    eef00a48    ..H.    VMOV.F32 s1,s16
        0x000038fa:    eeb01a49    ..I.    VMOV.F32 s2,s18
        0x000038fe:    9000        ..      STR      r0,[sp,#0]
        0x00003900:    9815        ..      LDR      r0,[sp,#0x54]
        0x00003902:    9001        ..      STR      r0,[sp,#4]
        0x00003904:    9814        ..      LDR      r0,[sp,#0x50]
        0x00003906:    9002        ..      STR      r0,[sp,#8]
        0x00003908:    9813        ..      LDR      r0,[sp,#0x4c]
        0x0000390a:    9003        ..      STR      r0,[sp,#0xc]
        0x0000390c:    9812        ..      LDR      r0,[sp,#0x48]
        0x0000390e:    9004        ..      STR      r0,[sp,#0x10]
        0x00003910:    981a        ..      LDR      r0,[sp,#0x68]
        0x00003912:    9005        ..      STR      r0,[sp,#0x14]
        0x00003914:    4638        8F      MOV      r0,r7
        0x00003916:    9911        ..      LDR      r1,[sp,#0x44]
        0x00003918:    9a16        ..      LDR      r2,[sp,#0x58]
        0x0000391a:    9b18        ..      LDR      r3,[sp,#0x60]
        0x0000391c:    f7fffbb2    ....    BL       ProcessData_tweaked ; 0x3084
        0x00003920:    4606        .F      MOV      r6,r0
        0x00003922:    9810        ..      LDR      r0,[sp,#0x40]
        0x00003924:    961b        ..      STR      r6,[sp,#0x6c]
        0x00003926:    4582        .E      CMP      r10,r0
        0x00003928:    d138        8.      BNE      0x399c ; 0x399c
        0x0000392a:    4638        8F      MOV      r0,r7
        0x0000392c:    eeb00a4a    ..J.    VMOV.F32 s0,s20
        0x00003930:    4631        1F      MOV      r1,r6
        0x00003932:    2201        ."      MOVS     r2,#1
        0x00003934:    f7fffd5e    ..^.    BL       ReturnWindowOutputHanning ; 0x33f4
        0x00003938:    463d        =F      MOV      r5,r7
        0x0000393a:    4607        .F      MOV      r7,r0
        0x0000393c:    980b        ..      LDR      r0,[sp,#0x2c]
        0x0000393e:    2801        .(      CMP      r0,#1
        0x00003940:    d148        H.      BNE      0x39d4 ; 0x39d4
        0x00003942:    980c        ..      LDR      r0,[sp,#0x30]
        0x00003944:    2801        .(      CMP      r0,#1
        0x00003946:    db0d        ..      BLT      0x3964 ; 0x3964
        0x00003948:    f8dd9030    ..0.    LDR      r9,[sp,#0x30]
        0x0000394c:    f8570b04    W...    LDR      r0,[r7],#4
        0x00003950:    f003f8b4    ....    BL       __aeabi_f2d ; 0x6abc
        0x00003954:    4602        .F      MOV      r2,r0
        0x00003956:    4620         F      MOV      r0,r4
        0x00003958:    460b        .F      MOV      r3,r1
        0x0000395a:    f000f8fb    ....    BL       am_util_stdio_printf ; 0x3b54
        0x0000395e:    f1b90901    ....    SUBS     r9,r9,#1
        0x00003962:    d1f3        ..      BNE      0x394c ; 0x394c
        0x00003964:    9f0f        ..      LDR      r7,[sp,#0x3c]
        0x00003966:    991b        ..      LDR      r1,[sp,#0x6c]
        0x00003968:    eeb00a4a    ..J.    VMOV.F32 s0,s20
        0x0000396c:    2202        ."      MOVS     r2,#2
        0x0000396e:    4638        8F      MOV      r0,r7
        0x00003970:    f7fffd40    ..@.    BL       ReturnWindowOutputHanning ; 0x33f4
        0x00003974:    4606        .F      MOV      r6,r0
        0x00003976:    980a        ..      LDR      r0,[sp,#0x28]
        0x00003978:    2801        .(      CMP      r0,#1
        0x0000397a:    db55        U.      BLT      0x3a28 ; 0x3a28
        0x0000397c:    4605        .F      MOV      r5,r0
        0x0000397e:    4637        7F      MOV      r7,r6
        0x00003980:    f8570b04    W...    LDR      r0,[r7],#4
        0x00003984:    f003f89a    ....    BL       __aeabi_f2d ; 0x6abc
        0x00003988:    4602        .F      MOV      r2,r0
        0x0000398a:    4620         F      MOV      r0,r4
        0x0000398c:    460b        .F      MOV      r3,r1
        0x0000398e:    f000f8e1    ....    BL       am_util_stdio_printf ; 0x3b54
        0x00003992:    3d01        .=      SUBS     r5,#1
        0x00003994:    d1f4        ..      BNE      0x3980 ; 0x3980
        0x00003996:    e9dd970e    ....    LDRD     r9,r7,[sp,#0x38]
        0x0000399a:    e047        G.      B        0x3a2c ; 0x3a2c
        0x0000399c:    4638        8F      MOV      r0,r7
        0x0000399e:    eeb00a4a    ..J.    VMOV.F32 s0,s20
        0x000039a2:    4631        1F      MOV      r1,r6
        0x000039a4:    f1ba0f00    ....    CMP      r10,#0
        0x000039a8:    d01e        ..      BEQ      0x39e8 ; 0x39e8
        0x000039aa:    2201        ."      MOVS     r2,#1
        0x000039ac:    f7fffd22    ..".    BL       ReturnWindowOutputHanning ; 0x33f4
        0x000039b0:    4681        .F      MOV      r9,r0
        0x000039b2:    9809        ..      LDR      r0,[sp,#0x24]
        0x000039b4:    bb60        `.      CBNZ     r0,0x3a10 ; 0x3a10
        0x000039b6:    9d0c        ..      LDR      r5,[sp,#0x30]
        0x000039b8:    464f        OF      MOV      r7,r9
        0x000039ba:    bf00        ..      NOP      
        0x000039bc:    f8570b04    W...    LDR      r0,[r7],#4
        0x000039c0:    f003f87c    ..|.    BL       __aeabi_f2d ; 0x6abc
        0x000039c4:    4602        .F      MOV      r2,r0
        0x000039c6:    4620         F      MOV      r0,r4
        0x000039c8:    460b        .F      MOV      r3,r1
        0x000039ca:    f000f8c3    ....    BL       am_util_stdio_printf ; 0x3b54
        0x000039ce:    3d01        .=      SUBS     r5,#1
        0x000039d0:    d1f4        ..      BNE      0x39bc ; 0x39bc
        0x000039d2:    e01d        ..      B        0x3a10 ; 0x3a10
        0x000039d4:    4628        (F      MOV      r0,r5
        0x000039d6:    eeb00a4a    ..J.    VMOV.F32 s0,s20
        0x000039da:    4631        1F      MOV      r1,r6
        0x000039dc:    2202        ."      MOVS     r2,#2
        0x000039de:    f7fffd09    ....    BL       ReturnWindowOutputHanning ; 0x33f4
        0x000039e2:    4606        .F      MOV      r6,r0
        0x000039e4:    462f        /F      MOV      r7,r5
        0x000039e6:    e021        !.      B        0x3a2c ; 0x3a2c
        0x000039e8:    2200        ."      MOVS     r2,#0
        0x000039ea:    f7fffd03    ....    BL       ReturnWindowOutputHanning ; 0x33f4
        0x000039ee:    4681        .F      MOV      r9,r0
        0x000039f0:    9807        ..      LDR      r0,[sp,#0x1c]
        0x000039f2:    b968        h.      CBNZ     r0,0x3a10 ; 0x3a10
        0x000039f4:    9d0a        ..      LDR      r5,[sp,#0x28]
        0x000039f6:    464f        OF      MOV      r7,r9
        0x000039f8:    f8570b04    W...    LDR      r0,[r7],#4
        0x000039fc:    f003f85e    ..^.    BL       __aeabi_f2d ; 0x6abc
        0x00003a00:    4602        .F      MOV      r2,r0
        0x00003a02:    4620         F      MOV      r0,r4
        0x00003a04:    460b        .F      MOV      r3,r1
        0x00003a06:    f000f8a5    ....    BL       am_util_stdio_printf ; 0x3b54
        0x00003a0a:    3d01        .=      SUBS     r5,#1
        0x00003a0c:    d1f4        ..      BNE      0x39f8 ; 0x39f8
        0x00003a0e:    bf00        ..      NOP      
        0x00003a10:    4648        HF      MOV      r0,r9
        0x00003a12:    f7fcfc1a    ....    BL       free ; 0x24a
        0x00003a16:    e9dd970e    ....    LDRD     r9,r7,[sp,#0x38]
        0x00003a1a:    f10a0a01    ....    ADD      r10,r10,#1
        0x00003a1e:    981b        ..      LDR      r0,[sp,#0x6c]
        0x00003a20:    45ca        .E      CMP      r10,r9
        0x00003a22:    f47faf31    ..1.    BNE      0x3888 ; TestSetup + 1008
        0x00003a26:    e00c        ..      B        0x3a42 ; 0x3a42
        0x00003a28:    f8dd9038    ..8.    LDR      r9,[sp,#0x38]
        0x00003a2c:    4630        0F      MOV      r0,r6
        0x00003a2e:    f7fcfc0c    ....    BL       free ; 0x24a
        0x00003a32:    f10a0a01    ....    ADD      r10,r10,#1
        0x00003a36:    981b        ..      LDR      r0,[sp,#0x6c]
        0x00003a38:    45ca        .E      CMP      r10,r9
        0x00003a3a:    f47faf25    ..%.    BNE      0x3888 ; TestSetup + 1008
        0x00003a3e:    e000        ..      B        0x3a42 ; 0x3a42
        0x00003a40:    981b        ..      LDR      r0,[sp,#0x6c]
        0x00003a42:    f7fcfc02    ....    BL       free ; 0x24a
        0x00003a46:    f002fa23    ..#.    BL       am_hal_stimer_counter_get ; 0x5e90
        0x00003a4a:    f002fde9    ....    BL       __aeabi_ui2d ; 0x6620
        0x00003a4e:    ed9f0b0c    ....    VLDR     d0,[pc,#48] ; [0x3a80] = 0
        0x00003a52:    ec532b10    S..+    VMOV     r2,r3,d0
        0x00003a56:    f002fe3d    ..=.    BL       __aeabi_dmul ; 0x66d4
        0x00003a5a:    f002fd9d    ....    BL       __aeabi_d2uiz ; 0x6598
        0x00003a5e:    4601        .F      MOV      r1,r0
        0x00003a60:    a00b        ..      ADR      r0,{pc}+0x30 ; 0x3a90
        0x00003a62:    b01c        ..      ADD      sp,sp,#0x70
        0x00003a64:    ecbd8b06    ....    VPOP     {d8-d10}
        0x00003a68:    b001        ..      ADD      sp,sp,#4
        0x00003a6a:    e8bd4ff0    ...O    POP      {r4-r11,lr}
        0x00003a6e:    f000b871    ..q.    B.W      am_util_stdio_printf ; 0x3b54
        0x00003a72:    bf00        ..      NOP      
        0x00003a74:    bf00        ..      NOP      
        0x00003a76:    bf00        ..      NOP      
    $d.12
        0x00003a78:    54442eea    ..DT    DCD    1413754602
        0x00003a7c:    401921fb    .!.@    DCD    1075388923
        0x00003a80:    00000000    ....    DCD    0
        0x00003a84:    3f9f4000    .@.?    DCD    1067401216
        0x00003a88:    463b8000    ..;F    DCD    1178304512
        0x00003a8c:    43dc0000    ...C    DCD    1138491392
        0x00003a90:    6d207525    %u m    DCD    1830843685
        0x00003a94:    00000a73    s...    DCD    2675
    $t.0
    am_fault_isr
        0x00003a98:    b580        ..      PUSH     {r7,lr}
        0x00003a9a:    4668        hF      MOV      r0,sp
        0x00003a9c:    3008        .0      ADDS     r0,r0,#8
        0x00003a9e:    f000f801    ....    BL       am_util_faultisr_collect_data ; 0x3aa4
        0x00003aa2:    bd01        ..      POP      {r0,pc}
    am_util_faultisr_collect_data
        0x00003aa4:    b510        ..      PUSH     {r4,lr}
        0x00003aa6:    b092        ..      SUB      sp,sp,#0x48
        0x00003aa8:    4604        .F      MOV      r4,r0
        0x00003aaa:    2000        .       MOVS     r0,#0
        0x00003aac:    e9cd0004    ....    STRD     r0,r0,[sp,#0x10]
        0x00003ab0:    e9cd0002    ....    STRD     r0,r0,[sp,#8]
        0x00003ab4:    e9cd0000    ....    STRD     r0,r0,[sp,#0]
        0x00003ab8:    9007        ..      STR      r0,[sp,#0x1c]
        0x00003aba:    f64e5028    N.(P    MOV      r0,#0xed28
        0x00003abe:    f2ce0000    ....    MOVT     r0,#0xe000
        0x00003ac2:    6801        .h      LDR      r1,[r0,#0]
        0x00003ac4:    9107        ..      STR      r1,[sp,#0x1c]
        0x00003ac6:    9907        ..      LDR      r1,[sp,#0x1c]
        0x00003ac8:    f88d101b    ....    STRB     r1,[sp,#0x1b]
        0x00003acc:    9907        ..      LDR      r1,[sp,#0x1c]
        0x00003ace:    0a09        ..      LSRS     r1,r1,#8
        0x00003ad0:    f88d101a    ....    STRB     r1,[sp,#0x1a]
        0x00003ad4:    9907        ..      LDR      r1,[sp,#0x1c]
        0x00003ad6:    0c09        ..      LSRS     r1,r1,#16
        0x00003ad8:    f8ad1018    ....    STRH     r1,[sp,#0x18]
        0x00003adc:    6900        .i      LDR      r0,[r0,#0x10]
        0x00003ade:    9008        ..      STR      r0,[sp,#0x20]
        0x00003ae0:    f89d001a    ....    LDRB     r0,[sp,#0x1a]
        0x00003ae4:    f0100f02    ....    TST      r0,#2
        0x00003ae8:    d102        ..      BNE      0x3af0 ; am_util_faultisr_collect_data + 76
        0x00003aea:    f04f30ff    O..0    MOV      r0,#0xffffffff
        0x00003aee:    e003        ..      B        0x3af8 ; am_util_faultisr_collect_data + 84
        0x00003af0:    2006        .       MOVS     r0,#6
        0x00003af2:    4621        !F      MOV      r1,r4
        0x00003af4:    f001f91e    ....    BL       getStackedReg ; 0x4d34
        0x00003af8:    9009        ..      STR      r0,[sp,#0x24]
        0x00003afa:    2000        .       MOVS     r0,#0
        0x00003afc:    4621        !F      MOV      r1,r4
        0x00003afe:    f001f919    ....    BL       getStackedReg ; 0x4d34
        0x00003b02:    9011        ..      STR      r0,[sp,#0x44]
        0x00003b04:    2001        .       MOVS     r0,#1
        0x00003b06:    4621        !F      MOV      r1,r4
        0x00003b08:    f001f914    ....    BL       getStackedReg ; 0x4d34
        0x00003b0c:    9010        ..      STR      r0,[sp,#0x40]
        0x00003b0e:    2002        .       MOVS     r0,#2
        0x00003b10:    4621        !F      MOV      r1,r4
        0x00003b12:    f001f90f    ....    BL       getStackedReg ; 0x4d34
        0x00003b16:    900f        ..      STR      r0,[sp,#0x3c]
        0x00003b18:    2003        .       MOVS     r0,#3
        0x00003b1a:    4621        !F      MOV      r1,r4
        0x00003b1c:    f001f90a    ....    BL       getStackedReg ; 0x4d34
        0x00003b20:    900e        ..      STR      r0,[sp,#0x38]
        0x00003b22:    2004        .       MOVS     r0,#4
        0x00003b24:    4621        !F      MOV      r1,r4
        0x00003b26:    f001f905    ....    BL       getStackedReg ; 0x4d34
        0x00003b2a:    900d        ..      STR      r0,[sp,#0x34]
        0x00003b2c:    2005        .       MOVS     r0,#5
        0x00003b2e:    4621        !F      MOV      r1,r4
        0x00003b30:    f001f900    ....    BL       getStackedReg ; 0x4d34
        0x00003b34:    900c        ..      STR      r0,[sp,#0x30]
        0x00003b36:    2006        .       MOVS     r0,#6
        0x00003b38:    4621        !F      MOV      r1,r4
        0x00003b3a:    f001f8fb    ....    BL       getStackedReg ; 0x4d34
        0x00003b3e:    900b        ..      STR      r0,[sp,#0x2c]
        0x00003b40:    2007        .       MOVS     r0,#7
        0x00003b42:    4621        !F      MOV      r1,r4
        0x00003b44:    f001f8f6    ....    BL       getStackedReg ; 0x4d34
        0x00003b48:    900a        ..      STR      r0,[sp,#0x28]
        0x00003b4a:    4668        hF      MOV      r0,sp
        0x00003b4c:    f002f824    ..$.    BL       am_hal_mcuctrl_fault_status ; 0x5b98
        0x00003b50:    e7fe        ..      B        0x3b50 ; am_util_faultisr_collect_data + 172
        0x00003b52:    0000        ..      MOVS     r0,r0
    am_util_stdio_printf
        0x00003b54:    b083        ..      SUB      sp,sp,#0xc
        0x00003b56:    b5b0        ..      PUSH     {r4,r5,r7,lr}
        0x00003b58:    b081        ..      SUB      sp,sp,#4
        0x00003b5a:    f24004d8    @...    MOVW     r4,#0xd8
        0x00003b5e:    4684        .F      MOV      r12,r0
        0x00003b60:    a805        ..      ADD      r0,sp,#0x14
        0x00003b62:    f2c10400    ....    MOVT     r4,#0x1000
        0x00003b66:    c00e        ..      STM      r0!,{r1-r3}
        0x00003b68:    aa05        ..      ADD      r2,sp,#0x14
        0x00003b6a:    4661        aF      MOV      r1,r12
        0x00003b6c:    4620         F      MOV      r0,r4
        0x00003b6e:    9200        ..      STR      r2,[sp,#0]
        0x00003b70:    f000f822    ..".    BL       am_util_stdio_vsprintf ; 0x3bb8
        0x00003b74:    4605        .F      MOV      r5,r0
        0x00003b76:    f24000d4    @...    MOVW     r0,#0xd4
        0x00003b7a:    f2c10000    ....    MOVT     r0,#0x1000
        0x00003b7e:    6801        .h      LDR      r1,[r0,#0]
        0x00003b80:    4620         F      MOV      r0,r4
        0x00003b82:    4788        .G      BLX      r1
        0x00003b84:    4628        (F      MOV      r0,r5
        0x00003b86:    b001        ..      ADD      sp,sp,#4
        0x00003b88:    e8bd40b0    ...@    POP      {r4,r5,r7,lr}
        0x00003b8c:    b003        ..      ADD      sp,sp,#0xc
        0x00003b8e:    4770        pG      BX       lr
    am_util_stdio_printf_init
        0x00003b90:    f24001d4    @...    MOVW     r1,#0xd4
        0x00003b94:    f2c10100    ....    MOVT     r1,#0x1000
        0x00003b98:    6008        .`      STR      r0,[r1,#0]
        0x00003b9a:    4770        pG      BX       lr
    am_util_stdio_terminal_clear
        0x00003b9c:    a001        ..      ADR      r0,{pc}+8 ; 0x3ba4
        0x00003b9e:    f7ffbfd9    ....    B.W      am_util_stdio_printf ; 0x3b54
        0x00003ba2:    bf00        ..      NOP      
    $d.9
        0x00003ba4:    0a0a0a0a    ....    DCD    168430090
        0x00003ba8:    0a0a0a0a    ....    DCD    168430090
        0x00003bac:    0a0a0a0a    ....    DCD    168430090
        0x00003bb0:    0a0a0a0a    ....    DCD    168430090
        0x00003bb4:    00000a0a    ....    DCD    2570
    $t.3
    am_util_stdio_vsprintf
        0x00003bb8:    e92d4ff0    -..O    PUSH     {r4-r11,lr}
        0x00003bbc:    b08f        ..      SUB      sp,sp,#0x3c
        0x00003bbe:    f2400ed0    @...    MOVW     lr,#0xd0
        0x00003bc2:    4682        .F      MOV      r10,r0
        0x00003bc4:    f10d0023    ..#.    ADD      r0,sp,#0x23
        0x00003bc8:    250d        .%      MOVS     r5,#0xd
        0x00003bca:    f04f0800    O...    MOV      r8,#0
        0x00003bce:    9206        ..      STR      r2,[sp,#0x18]
        0x00003bd0:    f1a00c02    ....    SUB      r12,r0,#2
        0x00003bd4:    f2c10e00    ....    MOVT     lr,#0x1000
        0x00003bd8:    1c48        H.      ADDS     r0,r1,#1
        0x00003bda:    f8101c01    ....    LDRB     r1,[r0,#-1]
        0x00003bde:    2900        .)      CMP      r1,#0
        0x00003be0:    f001809e    ....    BEQ.W    0x4d20 ; am_util_stdio_vsprintf + 4456
        0x00003be4:    2925        %)      CMP      r1,#0x25
        0x00003be6:    d01c        ..      BEQ      0x3c22 ; am_util_stdio_vsprintf + 106
        0x00003be8:    f1ba0f00    ....    CMP      r10,#0
        0x00003bec:    d00e        ..      BEQ      0x3c0c ; am_util_stdio_vsprintf + 84
        0x00003bee:    290a        .)      CMP      r1,#0xa
        0x00003bf0:    d109        ..      BNE      0x3c06 ; am_util_stdio_vsprintf + 78
        0x00003bf2:    f89e2000    ...     LDRB     r2,[lr,#0]
        0x00003bf6:    2a00        .*      CMP      r2,#0
        0x00003bf8:    bf1e        ..      ITTT     NE
        0x00003bfa:    f80a5b01    ...[    STRBNE   r5,[r10],#1
        0x00003bfe:    f1080801    ....    ADDNE    r8,r8,#1
        0x00003c02:    f8101c01    ....    LDRBNE   r1,[r0,#-1]
        0x00003c06:    f80a1b01    ....    STRB     r1,[r10],#1
        0x00003c0a:    e001        ..      B        0x3c10 ; am_util_stdio_vsprintf + 88
        0x00003c0c:    f04f0a00    O...    MOV      r10,#0
        0x00003c10:    3001        .0      ADDS     r0,#1
        0x00003c12:    f1080801    ....    ADD      r8,r8,#1
        0x00003c16:    f8101c01    ....    LDRB     r1,[r0,#-1]
        0x00003c1a:    2900        .)      CMP      r1,#0
        0x00003c1c:    d1e2        ..      BNE      0x3be4 ; am_util_stdio_vsprintf + 44
        0x00003c1e:    f001b87f    ....    B.W      0x4d20 ; am_util_stdio_vsprintf + 4456
        0x00003c22:    4681        .F      MOV      r9,r0
        0x00003c24:    f8cdc01c    ....    STR      r12,[sp,#0x1c]
        0x00003c28:    f819eb01    ....    LDRB     lr,[r9],#1
        0x00003c2c:    f1be0f30    ..0.    CMP      lr,#0x30
        0x00003c30:    4676        vF      MOV      r6,lr
        0x00003c32:    bf18        ..      IT       NE
        0x00003c34:    4681        .F      MOVNE    r9,r0
        0x00003c36:    464b        KF      MOV      r3,r9
        0x00003c38:    f813cb01    ....    LDRB     r12,[r3],#1
        0x00003c3c:    f1bc0f2d    ..-.    CMP      r12,#0x2d
        0x00003c40:    f1ac022d    ..-.    SUB      r2,r12,#0x2d
        0x00003c44:    bf18        ..      IT       NE
        0x00003c46:    464b        KF      MOVNE    r3,r9
        0x00003c48:    fab2f282    ....    CLZ      r2,r2
        0x00003c4c:    f1be0f30    ..0.    CMP      lr,#0x30
        0x00003c50:    7818        .x      LDRB     r0,[r3,#0]
        0x00003c52:    bf18        ..      IT       NE
        0x00003c54:    2620         &      MOVNE    r6,#0x20
        0x00003c56:    ea4f1b52    O.R.    LSR      r11,r2,#5
        0x00003c5a:    9605        ..      STR      r6,[sp,#0x14]
        0x00003c5c:    f1a00130    ..0.    SUB      r1,r0,#0x30
        0x00003c60:    b2c9        ..      UXTB     r1,r1
        0x00003c62:    2909        .)      CMP      r1,#9
        0x00003c64:    d835        5.      BHI      0x3cd2 ; am_util_stdio_vsprintf + 282
        0x00003c66:    2200        ."      MOVS     r2,#0
        0x00003c68:    465f        _F      MOV      r7,r11
        0x00003c6a:    2100        .!      MOVS     r1,#0
        0x00003c6c:    eb010181    ....    ADD      r1,r1,r1,LSL #2
        0x00003c70:    0049        I.      LSLS     r1,r1,#1
        0x00003c72:    fa51f080    Q...    UXTAB    r0,r1,r0
        0x00003c76:    f1a00130    ..0.    SUB      r1,r0,#0x30
        0x00003c7a:    1898        ..      ADDS     r0,r3,r2
        0x00003c7c:    7846        Fx      LDRB     r6,[r0,#1]
        0x00003c7e:    f1a60530    ..0.    SUB      r5,r6,#0x30
        0x00003c82:    b2ed        ..      UXTB     r5,r5
        0x00003c84:    2d0a        .-      CMP      r5,#0xa
        0x00003c86:    d226        &.      BCS      0x3cd6 ; am_util_stdio_vsprintf + 286
        0x00003c88:    eb010181    ....    ADD      r1,r1,r1,LSL #2
        0x00003c8c:    eb060141    ..A.    ADD      r1,r6,r1,LSL #1
        0x00003c90:    7886        .x      LDRB     r6,[r0,#2]
        0x00003c92:    3930        09      SUBS     r1,r1,#0x30
        0x00003c94:    f1a60530    ..0.    SUB      r5,r6,#0x30
        0x00003c98:    b2ed        ..      UXTB     r5,r5
        0x00003c9a:    2d09        .-      CMP      r5,#9
        0x00003c9c:    d81e        ..      BHI      0x3cdc ; am_util_stdio_vsprintf + 292
        0x00003c9e:    eb010181    ....    ADD      r1,r1,r1,LSL #2
        0x00003ca2:    eb060141    ..A.    ADD      r1,r6,r1,LSL #1
        0x00003ca6:    78c6        .x      LDRB     r6,[r0,#3]
        0x00003ca8:    3930        09      SUBS     r1,r1,#0x30
        0x00003caa:    f1a60530    ..0.    SUB      r5,r6,#0x30
        0x00003cae:    b2ed        ..      UXTB     r5,r5
        0x00003cb0:    2d09        .-      CMP      r5,#9
        0x00003cb2:    d816        ..      BHI      0x3ce2 ; am_util_stdio_vsprintf + 298
        0x00003cb4:    7900        .y      LDRB     r0,[r0,#4]
        0x00003cb6:    eb010181    ....    ADD      r1,r1,r1,LSL #2
        0x00003cba:    3204        .2      ADDS     r2,#4
        0x00003cbc:    3704        .7      ADDS     r7,#4
        0x00003cbe:    eb060141    ..A.    ADD      r1,r6,r1,LSL #1
        0x00003cc2:    f1a00630    ..0.    SUB      r6,r0,#0x30
        0x00003cc6:    3930        09      SUBS     r1,r1,#0x30
        0x00003cc8:    b2f6        ..      UXTB     r6,r6
        0x00003cca:    2e0a        ..      CMP      r6,#0xa
        0x00003ccc:    d3ce        ..      BCC      0x3c6c ; am_util_stdio_vsprintf + 180
        0x00003cce:    4493        .D      ADD      r11,r11,r2
        0x00003cd0:    e009        ..      B        0x3ce6 ; am_util_stdio_vsprintf + 302
        0x00003cd2:    2100        .!      MOVS     r1,#0
        0x00003cd4:    e008        ..      B        0x3ce8 ; am_util_stdio_vsprintf + 304
        0x00003cd6:    f1070b01    ....    ADD      r11,r7,#1
        0x00003cda:    e004        ..      B        0x3ce6 ; am_util_stdio_vsprintf + 302
        0x00003cdc:    f1070b02    ....    ADD      r11,r7,#2
        0x00003ce0:    e001        ..      B        0x3ce6 ; am_util_stdio_vsprintf + 302
        0x00003ce2:    f1070b03    ....    ADD      r11,r7,#3
        0x00003ce6:    9e05        ..      LDR      r6,[sp,#0x14]
        0x00003ce8:    f1bc0f2d    ..-.    CMP      r12,#0x2d
        0x00003cec:    eb09030b    ....    ADD      r3,r9,r11
        0x00003cf0:    bf08        ..      IT       EQ
        0x00003cf2:    4249        IB      RSBEQ    r1,r1,#0
        0x00003cf4:    f819200b    ...     LDRB     r2,[r9,r11]
        0x00003cf8:    4608        .F      MOV      r0,r1
        0x00003cfa:    2a73        s*      CMP      r2,#0x73
        0x00003cfc:    bf18        ..      IT       NE
        0x00003cfe:    4240        @B      RSBNE    r0,r0,#0
        0x00003d00:    2900        .)      CMP      r1,#0
        0x00003d02:    bfa8        ..      IT       GE
        0x00003d04:    4608        .F      MOVGE    r0,r1
        0x00003d06:    2a2e        .*      CMP      r2,#0x2e
        0x00003d08:    9003        ..      STR      r0,[sp,#0xc]
        0x00003d0a:    d14d        M.      BNE      0x3da8 ; am_util_stdio_vsprintf + 496
        0x00003d0c:    f813cf01    ....    LDRB     r12,[r3,#1]!
        0x00003d10:    f1bc0f2d    ..-.    CMP      r12,#0x2d
        0x00003d14:    4619        .F      MOV      r1,r3
        0x00003d16:    f1ac022d    ..-.    SUB      r2,r12,#0x2d
        0x00003d1a:    bf08        ..      IT       EQ
        0x00003d1c:    3101        .1      ADDEQ    r1,#1
        0x00003d1e:    fab2f282    ....    CLZ      r2,r2
        0x00003d22:    780f        .x      LDRB     r7,[r1,#0]
        0x00003d24:    ea4f1952    O.R.    LSR      r9,r2,#5
        0x00003d28:    f1a70030    ..0.    SUB      r0,r7,#0x30
        0x00003d2c:    b2c0        ..      UXTB     r0,r0
        0x00003d2e:    2809        .(      CMP      r0,#9
        0x00003d30:    d848        H.      BHI      0x3dc4 ; am_util_stdio_vsprintf + 524
        0x00003d32:    2200        ."      MOVS     r2,#0
        0x00003d34:    4648        HF      MOV      r0,r9
        0x00003d36:    f04f0b00    O...    MOV      r11,#0
        0x00003d3a:    bf00        ..      NOP      
        0x00003d3c:    eb0b058b    ....    ADD      r5,r11,r11,LSL #2
        0x00003d40:    006d        m.      LSLS     r5,r5,#1
        0x00003d42:    fa55f587    U...    UXTAB    r5,r5,r7
        0x00003d46:    188f        ..      ADDS     r7,r1,r2
        0x00003d48:    787e        ~x      LDRB     r6,[r7,#1]
        0x00003d4a:    f1a50b30    ..0.    SUB      r11,r5,#0x30
        0x00003d4e:    f1a60530    ..0.    SUB      r5,r6,#0x30
        0x00003d52:    b2ed        ..      UXTB     r5,r5
        0x00003d54:    2d0a        .-      CMP      r5,#0xa
        0x00003d56:    d238        8.      BCS      0x3dca ; am_util_stdio_vsprintf + 530
        0x00003d58:    eb0b048b    ....    ADD      r4,r11,r11,LSL #2
        0x00003d5c:    eb060444    ..D.    ADD      r4,r6,r4,LSL #1
        0x00003d60:    78be        .x      LDRB     r6,[r7,#2]
        0x00003d62:    f1a40b30    ..0.    SUB      r11,r4,#0x30
        0x00003d66:    f1a60430    ..0.    SUB      r4,r6,#0x30
        0x00003d6a:    b2e4        ..      UXTB     r4,r4
        0x00003d6c:    2c09        .,      CMP      r4,#9
        0x00003d6e:    d82f        /.      BHI      0x3dd0 ; am_util_stdio_vsprintf + 536
        0x00003d70:    eb0b048b    ....    ADD      r4,r11,r11,LSL #2
        0x00003d74:    eb060444    ..D.    ADD      r4,r6,r4,LSL #1
        0x00003d78:    78fe        .x      LDRB     r6,[r7,#3]
        0x00003d7a:    f1a40b30    ..0.    SUB      r11,r4,#0x30
        0x00003d7e:    f1a60430    ..0.    SUB      r4,r6,#0x30
        0x00003d82:    b2e4        ..      UXTB     r4,r4
        0x00003d84:    2c09        .,      CMP      r4,#9
        0x00003d86:    d826        &.      BHI      0x3dd6 ; am_util_stdio_vsprintf + 542
        0x00003d88:    eb0b048b    ....    ADD      r4,r11,r11,LSL #2
        0x00003d8c:    793f        ?y      LDRB     r7,[r7,#4]
        0x00003d8e:    3204        .2      ADDS     r2,#4
        0x00003d90:    3004        .0      ADDS     r0,#4
        0x00003d92:    eb060444    ..D.    ADD      r4,r6,r4,LSL #1
        0x00003d96:    f1a40b30    ..0.    SUB      r11,r4,#0x30
        0x00003d9a:    f1a70430    ..0.    SUB      r4,r7,#0x30
        0x00003d9e:    b2e4        ..      UXTB     r4,r4
        0x00003da0:    2c0a        .,      CMP      r4,#0xa
        0x00003da2:    d3cb        ..      BCC      0x3d3c ; am_util_stdio_vsprintf + 388
        0x00003da4:    4491        .D      ADD      r9,r9,r2
        0x00003da6:    e018        ..      B        0x3dda ; am_util_stdio_vsprintf + 546
        0x00003da8:    f04f0b06    O...    MOV      r11,#6
        0x00003dac:    4618        .F      MOV      r0,r3
        0x00003dae:    2a6c        l*      CMP      r2,#0x6c
        0x00003db0:    f06f0909    o...    MVN      r9,#9
        0x00003db4:    d01f        ..      BEQ      0x3df6 ; am_util_stdio_vsprintf + 574
        0x00003db6:    9004        ..      STR      r0,[sp,#0x10]
        0x00003db8:    2000        .       MOVS     r0,#0
        0x00003dba:    f1a20146    ..F.    SUB      r1,r2,#0x46
        0x00003dbe:    2932        2)      CMP      r1,#0x32
        0x00003dc0:    d92e        ..      BLS      0x3e20 ; am_util_stdio_vsprintf + 616
        0x00003dc2:    e097        ..      B        0x3ef4 ; am_util_stdio_vsprintf + 828
        0x00003dc4:    f04f0b00    O...    MOV      r11,#0
        0x00003dc8:    e008        ..      B        0x3ddc ; am_util_stdio_vsprintf + 548
        0x00003dca:    f1000901    ....    ADD      r9,r0,#1
        0x00003dce:    e004        ..      B        0x3dda ; am_util_stdio_vsprintf + 546
        0x00003dd0:    f1000902    ....    ADD      r9,r0,#2
        0x00003dd4:    e001        ..      B        0x3dda ; am_util_stdio_vsprintf + 546
        0x00003dd6:    f1000903    ....    ADD      r9,r0,#3
        0x00003dda:    9e05        ..      LDR      r6,[sp,#0x14]
        0x00003ddc:    f1bc0f2d    ..-.    CMP      r12,#0x2d
        0x00003de0:    eb030009    ....    ADD      r0,r3,r9
        0x00003de4:    bf08        ..      IT       EQ
        0x00003de6:    f1cb0b00    ....    RSBEQ    r11,r11,#0
        0x00003dea:    f8132009    ...     LDRB     r2,[r3,r9]
        0x00003dee:    2a6c        l*      CMP      r2,#0x6c
        0x00003df0:    f06f0909    o...    MVN      r9,#9
        0x00003df4:    d1df        ..      BNE      0x3db6 ; am_util_stdio_vsprintf + 510
        0x00003df6:    4601        .F      MOV      r1,r0
        0x00003df8:    f8112f01    .../    LDRB     r2,[r1,#1]!
        0x00003dfc:    2a6c        l*      CMP      r2,#0x6c
        0x00003dfe:    d108        ..      BNE      0x3e12 ; am_util_stdio_vsprintf + 602
        0x00003e00:    f8102f02    .../    LDRB     r2,[r0,#2]!
        0x00003e04:    9004        ..      STR      r0,[sp,#0x10]
        0x00003e06:    2001        .       MOVS     r0,#1
        0x00003e08:    f1a20146    ..F.    SUB      r1,r2,#0x46
        0x00003e0c:    2932        2)      CMP      r1,#0x32
        0x00003e0e:    d907        ..      BLS      0x3e20 ; am_util_stdio_vsprintf + 616
        0x00003e10:    e070        p.      B        0x3ef4 ; am_util_stdio_vsprintf + 828
        0x00003e12:    2000        .       MOVS     r0,#0
        0x00003e14:    9104        ..      STR      r1,[sp,#0x10]
        0x00003e16:    f1a20146    ..F.    SUB      r1,r2,#0x46
        0x00003e1a:    2932        2)      CMP      r1,#0x32
        0x00003e1c:    f200806a    ..j.    BHI.W    0x3ef4 ; am_util_stdio_vsprintf + 828
        0x00003e20:    f04f0c07    O...    MOV      r12,#7
        0x00003e24:    e8dff011    ....    TBH      [pc,r1,LSL #1]
    $d.4
        0x00003e28:    00660033    3.f.    DCD    6684723
        0x00003e2c:    00660066    f.f.    DCD    6684774
        0x00003e30:    00660066    f.f.    DCD    6684774
        0x00003e34:    00660066    f.f.    DCD    6684774
        0x00003e38:    00660066    f.f.    DCD    6684774
        0x00003e3c:    00660066    f.f.    DCD    6684774
        0x00003e40:    00660066    f.f.    DCD    6684774
        0x00003e44:    00660066    f.f.    DCD    6684774
        0x00003e48:    00660066    f.f.    DCD    6684774
        0x00003e4c:    006600d1    ..f.    DCD    6684881
        0x00003e50:    00660066    f.f.    DCD    6684774
        0x00003e54:    00660066    f.f.    DCD    6684774
        0x00003e58:    00660066    f.f.    DCD    6684774
        0x00003e5c:    00660066    f.f.    DCD    6684774
        0x00003e60:    00810066    f...    DCD    8454246
        0x00003e64:    0066005a    Z.f.    DCD    6684762
        0x00003e68:    00660033    3.f.    DCD    6684723
        0x00003e6c:    005a0066    f.Z.    DCD    5898342
        0x00003e70:    00660066    f.f.    DCD    6684774
        0x00003e74:    00660066    f.f.    DCD    6684774
        0x00003e78:    00660066    f.f.    DCD    6684774
        0x00003e7c:    00660066    f.f.    DCD    6684774
        0x00003e80:    00990066    f...    DCD    10027110
        0x00003e84:    00c30066    f...    DCD    12779622
        0x00003e88:    00660066    f.f.    DCD    6684774
        0x00003e8c:    00cf        ..      DCW    207
    $t.5
        0x00003e8e:    f1ba0f00    ....    CMP      r10,#0
        0x00003e92:    f000815e    ..^.    BEQ.W    0x4152 ; am_util_stdio_vsprintf + 1434
        0x00003e96:    9806        ..      LDR      r0,[sp,#0x18]
        0x00003e98:    3007        .0      ADDS     r0,#7
        0x00003e9a:    f0200007     ...    BIC      r0,r0,#7
        0x00003e9e:    ecb00b02    ....    VLDM     r0!,{d0}
        0x00003ea2:    9006        ..      STR      r0,[sp,#0x18]
        0x00003ea4:    ec510b10    Q...    VMOV     r0,r1,d0
        0x00003ea8:    f002f914    ....    BL       __aeabi_d2f ; 0x60d4
        0x00003eac:    ee000a10    ....    VMOV     s0,r0
        0x00003eb0:    2114        .!      MOVS     r1,#0x14
        0x00003eb2:    250d        .%      MOVS     r5,#0xd
        0x00003eb4:    eeb50a40    ..@.    VCMP.F32 s0,#0.0
        0x00003eb8:    f8ca1000    ....    STR      r1,[r10,#0]
        0x00003ebc:    eef1fa10    ....    VMRS     APSR_nzcv,FPSCR
        0x00003ec0:    f04081d9    @...    BNE.W    0x4276 ; am_util_stdio_vsprintf + 1726
        0x00003ec4:    f6426230    B.0b    MOV      r2,#0x2e30
        0x00003ec8:    f2400ed0    @...    MOVW     lr,#0xd0
        0x00003ecc:    f8ddc01c    ....    LDR      r12,[sp,#0x1c]
        0x00003ed0:    f2c00230    ..0.    MOVT     r2,#0x30
        0x00003ed4:    f2c10e00    ....    MOVT     lr,#0x1000
        0x00003ed8:    f000bf15    ....    B.W      0x4d06 ; am_util_stdio_vsprintf + 4430
        0x00003edc:    2800        .(      CMP      r0,#0
        0x00003ede:    f8cde008    ....    STR      lr,[sp,#8]
        0x00003ee2:    d07d        }.      BEQ      0x3fe0 ; am_util_stdio_vsprintf + 1064
        0x00003ee4:    9806        ..      LDR      r0,[sp,#0x18]
        0x00003ee6:    3007        .0      ADDS     r0,#7
        0x00003ee8:    f0200107     ...    BIC      r1,r0,#7
        0x00003eec:    684a        Jh      LDR      r2,[r1,#4]
        0x00003eee:    f8510b08    Q...    LDR      r0,[r1],#8
        0x00003ef2:    e079        y.      B        0x3fe8 ; am_util_stdio_vsprintf + 1072
        0x00003ef4:    f1ba0f00    ....    CMP      r10,#0
        0x00003ef8:    f2400ed0    @...    MOVW     lr,#0xd0
        0x00003efc:    f04f050d    O...    MOV      r5,#0xd
        0x00003f00:    f1080801    ....    ADD      r8,r8,#1
        0x00003f04:    bf14        ..      ITE      NE
        0x00003f06:    f80a2b01    ...+    STRBNE   r2,[r10],#1
        0x00003f0a:    f04f0a00    O...    MOVEQ    r10,#0
        0x00003f0e:    f2c10e00    ....    MOVT     lr,#0x1000
        0x00003f12:    9804        ..      LDR      r0,[sp,#0x10]
        0x00003f14:    f8ddc01c    ....    LDR      r12,[sp,#0x1c]
        0x00003f18:    1c41        A.      ADDS     r1,r0,#1
        0x00003f1a:    1c48        H.      ADDS     r0,r1,#1
        0x00003f1c:    f8101c01    ....    LDRB     r1,[r0,#-1]
        0x00003f20:    2900        .)      CMP      r1,#0
        0x00003f22:    f47fae5f    .._.    BNE      0x3be4 ; am_util_stdio_vsprintf + 44
        0x00003f26:    f000befb    ....    B.W      0x4d20 ; am_util_stdio_vsprintf + 4456
        0x00003f2a:    9906        ..      LDR      r1,[sp,#0x18]
        0x00003f2c:    f1ba0f00    ....    CMP      r10,#0
        0x00003f30:    f2400ed0    @...    MOVW     lr,#0xd0
        0x00003f34:    f04f050d    O...    MOV      r5,#0xd
        0x00003f38:    f1080801    ....    ADD      r8,r8,#1
        0x00003f3c:    f2c10e00    ....    MOVT     lr,#0x1000
        0x00003f40:    f1010004    ....    ADD      r0,r1,#4
        0x00003f44:    bf1a        ..      ITTE     NE
        0x00003f46:    6809        .h      LDRNE    r1,[r1,#0]
        0x00003f48:    f80a1b01    ....    STRBNE   r1,[r10],#1
        0x00003f4c:    f04f0a00    O...    MOVEQ    r10,#0
        0x00003f50:    f8ddc01c    ....    LDR      r12,[sp,#0x1c]
        0x00003f54:    9006        ..      STR      r0,[sp,#0x18]
        0x00003f56:    f000bedb    ....    B.W      0x4d10 ; am_util_stdio_vsprintf + 4440
        0x00003f5a:    9806        ..      LDR      r0,[sp,#0x18]
        0x00003f5c:    f8503b04    P..;    LDR      r3,[r0],#4
        0x00003f60:    2b00        .+      CMP      r3,#0
        0x00003f62:    9006        ..      STR      r0,[sp,#0x18]
        0x00003f64:    f0008311    ....    BEQ.W    0x458a ; am_util_stdio_vsprintf + 2514
        0x00003f68:    7818        .x      LDRB     r0,[r3,#0]
        0x00003f6a:    f2400ed0    @...    MOVW     lr,#0xd0
        0x00003f6e:    f8ddc01c    ....    LDR      r12,[sp,#0x1c]
        0x00003f72:    9c03        ..      LDR      r4,[sp,#0xc]
        0x00003f74:    2200        ."      MOVS     r2,#0
        0x00003f76:    f2c10e00    ....    MOVT     lr,#0x1000
        0x00003f7a:    2800        .(      CMP      r0,#0
        0x00003f7c:    f0008322    ..".    BEQ.W    0x45c4 ; am_util_stdio_vsprintf + 2572
        0x00003f80:    2002        .       MOVS     r0,#2
        0x00003f82:    250d        .%      MOVS     r5,#0xd
        0x00003f84:    1819        ..      ADDS     r1,r3,r0
        0x00003f86:    f8117c01    ...|    LDRB     r7,[r1,#-1]
        0x00003f8a:    2f00        ./      CMP      r7,#0
        0x00003f8c:    f000845f    .._.    BEQ.W    0x484e ; am_util_stdio_vsprintf + 3222
        0x00003f90:    5c1f        .\      LDRB     r7,[r3,r0]
        0x00003f92:    2f00        ./      CMP      r7,#0
        0x00003f94:    f0008461    ..a.    BEQ.W    0x485a ; am_util_stdio_vsprintf + 3234
        0x00003f98:    784f        Ox      LDRB     r7,[r1,#1]
        0x00003f9a:    2f00        ./      CMP      r7,#0
        0x00003f9c:    f0008489    ....    BEQ.W    0x48b2 ; am_util_stdio_vsprintf + 3322
        0x00003fa0:    7889        .x      LDRB     r1,[r1,#2]
        0x00003fa2:    3004        .0      ADDS     r0,#4
        0x00003fa4:    3204        .2      ADDS     r2,#4
        0x00003fa6:    2900        .)      CMP      r1,#0
        0x00003fa8:    d1ec        ..      BNE      0x3f84 ; am_util_stdio_vsprintf + 972
        0x00003faa:    f000bc83    ....    B.W      0x48b4 ; am_util_stdio_vsprintf + 3324
        0x00003fae:    2800        .(      CMP      r0,#0
        0x00003fb0:    f00080e5    ....    BEQ.W    0x417e ; am_util_stdio_vsprintf + 1478
        0x00003fb4:    9806        ..      LDR      r0,[sp,#0x18]
        0x00003fb6:    3007        .0      ADDS     r0,#7
        0x00003fb8:    f0200007     ...    BIC      r0,r0,#7
        0x00003fbc:    f8d09004    ....    LDR      r9,[r0,#4]
        0x00003fc0:    f850eb08    P...    LDR      lr,[r0],#8
        0x00003fc4:    e0e0        ..      B        0x4188 ; am_util_stdio_vsprintf + 1488
        0x00003fc6:    f04f0c27    O.'.    MOV      r12,#0x27
        0x00003fca:    2800        .(      CMP      r0,#0
        0x00003fcc:    f0008089    ....    BEQ.W    0x40e2 ; am_util_stdio_vsprintf + 1322
        0x00003fd0:    9806        ..      LDR      r0,[sp,#0x18]
        0x00003fd2:    3007        .0      ADDS     r0,#7
        0x00003fd4:    f0200007     ...    BIC      r0,r0,#7
        0x00003fd8:    6842        Bh      LDR      r2,[r0,#4]
        0x00003fda:    f8507b08    P..{    LDR      r7,[r0],#8
        0x00003fde:    e084        ..      B        0x40ea ; am_util_stdio_vsprintf + 1330
        0x00003fe0:    9906        ..      LDR      r1,[sp,#0x18]
        0x00003fe2:    f8510b04    Q...    LDR      r0,[r1],#4
        0x00003fe6:    17c2        ..      ASRS     r2,r0,#31
        0x00003fe8:    9106        ..      STR      r1,[sp,#0x18]
        0x00003fea:    eb1070e2    ...p    ADDS     r0,r0,r2,ASR #31
        0x00003fee:    f10d0b23    ..#.    ADD      r11,sp,#0x23
        0x00003ff2:    ea8073e2    ...s    EOR      r3,r0,r2,ASR #31
        0x00003ff6:    eb4270e2    B..p    ADC      r0,r2,r2,ASR #31
        0x00003ffa:    ea807ee2    ...~    EOR      lr,r0,r2,ASR #31
        0x00003ffe:    9803        ..      LDR      r0,[sp,#0xc]
        0x00004000:    2800        .(      CMP      r0,#0
        0x00004002:    f00080af    ....    BEQ.W    0x4164 ; am_util_stdio_vsprintf + 1452
        0x00004006:    ea53000e    S...    ORRS     r0,r3,lr
        0x0000400a:    9201        ..      STR      r2,[sp,#4]
        0x0000400c:    f00081eb    ....    BEQ.W    0x43e6 ; am_util_stdio_vsprintf + 2094
        0x00004010:    2600        .&      MOVS     r6,#0
        0x00004012:    4619        .F      MOV      r1,r3
        0x00004014:    4672        rF      MOV      r2,lr
        0x00004016:    bf00        ..      NOP      
        0x00004018:    2a00        .*      CMP      r2,#0
        0x0000401a:    d049        I.      BEQ      0x40b0 ; am_util_stdio_vsprintf + 1272
        0x0000401c:    0888        ..      LSRS     r0,r1,#2
        0x0000401e:    ea5f0552    _.R.    LSRS.W   r5,r2,#1
        0x00004022:    f06f0c09    o...    MVN      r12,#9
        0x00004026:    f04f37ff    O..7    MOV      r7,#0xffffffff
        0x0000402a:    ea407082    @..p    ORR      r0,r0,r2,LSL #30
        0x0000402e:    ea4f0431    O.1.    RRX      r4,r1
        0x00004032:    1900        ..      ADDS     r0,r0,r4
        0x00004034:    eb450492    E...    ADC      r4,r5,r2,LSR #2
        0x00004038:    0905        ..      LSRS     r5,r0,#4
        0x0000403a:    ea457504    E..u    ORR      r5,r5,r4,LSL #28
        0x0000403e:    ea4f1914    O...    LSR      r9,r4,#4
        0x00004042:    1940        @.      ADDS     r0,r0,r5
        0x00004044:    eb440409    D...    ADC      r4,r4,r9
        0x00004048:    0a05        ..      LSRS     r5,r0,#8
        0x0000404a:    ea456504    E..e    ORR      r5,r5,r4,LSL #24
        0x0000404e:    ea4f2914    O..)    LSR      r9,r4,#8
        0x00004052:    1940        @.      ADDS     r0,r0,r5
        0x00004054:    eb440409    D...    ADC      r4,r4,r9
        0x00004058:    0c05        ..      LSRS     r5,r0,#16
        0x0000405a:    ea454504    E..E    ORR      r5,r5,r4,LSL #16
        0x0000405e:    ea4f4914    O..I    LSR      r9,r4,#16
        0x00004062:    1940        @.      ADDS     r0,r0,r5
        0x00004064:    eb440409    D...    ADC      r4,r4,r9
        0x00004068:    1900        ..      ADDS     r0,r0,r4
        0x0000406a:    f1440400    D...    ADC      r4,r4,#0
        0x0000406e:    08c0        ..      LSRS     r0,r0,#3
        0x00004070:    ea407044    @.Dp    ORR      r0,r0,r4,LSL #29
        0x00004074:    fba0950c    ....    UMULL    r9,r5,r0,r12
        0x00004078:    fb005b07    ...[    MLA      r11,r0,r7,r5
        0x0000407c:    08e5        ..      LSRS     r5,r4,#3
        0x0000407e:    eb110109    ....    ADDS     r1,r1,r9
        0x00004082:    f06f0909    o...    MVN      r9,#9
        0x00004086:    fb05b50c    ....    MLA      r5,r5,r12,r11
        0x0000408a:    f10d0b23    ..#.    ADD      r11,sp,#0x23
        0x0000408e:    416a        jA      ADCS     r2,r2,r5
        0x00004090:    3106        .1      ADDS     r1,#6
        0x00004092:    f1420200    B...    ADC      r2,r2,#0
        0x00004096:    0909        ..      LSRS     r1,r1,#4
        0x00004098:    ea417102    A..q    ORR      r1,r1,r2,LSL #28
        0x0000409c:    0915        ..      LSRS     r5,r2,#4
        0x0000409e:    1809        ..      ADDS     r1,r1,r0
        0x000040a0:    eb4502d4    E...    ADC      r2,r5,r4,LSR #3
        0x000040a4:    ea510002    Q...    ORRS     r0,r1,r2
        0x000040a8:    f1060601    ....    ADD      r6,r6,#1
        0x000040ac:    d1b4        ..      BNE      0x4018 ; am_util_stdio_vsprintf + 1120
        0x000040ae:    e19b        ..      B        0x43e8 ; am_util_stdio_vsprintf + 2096
        0x000040b0:    0848        H.      LSRS     r0,r1,#1
        0x000040b2:    eb000091    ....    ADD      r0,r0,r1,LSR #2
        0x000040b6:    eb001010    ....    ADD      r0,r0,r0,LSR #4
        0x000040ba:    eb002010    ...     ADD      r0,r0,r0,LSR #8
        0x000040be:    eb004010    ...@    ADD      r0,r0,r0,LSR #16
        0x000040c2:    08c2        ..      LSRS     r2,r0,#3
        0x000040c4:    eb020282    ....    ADD      r2,r2,r2,LSL #2
        0x000040c8:    eba10142    ..B.    SUB      r1,r1,r2,LSL #1
        0x000040cc:    2200        ."      MOVS     r2,#0
        0x000040ce:    3106        .1      ADDS     r1,#6
        0x000040d0:    0909        ..      LSRS     r1,r1,#4
        0x000040d2:    eb0101d0    ....    ADD      r1,r1,r0,LSR #3
        0x000040d6:    ea510002    Q...    ORRS     r0,r1,r2
        0x000040da:    f1060601    ....    ADD      r6,r6,#1
        0x000040de:    d19b        ..      BNE      0x4018 ; am_util_stdio_vsprintf + 1120
        0x000040e0:    e182        ..      B        0x43e8 ; am_util_stdio_vsprintf + 2096
        0x000040e2:    9806        ..      LDR      r0,[sp,#0x18]
        0x000040e4:    2200        ."      MOVS     r2,#0
        0x000040e6:    f8507b04    P..{    LDR      r7,[r0],#4
        0x000040ea:    9006        ..      STR      r0,[sp,#0x18]
        0x000040ec:    9803        ..      LDR      r0,[sp,#0xc]
        0x000040ee:    f2400ed0    @...    MOVW     lr,#0xd0
        0x000040f2:    f10d0923    ..#.    ADD      r9,sp,#0x23
        0x000040f6:    2130        0!      MOVS     r1,#0x30
        0x000040f8:    f2c10e00    ....    MOVT     lr,#0x1000
        0x000040fc:    2800        .(      CMP      r0,#0
        0x000040fe:    f0008316    ....    BEQ.W    0x472e ; am_util_stdio_vsprintf + 2934
        0x00004102:    ea570002    W...    ORRS     r0,r7,r2
        0x00004106:    f000817a    ..z.    BEQ.W    0x43fe ; am_util_stdio_vsprintf + 2118
        0x0000410a:    2100        .!      MOVS     r1,#0
        0x0000410c:    2003        .       MOVS     r0,#3
        0x0000410e:    463e        >F      MOV      r6,r7
        0x00004110:    4613        .F      MOV      r3,r2
        0x00004112:    bf00        ..      NOP      
        0x00004114:    f1d6050f    ....    RSBS     r5,r6,#0xf
        0x00004118:    f04f0400    O...    MOV      r4,#0
        0x0000411c:    eb740503    t...    SBCS     r5,r4,r3
        0x00004120:    f08082f6    ....    BCS.W    0x4710 ; am_util_stdio_vsprintf + 2904
        0x00004124:    f5b67480    ...t    SUBS     r4,r6,#0x100
        0x00004128:    f1730400    s...    SBCS     r4,r3,#0
        0x0000412c:    f0c0835d    ..].    BCC.W    0x47ea ; am_util_stdio_vsprintf + 3122
        0x00004130:    f5b65480    ...T    SUBS     r4,r6,#0x1000
        0x00004134:    f1730400    s...    SBCS     r4,r3,#0
        0x00004138:    f0c08373    ..s.    BCC.W    0x4822 ; am_util_stdio_vsprintf + 3178
        0x0000413c:    0c34        4.      LSRS     r4,r6,#16
        0x0000413e:    3004        .0      ADDS     r0,#4
        0x00004140:    3104        .1      ADDS     r1,#4
        0x00004142:    ea444603    D..F    ORR      r6,r4,r3,LSL #16
        0x00004146:    ea464413    F..D    ORR      r4,r6,r3,LSR #16
        0x0000414a:    0c1b        ..      LSRS     r3,r3,#16
        0x0000414c:    2c00        .,      CMP      r4,#0
        0x0000414e:    d1e1        ..      BNE      0x4114 ; am_util_stdio_vsprintf + 1372
        0x00004150:    e156        V.      B        0x4400 ; am_util_stdio_vsprintf + 2120
        0x00004152:    f2400ed0    @...    MOVW     lr,#0xd0
        0x00004156:    f8ddc01c    ....    LDR      r12,[sp,#0x1c]
        0x0000415a:    f04f0a00    O...    MOV      r10,#0
        0x0000415e:    f2c10e00    ....    MOVT     lr,#0x1000
        0x00004162:    e334        4.      B        0x47ce ; am_util_stdio_vsprintf + 3094
        0x00004164:    f1b23fff    ...?    CMP      r2,#0xffffffff
        0x00004168:    f300818e    ....    BGT.W    0x4488 ; am_util_stdio_vsprintf + 2256
        0x0000416c:    f8ddc01c    ....    LDR      r12,[sp,#0x1c]
        0x00004170:    f1ba0f00    ....    CMP      r10,#0
        0x00004174:    f0408182    @...    BNE.W    0x447c ; am_util_stdio_vsprintf + 2244
        0x00004178:    f04f0a00    O...    MOV      r10,#0
        0x0000417c:    e181        ..      B        0x4482 ; am_util_stdio_vsprintf + 2250
        0x0000417e:    9806        ..      LDR      r0,[sp,#0x18]
        0x00004180:    f04f0900    O...    MOV      r9,#0
        0x00004184:    f850eb04    P...    LDR      lr,[r0],#4
        0x00004188:    9006        ..      STR      r0,[sp,#0x18]
        0x0000418a:    9803        ..      LDR      r0,[sp,#0xc]
        0x0000418c:    f8ddc01c    ....    LDR      r12,[sp,#0x1c]
        0x00004190:    f10d0423    ..#.    ADD      r4,sp,#0x23
        0x00004194:    2800        .(      CMP      r0,#0
        0x00004196:    f0008234    ..4.    BEQ.W    0x4602 ; am_util_stdio_vsprintf + 2634
        0x0000419a:    ea5e0009    ^...    ORRS     r0,lr,r9
        0x0000419e:    f0008215    ....    BEQ.W    0x45cc ; am_util_stdio_vsprintf + 2580
        0x000041a2:    2700        .'      MOVS     r7,#0
        0x000041a4:    4671        qF      MOV      r1,lr
        0x000041a6:    464b        KF      MOV      r3,r9
        0x000041a8:    2b00        .+      CMP      r3,#0
        0x000041aa:    d04b        K.      BEQ      0x4244 ; am_util_stdio_vsprintf + 1676
        0x000041ac:    0888        ..      LSRS     r0,r1,#2
        0x000041ae:    ea5f0553    _.S.    LSRS.W   r5,r3,#1
        0x000041b2:    f06f0209    o...    MVN      r2,#9
        0x000041b6:    f04f34ff    O..4    MOV      r4,#0xffffffff
        0x000041ba:    ea407c83    @..|    ORR      r12,r0,r3,LSL #30
        0x000041be:    ea4f0031    O.1.    RRX      r0,r1
        0x000041c2:    eb10000c    ....    ADDS     r0,r0,r12
        0x000041c6:    eb450593    E...    ADC      r5,r5,r3,LSR #2
        0x000041ca:    0906        ..      LSRS     r6,r0,#4
        0x000041cc:    ea467605    F..v    ORR      r6,r6,r5,LSL #28
        0x000041d0:    ea4f1c15    O...    LSR      r12,r5,#4
        0x000041d4:    1980        ..      ADDS     r0,r0,r6
        0x000041d6:    eb4c0605    L...    ADC      r6,r12,r5
        0x000041da:    0a05        ..      LSRS     r5,r0,#8
        0x000041dc:    ea456506    E..e    ORR      r5,r5,r6,LSL #24
        0x000041e0:    ea4f2c16    O..,    LSR      r12,r6,#8
        0x000041e4:    1940        @.      ADDS     r0,r0,r5
        0x000041e6:    eb46060c    F...    ADC      r6,r6,r12
        0x000041ea:    0c05        ..      LSRS     r5,r0,#16
        0x000041ec:    ea454506    E..E    ORR      r5,r5,r6,LSL #16
        0x000041f0:    ea4f4c16    O..L    LSR      r12,r6,#16
        0x000041f4:    1940        @.      ADDS     r0,r0,r5
        0x000041f6:    eb46060c    F...    ADC      r6,r6,r12
        0x000041fa:    1980        ..      ADDS     r0,r0,r6
        0x000041fc:    f1460600    F...    ADC      r6,r6,#0
        0x00004200:    08c0        ..      LSRS     r0,r0,#3
        0x00004202:    ea407046    @.Fp    ORR      r0,r0,r6,LSL #29
        0x00004206:    fba0c502    ....    UMULL    r12,r5,r0,r2
        0x0000420a:    fb005b04    ...[    MLA      r11,r0,r4,r5
        0x0000420e:    08f5        ..      LSRS     r5,r6,#3
        0x00004210:    eb11010c    ....    ADDS     r1,r1,r12
        0x00004214:    f8ddc01c    ....    LDR      r12,[sp,#0x1c]
        0x00004218:    f10d0423    ..#.    ADD      r4,sp,#0x23
        0x0000421c:    fb05b502    ....    MLA      r5,r5,r2,r11
        0x00004220:    416b        kA      ADCS     r3,r3,r5
        0x00004222:    3106        .1      ADDS     r1,#6
        0x00004224:    f1430300    C...    ADC      r3,r3,#0
        0x00004228:    0909        ..      LSRS     r1,r1,#4
        0x0000422a:    ea417103    A..q    ORR      r1,r1,r3,LSL #28
        0x0000422e:    091d        ..      LSRS     r5,r3,#4
        0x00004230:    1809        ..      ADDS     r1,r1,r0
        0x00004232:    eb4503d6    E...    ADC      r3,r5,r6,LSR #3
        0x00004236:    9e05        ..      LDR      r6,[sp,#0x14]
        0x00004238:    ea510003    Q...    ORRS     r0,r1,r3
        0x0000423c:    f1070701    ....    ADD      r7,r7,#1
        0x00004240:    d1b2        ..      BNE      0x41a8 ; am_util_stdio_vsprintf + 1520
        0x00004242:    e1c4        ..      B        0x45ce ; am_util_stdio_vsprintf + 2582
        0x00004244:    0848        H.      LSRS     r0,r1,#1
        0x00004246:    eb000091    ....    ADD      r0,r0,r1,LSR #2
        0x0000424a:    eb001010    ....    ADD      r0,r0,r0,LSR #4
        0x0000424e:    eb002010    ...     ADD      r0,r0,r0,LSR #8
        0x00004252:    eb004010    ...@    ADD      r0,r0,r0,LSR #16
        0x00004256:    08c3        ..      LSRS     r3,r0,#3
        0x00004258:    eb030383    ....    ADD      r3,r3,r3,LSL #2
        0x0000425c:    eba10143    ..C.    SUB      r1,r1,r3,LSL #1
        0x00004260:    2300        .#      MOVS     r3,#0
        0x00004262:    3106        .1      ADDS     r1,#6
        0x00004264:    0909        ..      LSRS     r1,r1,#4
        0x00004266:    eb0101d0    ....    ADD      r1,r1,r0,LSR #3
        0x0000426a:    ea510003    Q...    ORRS     r0,r1,r3
        0x0000426e:    f1070701    ....    ADD      r7,r7,#1
        0x00004272:    d199        ..      BNE      0x41a8 ; am_util_stdio_vsprintf + 1520
        0x00004274:    e1ab        ..      B        0x45ce ; am_util_stdio_vsprintf + 2582
        0x00004276:    f6426130    B.0a    MOV      r1,#0x2e30
        0x0000427a:    f2400ed0    @...    MOVW     lr,#0xd0
        0x0000427e:    f2c00130    ..0.    MOVT     r1,#0x30
        0x00004282:    f2c10e00    ....    MOVT     lr,#0x1000
        0x00004286:    f1a1130d    ....    SUB      r3,r1,#0xd000d
        0x0000428a:    f3c051c7    ...Q    UBFX     r1,r0,#23,#8
        0x0000428e:    f8ddc01c    ....    LDR      r12,[sp,#0x1c]
        0x00004292:    299d        .)      CMP      r1,#0x9d
        0x00004294:    461a        .F      MOV      r2,r3
        0x00004296:    f2008536    ..6.    BHI.W    0x4d06 ; am_util_stdio_vsprintf + 4430
        0x0000429a:    f6426230    B.0b    MOV      r2,#0x2e30
        0x0000429e:    2968        h)      CMP      r1,#0x68
        0x000042a0:    f2c00230    ..0.    MOVT     r2,#0x30
        0x000042a4:    f0c0852f    ../.    BCC.W    0x4d06 ; am_util_stdio_vsprintf + 4430
        0x000042a8:    9305        ..      STR      r3,[sp,#0x14]
        0x000042aa:    4602        .F      MOV      r2,r0
        0x000042ac:    2301        .#      MOVS     r3,#1
        0x000042ae:    2996        .)      CMP      r1,#0x96
        0x000042b0:    f36352df    c..R    BFI      r2,r3,#23,#9
        0x000042b4:    f0c0832d    ..-.    BCC.W    0x4912 ; am_util_stdio_vsprintf + 3418
        0x000042b8:    3996        .9      SUBS     r1,r1,#0x96
        0x000042ba:    f04f0900    O...    MOV      r9,#0
        0x000042be:    fa02f701    ....    LSL      r7,r2,r1
        0x000042c2:    f1b03fff    ...?    CMP      r0,#0xffffffff
        0x000042c6:    46d4        .F      MOV      r12,r10
        0x000042c8:    f04f0130    O.0.    MOV      r1,#0x30
        0x000042cc:    dc03        ..      BGT      0x42d6 ; am_util_stdio_vsprintf + 1822
        0x000042ce:    46d4        .F      MOV      r12,r10
        0x000042d0:    202d        -       MOVS     r0,#0x2d
        0x000042d2:    f80c0b01    ....    STRB     r0,[r12],#1
        0x000042d6:    2f00        ./      CMP      r7,#0
        0x000042d8:    f0008357    ..W.    BEQ.W    0x498a ; am_util_stdio_vsprintf + 3538
        0x000042dc:    2f01        ./      CMP      r7,#1
        0x000042de:    f2c08364    ..d.    BLT.W    0x49aa ; am_util_stdio_vsprintf + 3570
        0x000042e2:    17fe        ..      ASRS     r6,r7,#31
        0x000042e4:    f06f0e03    o...    MVN      lr,#3
        0x000042e8:    b3ce        ..      CBZ      r6,0x435e ; am_util_stdio_vsprintf + 1958
        0x000042ea:    08b9        ..      LSRS     r1,r7,#2
        0x000042ec:    ea5f0256    _.V.    LSRS.W   r2,r6,#1
        0x000042f0:    f06f0309    o...    MVN      r3,#9
        0x000042f4:    f04f30ff    O..0    MOV      r0,#0xffffffff
        0x000042f8:    ea417186    A..q    ORR      r1,r1,r6,LSL #30
        0x000042fc:    ea4f0437    O.7.    RRX      r4,r7
        0x00004300:    1909        ..      ADDS     r1,r1,r4
        0x00004302:    eb420296    B...    ADC      r2,r2,r6,LSR #2
        0x00004306:    090c        ..      LSRS     r4,r1,#4
        0x00004308:    ea447402    D..t    ORR      r4,r4,r2,LSL #28
        0x0000430c:    0915        ..      LSRS     r5,r2,#4
        0x0000430e:    1909        ..      ADDS     r1,r1,r4
        0x00004310:    416a        jA      ADCS     r2,r2,r5
        0x00004312:    0a0d        ..      LSRS     r5,r1,#8
        0x00004314:    ea456502    E..e    ORR      r5,r5,r2,LSL #24
        0x00004318:    0a14        ..      LSRS     r4,r2,#8
        0x0000431a:    1949        I.      ADDS     r1,r1,r5
        0x0000431c:    4162        bA      ADCS     r2,r2,r4
        0x0000431e:    0c0d        ..      LSRS     r5,r1,#16
        0x00004320:    ea454502    E..E    ORR      r5,r5,r2,LSL #16
        0x00004324:    0c14        ..      LSRS     r4,r2,#16
        0x00004326:    1949        I.      ADDS     r1,r1,r5
        0x00004328:    4162        bA      ADCS     r2,r2,r4
        0x0000432a:    1889        ..      ADDS     r1,r1,r2
        0x0000432c:    f1420200    B...    ADC      r2,r2,#0
        0x00004330:    08c9        ..      LSRS     r1,r1,#3
        0x00004332:    ea417142    A.Bq    ORR      r1,r1,r2,LSL #29
        0x00004336:    fba15403    ...T    UMULL    r5,r4,r1,r3
        0x0000433a:    fb014400    ...D    MLA      r4,r1,r0,r4
        0x0000433e:    08d0        ..      LSRS     r0,r2,#3
        0x00004340:    19ed        ..      ADDS     r5,r5,r7
        0x00004342:    fb004003    ...@    MLA      r0,r0,r3,r4
        0x00004346:    4170        pA      ADCS     r0,r0,r6
        0x00004348:    1dae        ..      ADDS     r6,r5,#6
        0x0000434a:    f1400000    @...    ADC      r0,r0,#0
        0x0000434e:    0936        6.      LSRS     r6,r6,#4
        0x00004350:    0905        ..      LSRS     r5,r0,#4
        0x00004352:    ea467000    F..p    ORR      r0,r6,r0,LSL #28
        0x00004356:    1809        ..      ADDS     r1,r1,r0
        0x00004358:    eb4506d2    E...    ADC      r6,r5,r2,LSR #3
        0x0000435c:    e014        ..      B        0x4388 ; am_util_stdio_vsprintf + 2000
        0x0000435e:    0878        x.      LSRS     r0,r7,#1
        0x00004360:    2600        .&      MOVS     r6,#0
        0x00004362:    f06f0309    o...    MVN      r3,#9
        0x00004366:    eb000097    ....    ADD      r0,r0,r7,LSR #2
        0x0000436a:    eb001010    ....    ADD      r0,r0,r0,LSR #4
        0x0000436e:    eb002010    ...     ADD      r0,r0,r0,LSR #8
        0x00004372:    eb004010    ...@    ADD      r0,r0,r0,LSR #16
        0x00004376:    08c1        ..      LSRS     r1,r0,#3
        0x00004378:    eb010181    ....    ADD      r1,r1,r1,LSL #2
        0x0000437c:    eba70141    ..A.    SUB      r1,r7,r1,LSL #1
        0x00004380:    3106        .1      ADDS     r1,#6
        0x00004382:    0909        ..      LSRS     r1,r1,#4
        0x00004384:    eb0101d0    ....    ADD      r1,r1,r0,LSR #3
        0x00004388:    fb017003    ...p    MLA      r0,r1,r3,r7
        0x0000438c:    460f        .F      MOV      r7,r1
        0x0000438e:    f1000230    ..0.    ADD      r2,r0,#0x30
        0x00004392:    f10d0023    ..#.    ADD      r0,sp,#0x23
        0x00004396:    4470        pD      ADD      r0,r0,lr
        0x00004398:    f10e0e01    ....    ADD      lr,lr,#1
        0x0000439c:    7102        .q      STRB     r2,[r0,#4]
        0x0000439e:    ea510006    Q...    ORRS     r0,r1,r6
        0x000043a2:    d1a1        ..      BNE      0x42e8 ; am_util_stdio_vsprintf + 1840
        0x000043a4:    f1bc0f00    ....    CMP      r12,#0
        0x000043a8:    f00083de    ....    BEQ.W    0x4b68 ; am_util_stdio_vsprintf + 4016
        0x000043ac:    f11e0103    ....    ADDS     r1,lr,#3
        0x000043b0:    f88c2000    ...     STRB     r2,[r12,#0]
        0x000043b4:    f00083d4    ....    BEQ.W    0x4b60 ; am_util_stdio_vsprintf + 4008
        0x000043b8:    f0110203    ....    ANDS     r2,r1,#3
        0x000043bc:    f10e0702    ....    ADD      r7,lr,#2
        0x000043c0:    f0008376    ..v.    BEQ.W    0x4ab0 ; am_util_stdio_vsprintf + 3832
        0x000043c4:    f10d0023    ..#.    ADD      r0,sp,#0x23
        0x000043c8:    4666        fF      MOV      r6,r12
        0x000043ca:    2a01        .*      CMP      r2,#1
        0x000043cc:    eb00010e    ....    ADD      r1,r0,lr
        0x000043d0:    7888        .x      LDRB     r0,[r1,#2]
        0x000043d2:    f8060f01    ....    STRB     r0,[r6,#1]!
        0x000043d6:    f040837c    @.|.    BNE.W    0x4ad2 ; am_util_stdio_vsprintf + 3866
        0x000043da:    4639        9F      MOV      r1,r7
        0x000043dc:    9d07        ..      LDR      r5,[sp,#0x1c]
        0x000043de:    2f03        ./      CMP      r7,#3
        0x000043e0:    f08083ad    ....    BCS.W    0x4b3e ; am_util_stdio_vsprintf + 3974
        0x000043e4:    e3bc        ..      B        0x4b60 ; am_util_stdio_vsprintf + 4008
        0x000043e6:    2601        .&      MOVS     r6,#1
        0x000043e8:    9803        ..      LDR      r0,[sp,#0xc]
        0x000043ea:    1b80        ..      SUBS     r0,r0,r6
        0x000043ec:    9e01        ..      LDR      r6,[sp,#4]
        0x000043ee:    f1b63fff    ...?    CMP      r6,#0xffffffff
        0x000043f2:    dd15        ..      BLE      0x4420 ; am_util_stdio_vsprintf + 2152
        0x000043f4:    9f05        ..      LDR      r7,[sp,#0x14]
        0x000043f6:    2801        .(      CMP      r0,#1
        0x000043f8:    da23        #.      BGE      0x4442 ; am_util_stdio_vsprintf + 2186
        0x000043fa:    2000        .       MOVS     r0,#0
        0x000043fc:    e02d        -.      B        0x445a ; am_util_stdio_vsprintf + 2210
        0x000043fe:    2101        .!      MOVS     r1,#1
        0x00004400:    9b03        ..      LDR      r3,[sp,#0xc]
        0x00004402:    1a58        X.      SUBS     r0,r3,r1
        0x00004404:    2801        .(      CMP      r0,#1
        0x00004406:    f2c0818a    ....    BLT.W    0x471e ; am_util_stdio_vsprintf + 2918
        0x0000440a:    9c05        ..      LDR      r4,[sp,#0x14]
        0x0000440c:    1ac9        ..      SUBS     r1,r1,r3
        0x0000440e:    4653        SF      MOV      r3,r10
        0x00004410:    2b00        .+      CMP      r3,#0
        0x00004412:    bf14        ..      ITE      NE
        0x00004414:    f8034b01    ...K    STRBNE   r4,[r3],#1
        0x00004418:    2300        .#      MOVEQ    r3,#0
        0x0000441a:    3101        .1      ADDS     r1,#1
        0x0000441c:    d1f8        ..      BNE      0x4410 ; am_util_stdio_vsprintf + 2136
        0x0000441e:    e17f        ..      B        0x4720 ; am_util_stdio_vsprintf + 2920
        0x00004420:    9902        ..      LDR      r1,[sp,#8]
        0x00004422:    9f05        ..      LDR      r7,[sp,#0x14]
        0x00004424:    3801        .8      SUBS     r0,#1
        0x00004426:    2930        0)      CMP      r1,#0x30
        0x00004428:    d109        ..      BNE      0x443e ; am_util_stdio_vsprintf + 2182
        0x0000442a:    f1ba0f00    ....    CMP      r10,#0
        0x0000442e:    f1080801    ....    ADD      r8,r8,#1
        0x00004432:    bf1a        ..      ITTE     NE
        0x00004434:    212d        -!      MOVNE    r1,#0x2d
        0x00004436:    f80a1b01    ....    STRBNE   r1,[r10],#1
        0x0000443a:    f04f0a00    O...    MOVEQ    r10,#0
        0x0000443e:    2801        .(      CMP      r0,#1
        0x00004440:    dbdb        ..      BLT      0x43fa ; am_util_stdio_vsprintf + 2114
        0x00004442:    4601        .F      MOV      r1,r0
        0x00004444:    4652        RF      MOV      r2,r10
        0x00004446:    bf00        ..      NOP      
        0x00004448:    2a00        .*      CMP      r2,#0
        0x0000444a:    f1a10101    ....    SUB      r1,r1,#1
        0x0000444e:    bf14        ..      ITE      NE
        0x00004450:    f8027b01    ...{    STRBNE   r7,[r2],#1
        0x00004454:    2200        ."      MOVEQ    r2,#0
        0x00004456:    2900        .)      CMP      r1,#0
        0x00004458:    d1f6        ..      BNE      0x4448 ; am_util_stdio_vsprintf + 2192
        0x0000445a:    f1ba0f00    ....    CMP      r10,#0
        0x0000445e:    4480        .D      ADD      r8,r8,r0
        0x00004460:    bf18        ..      IT       NE
        0x00004462:    4482        .D      ADDNE    r10,r10,r0
        0x00004464:    f1b63fff    ...?    CMP      r6,#0xffffffff
        0x00004468:    dc0e        ..      BGT      0x4488 ; am_util_stdio_vsprintf + 2256
        0x0000446a:    9802        ..      LDR      r0,[sp,#8]
        0x0000446c:    f8ddc01c    ....    LDR      r12,[sp,#0x1c]
        0x00004470:    2830        0(      CMP      r0,#0x30
        0x00004472:    d00b        ..      BEQ      0x448c ; am_util_stdio_vsprintf + 2260
        0x00004474:    f1ba0f00    ....    CMP      r10,#0
        0x00004478:    f43fae7e    ?.~.    BEQ      0x4178 ; am_util_stdio_vsprintf + 1472
        0x0000447c:    202d        -       MOVS     r0,#0x2d
        0x0000447e:    f80a0b01    ....    STRB     r0,[r10],#1
        0x00004482:    f1080801    ....    ADD      r8,r8,#1
        0x00004486:    e001        ..      B        0x448c ; am_util_stdio_vsprintf + 2260
        0x00004488:    f8ddc01c    ....    LDR      r12,[sp,#0x1c]
        0x0000448c:    f06f0003    o...    MVN      r0,#3
        0x00004490:    f1be0f00    ....    CMP      lr,#0
        0x00004494:    d038        8.      BEQ      0x4508 ; am_util_stdio_vsprintf + 2384
        0x00004496:    0899        ..      LSRS     r1,r3,#2
        0x00004498:    ea5f025e    _.^.    LSRS     r2,lr,#1
        0x0000449c:    f04f34ff    O..4    MOV      r4,#0xffffffff
        0x000044a0:    ea41718e    A..q    ORR      r1,r1,lr,LSL #30
        0x000044a4:    ea4f0633    O.3.    RRX      r6,r3
        0x000044a8:    1989        ..      ADDS     r1,r1,r6
        0x000044aa:    eb42029e    B...    ADC      r2,r2,lr,LSR #2
        0x000044ae:    090e        ..      LSRS     r6,r1,#4
        0x000044b0:    ea467602    F..v    ORR      r6,r6,r2,LSL #28
        0x000044b4:    0915        ..      LSRS     r5,r2,#4
        0x000044b6:    1989        ..      ADDS     r1,r1,r6
        0x000044b8:    416a        jA      ADCS     r2,r2,r5
        0x000044ba:    0a0e        ..      LSRS     r6,r1,#8
        0x000044bc:    ea466602    F..f    ORR      r6,r6,r2,LSL #24
        0x000044c0:    0a15        ..      LSRS     r5,r2,#8
        0x000044c2:    1989        ..      ADDS     r1,r1,r6
        0x000044c4:    416a        jA      ADCS     r2,r2,r5
        0x000044c6:    0c0e        ..      LSRS     r6,r1,#16
        0x000044c8:    ea464602    F..F    ORR      r6,r6,r2,LSL #16
        0x000044cc:    0c15        ..      LSRS     r5,r2,#16
        0x000044ce:    1989        ..      ADDS     r1,r1,r6
        0x000044d0:    416a        jA      ADCS     r2,r2,r5
        0x000044d2:    1889        ..      ADDS     r1,r1,r2
        0x000044d4:    f1420200    B...    ADC      r2,r2,#0
        0x000044d8:    08c9        ..      LSRS     r1,r1,#3
        0x000044da:    ea417142    A.Bq    ORR      r1,r1,r2,LSL #29
        0x000044de:    fba16509    ...e    UMULL    r6,r5,r1,r9
        0x000044e2:    fb015504    ...U    MLA      r5,r1,r4,r5
        0x000044e6:    08d4        ..      LSRS     r4,r2,#3
        0x000044e8:    18f6        ..      ADDS     r6,r6,r3
        0x000044ea:    fb045509    ...U    MLA      r5,r4,r9,r5
        0x000044ee:    eb4e0705    N...    ADC      r7,lr,r5
        0x000044f2:    3606        .6      ADDS     r6,#6
        0x000044f4:    f1470700    G...    ADC      r7,r7,#0
        0x000044f8:    0936        6.      LSRS     r6,r6,#4
        0x000044fa:    093d        =.      LSRS     r5,r7,#4
        0x000044fc:    ea467707    F..w    ORR      r7,r6,r7,LSL #28
        0x00004500:    19c9        ..      ADDS     r1,r1,r7
        0x00004502:    eb450ed2    E...    ADC      lr,r5,r2,LSR #3
        0x00004506:    e013        ..      B        0x4530 ; am_util_stdio_vsprintf + 2424
        0x00004508:    0859        Y.      LSRS     r1,r3,#1
        0x0000450a:    f04f0e00    O...    MOV      lr,#0
        0x0000450e:    eb010193    ....    ADD      r1,r1,r3,LSR #2
        0x00004512:    eb011111    ....    ADD      r1,r1,r1,LSR #4
        0x00004516:    eb012111    ...!    ADD      r1,r1,r1,LSR #8
        0x0000451a:    eb014111    ...A    ADD      r1,r1,r1,LSR #16
        0x0000451e:    08ca        ..      LSRS     r2,r1,#3
        0x00004520:    eb020282    ....    ADD      r2,r2,r2,LSL #2
        0x00004524:    eba30242    ..B.    SUB      r2,r3,r2,LSL #1
        0x00004528:    3206        .2      ADDS     r2,#6
        0x0000452a:    0912        ..      LSRS     r2,r2,#4
        0x0000452c:    eb0201d1    ....    ADD      r1,r2,r1,LSR #3
        0x00004530:    fb013209    ...2    MLA      r2,r1,r9,r3
        0x00004534:    eb0b0300    ....    ADD      r3,r11,r0
        0x00004538:    3001        .0      ADDS     r0,#1
        0x0000453a:    3230        02      ADDS     r2,r2,#0x30
        0x0000453c:    711a        .q      STRB     r2,[r3,#4]
        0x0000453e:    ea51030e    Q...    ORRS     r3,r1,lr
        0x00004542:    460b        .F      MOV      r3,r1
        0x00004544:    d1a4        ..      BNE      0x4490 ; am_util_stdio_vsprintf + 2264
        0x00004546:    f2400ed0    @...    MOVW     lr,#0xd0
        0x0000454a:    f1ba0f00    ....    CMP      r10,#0
        0x0000454e:    f04f050d    O...    MOV      r5,#0xd
        0x00004552:    f2c10e00    ....    MOVT     lr,#0x1000
        0x00004556:    f000820d    ....    BEQ.W    0x4974 ; am_util_stdio_vsprintf + 3516
        0x0000455a:    1cc1        ..      ADDS     r1,r0,#3
        0x0000455c:    f88a2000    ...     STRB     r2,[r10,#0]
        0x00004560:    f0008204    ....    BEQ.W    0x496c ; am_util_stdio_vsprintf + 3508
        0x00004564:    f0110703    ....    ANDS     r7,r1,#3
        0x00004568:    f1000202    ....    ADD      r2,r0,#2
        0x0000456c:    d03e        >.      BEQ      0x45ec ; am_util_stdio_vsprintf + 2612
        0x0000456e:    eb0b0100    ....    ADD      r1,r11,r0
        0x00004572:    4653        SF      MOV      r3,r10
        0x00004574:    2f01        ./      CMP      r7,#1
        0x00004576:    788e        .x      LDRB     r6,[r1,#2]
        0x00004578:    f8036f01    ...o    STRB     r6,[r3,#1]!
        0x0000457c:    f040813d    @.=.    BNE.W    0x47fa ; am_util_stdio_vsprintf + 3138
        0x00004580:    4611        .F      MOV      r1,r2
        0x00004582:    2a03        .*      CMP      r2,#3
        0x00004584:    f0808181    ....    BCS.W    0x488a ; am_util_stdio_vsprintf + 3282
        0x00004588:    e1f0        ..      B        0x496c ; am_util_stdio_vsprintf + 3508
        0x0000458a:    f2400ed0    @...    MOVW     lr,#0xd0
        0x0000458e:    f8ddc01c    ....    LDR      r12,[sp,#0x1c]
        0x00004592:    9c03        ..      LDR      r4,[sp,#0xc]
        0x00004594:    2200        ."      MOVS     r2,#0
        0x00004596:    250d        .%      MOVS     r5,#0xd
        0x00004598:    f2c10e00    ....    MOVT     lr,#0x1000
        0x0000459c:    2c01        .,      CMP      r4,#1
        0x0000459e:    f2c0818c    ....    BLT.W    0x48ba ; am_util_stdio_vsprintf + 3330
        0x000045a2:    4294        .B      CMP      r4,r2
        0x000045a4:    f2408189    @...    BLS.W    0x48ba ; am_util_stdio_vsprintf + 3330
        0x000045a8:    1aa0        ..      SUBS     r0,r4,r2
        0x000045aa:    2801        .(      CMP      r0,#1
        0x000045ac:    f2c08140    ..@.    BLT.W    0x4830 ; am_util_stdio_vsprintf + 3192
        0x000045b0:    1b11        ..      SUBS     r1,r2,r4
        0x000045b2:    4657        WF      MOV      r7,r10
        0x000045b4:    2f00        ./      CMP      r7,#0
        0x000045b6:    bf14        ..      ITE      NE
        0x000045b8:    f8076b01    ...k    STRBNE   r6,[r7],#1
        0x000045bc:    2700        .'      MOVEQ    r7,#0
        0x000045be:    3101        .1      ADDS     r1,#1
        0x000045c0:    d1f8        ..      BNE      0x45b4 ; am_util_stdio_vsprintf + 2556
        0x000045c2:    e136        6.      B        0x4832 ; am_util_stdio_vsprintf + 3194
        0x000045c4:    250d        .%      MOVS     r5,#0xd
        0x000045c6:    2c01        .,      CMP      r4,#1
        0x000045c8:    daeb        ..      BGE      0x45a2 ; am_util_stdio_vsprintf + 2538
        0x000045ca:    e176        v.      B        0x48ba ; am_util_stdio_vsprintf + 3330
        0x000045cc:    2701        .'      MOVS     r7,#1
        0x000045ce:    9903        ..      LDR      r1,[sp,#0xc]
        0x000045d0:    1bc8        ..      SUBS     r0,r1,r7
        0x000045d2:    2801        .(      CMP      r0,#1
        0x000045d4:    db0f        ..      BLT      0x45f6 ; am_util_stdio_vsprintf + 2622
        0x000045d6:    1a79        y.      SUBS     r1,r7,r1
        0x000045d8:    4653        SF      MOV      r3,r10
        0x000045da:    bf00        ..      NOP      
        0x000045dc:    2b00        .+      CMP      r3,#0
        0x000045de:    bf14        ..      ITE      NE
        0x000045e0:    f8036b01    ...k    STRBNE   r6,[r3],#1
        0x000045e4:    2300        .#      MOVEQ    r3,#0
        0x000045e6:    3101        .1      ADDS     r1,#1
        0x000045e8:    d1f8        ..      BNE      0x45dc ; am_util_stdio_vsprintf + 2596
        0x000045ea:    e005        ..      B        0x45f8 ; am_util_stdio_vsprintf + 2624
        0x000045ec:    4653        SF      MOV      r3,r10
        0x000045ee:    2a03        .*      CMP      r2,#3
        0x000045f0:    f080814b    ..K.    BCS.W    0x488a ; am_util_stdio_vsprintf + 3282
        0x000045f4:    e1ba        ..      B        0x496c ; am_util_stdio_vsprintf + 3508
        0x000045f6:    2000        .       MOVS     r0,#0
        0x000045f8:    f1ba0f00    ....    CMP      r10,#0
        0x000045fc:    4480        .D      ADD      r8,r8,r0
        0x000045fe:    bf18        ..      IT       NE
        0x00004600:    4482        .D      ADDNE    r10,r10,r0
        0x00004602:    f06f0003    o...    MVN      r0,#3
        0x00004606:    bf00        ..      NOP      
        0x00004608:    f1b90f00    ....    CMP      r9,#0
        0x0000460c:    d03c        <.      BEQ      0x4688 ; am_util_stdio_vsprintf + 2768
        0x0000460e:    ea4f019e    O...    LSR      r1,lr,#2
        0x00004612:    ea5f0359    _.Y.    LSRS     r3,r9,#1
        0x00004616:    f06f0209    o...    MVN      r2,#9
        0x0000461a:    f04f35ff    O..5    MOV      r5,#0xffffffff
        0x0000461e:    ea417189    A..q    ORR      r1,r1,r9,LSL #30
        0x00004622:    ea4f073e    O.>.    RRX      r7,lr
        0x00004626:    19c9        ..      ADDS     r1,r1,r7
        0x00004628:    eb430399    C...    ADC      r3,r3,r9,LSR #2
        0x0000462c:    090f        ..      LSRS     r7,r1,#4
        0x0000462e:    ea477703    G..w    ORR      r7,r7,r3,LSL #28
        0x00004632:    091e        ..      LSRS     r6,r3,#4
        0x00004634:    19c9        ..      ADDS     r1,r1,r7
        0x00004636:    4173        sA      ADCS     r3,r3,r6
        0x00004638:    0a0f        ..      LSRS     r7,r1,#8
        0x0000463a:    ea476703    G..g    ORR      r7,r7,r3,LSL #24
        0x0000463e:    0a1e        ..      LSRS     r6,r3,#8
        0x00004640:    19c9        ..      ADDS     r1,r1,r7
        0x00004642:    4173        sA      ADCS     r3,r3,r6
        0x00004644:    0c0f        ..      LSRS     r7,r1,#16
        0x00004646:    ea474703    G..G    ORR      r7,r7,r3,LSL #16
        0x0000464a:    0c1e        ..      LSRS     r6,r3,#16
        0x0000464c:    19c9        ..      ADDS     r1,r1,r7
        0x0000464e:    4173        sA      ADCS     r3,r3,r6
        0x00004650:    18c9        ..      ADDS     r1,r1,r3
        0x00004652:    f1430300    C...    ADC      r3,r3,#0
        0x00004656:    08c9        ..      LSRS     r1,r1,#3
        0x00004658:    ea417143    A.Cq    ORR      r1,r1,r3,LSL #29
        0x0000465c:    fba17602    ...v    UMULL    r7,r6,r1,r2
        0x00004660:    fb016605    ...f    MLA      r6,r1,r5,r6
        0x00004664:    08dd        ..      LSRS     r5,r3,#3
        0x00004666:    eb17070e    ....    ADDS     r7,r7,lr
        0x0000466a:    fb056602    ...f    MLA      r6,r5,r2,r6
        0x0000466e:    eb460609    F...    ADC      r6,r6,r9
        0x00004672:    3706        .7      ADDS     r7,#6
        0x00004674:    f1460600    F...    ADC      r6,r6,#0
        0x00004678:    093f        ?.      LSRS     r7,r7,#4
        0x0000467a:    ea477706    G..w    ORR      r7,r7,r6,LSL #28
        0x0000467e:    0935        5.      LSRS     r5,r6,#4
        0x00004680:    19c9        ..      ADDS     r1,r1,r7
        0x00004682:    eb4509d3    E...    ADC      r9,r5,r3,LSR #3
        0x00004686:    e016        ..      B        0x46b6 ; am_util_stdio_vsprintf + 2814
        0x00004688:    ea4f015e    O.^.    LSR      r1,lr,#1
        0x0000468c:    f04f0900    O...    MOV      r9,#0
        0x00004690:    f06f0209    o...    MVN      r2,#9
        0x00004694:    eb01019e    ....    ADD      r1,r1,lr,LSR #2
        0x00004698:    eb011111    ....    ADD      r1,r1,r1,LSR #4
        0x0000469c:    eb012111    ...!    ADD      r1,r1,r1,LSR #8
        0x000046a0:    eb014111    ...A    ADD      r1,r1,r1,LSR #16
        0x000046a4:    08cb        ..      LSRS     r3,r1,#3
        0x000046a6:    eb030383    ....    ADD      r3,r3,r3,LSL #2
        0x000046aa:    ebae0343    ..C.    SUB      r3,lr,r3,LSL #1
        0x000046ae:    3306        .3      ADDS     r3,#6
        0x000046b0:    091b        ..      LSRS     r3,r3,#4
        0x000046b2:    eb0301d1    ....    ADD      r1,r3,r1,LSR #3
        0x000046b6:    fb01e202    ....    MLA      r2,r1,r2,lr
        0x000046ba:    468e        .F      MOV      lr,r1
        0x000046bc:    f1020330    ..0.    ADD      r3,r2,#0x30
        0x000046c0:    1822        ".      ADDS     r2,r4,r0
        0x000046c2:    3001        .0      ADDS     r0,#1
        0x000046c4:    7113        .q      STRB     r3,[r2,#4]
        0x000046c6:    ea510209    Q...    ORRS     r2,r1,r9
        0x000046ca:    d19d        ..      BNE      0x4608 ; am_util_stdio_vsprintf + 2640
        0x000046cc:    f2400ed0    @...    MOVW     lr,#0xd0
        0x000046d0:    f1ba0f00    ....    CMP      r10,#0
        0x000046d4:    f04f050d    O...    MOV      r5,#0xd
        0x000046d8:    f2c10e00    ....    MOVT     lr,#0x1000
        0x000046dc:    f000814a    ..J.    BEQ.W    0x4974 ; am_util_stdio_vsprintf + 3516
        0x000046e0:    1cc1        ..      ADDS     r1,r0,#3
        0x000046e2:    f88a3000    ...0    STRB     r3,[r10,#0]
        0x000046e6:    f0008141    ..A.    BEQ.W    0x496c ; am_util_stdio_vsprintf + 3508
        0x000046ea:    f0110703    ....    ANDS     r7,r1,#3
        0x000046ee:    f1000202    ....    ADD      r2,r0,#2
        0x000046f2:    f00080a8    ....    BEQ.W    0x4846 ; am_util_stdio_vsprintf + 3214
        0x000046f6:    1821        !.      ADDS     r1,r4,r0
        0x000046f8:    4653        SF      MOV      r3,r10
        0x000046fa:    2f01        ./      CMP      r7,#1
        0x000046fc:    788e        .x      LDRB     r6,[r1,#2]
        0x000046fe:    f8036f01    ...o    STRB     r6,[r3,#1]!
        0x00004702:    f04080b0    @...    BNE.W    0x4866 ; am_util_stdio_vsprintf + 3246
        0x00004706:    4611        .F      MOV      r1,r2
        0x00004708:    2a03        .*      CMP      r2,#3
        0x0000470a:    f080811c    ....    BCS.W    0x4946 ; am_util_stdio_vsprintf + 3470
        0x0000470e:    e12d        -.      B        0x496c ; am_util_stdio_vsprintf + 3508
        0x00004710:    f0410101    A...    ORR      r1,r1,#1
        0x00004714:    9b03        ..      LDR      r3,[sp,#0xc]
        0x00004716:    1a58        X.      SUBS     r0,r3,r1
        0x00004718:    2801        .(      CMP      r0,#1
        0x0000471a:    f6bfae76    ..v.    BGE      0x440a ; am_util_stdio_vsprintf + 2130
        0x0000471e:    2000        .       MOVS     r0,#0
        0x00004720:    f1ba0f00    ....    CMP      r10,#0
        0x00004724:    4480        .D      ADD      r8,r8,r0
        0x00004726:    f04f0130    O.0.    MOV      r1,#0x30
        0x0000472a:    bf18        ..      IT       NE
        0x0000472c:    4482        .D      ADDNE    r10,r10,r0
        0x0000472e:    ea570002    W...    ORRS     r0,r7,r2
        0x00004732:    d019        ..      BEQ      0x4768 ; am_util_stdio_vsprintf + 2992
        0x00004734:    2000        .       MOVS     r0,#0
        0x00004736:    bf00        ..      NOP      
        0x00004738:    f007010f    ....    AND      r1,r7,#0xf
        0x0000473c:    290a        .)      CMP      r1,#0xa
        0x0000473e:    bf28        (.      IT       CS
        0x00004740:    fa5cf181    \...    UXTABCS  r1,r12,r1
        0x00004744:    3130        01      ADDS     r1,r1,#0x30
        0x00004746:    f8091000    ....    STRB     r1,[r9,r0]
        0x0000474a:    0939        9.      LSRS     r1,r7,#4
        0x0000474c:    3001        .0      ADDS     r0,#1
        0x0000474e:    ea417702    A..w    ORR      r7,r1,r2,LSL #28
        0x00004752:    ea471112    G...    ORR      r1,r7,r2,LSR #4
        0x00004756:    0912        ..      LSRS     r2,r2,#4
        0x00004758:    2900        .)      CMP      r1,#0
        0x0000475a:    d1ed        ..      BNE      0x4738 ; am_util_stdio_vsprintf + 2944
        0x0000475c:    f8ddc01c    ....    LDR      r12,[sp,#0x1c]
        0x00004760:    f1ba0f00    ....    CMP      r10,#0
        0x00004764:    d108        ..      BNE      0x4778 ; am_util_stdio_vsprintf + 3008
        0x00004766:    e02d        -.      B        0x47c4 ; am_util_stdio_vsprintf + 3084
        0x00004768:    f88d1023    ..#.    STRB     r1,[sp,#0x23]
        0x0000476c:    2001        .       MOVS     r0,#1
        0x0000476e:    f8ddc01c    ....    LDR      r12,[sp,#0x1c]
        0x00004772:    f1ba0f00    ....    CMP      r10,#0
        0x00004776:    d025        %.      BEQ      0x47c4 ; am_util_stdio_vsprintf + 3084
        0x00004778:    f0100703    ....    ANDS     r7,r0,#3
        0x0000477c:    f1a00301    ....    SUB      r3,r0,#1
        0x00004780:    4601        .F      MOV      r1,r0
        0x00004782:    4652        RF      MOV      r2,r10
        0x00004784:    d007        ..      BEQ      0x4796 ; am_util_stdio_vsprintf + 3038
        0x00004786:    f8191003    ....    LDRB     r1,[r9,r3]
        0x0000478a:    4652        RF      MOV      r2,r10
        0x0000478c:    2f01        ./      CMP      r7,#1
        0x0000478e:    f8021b01    ....    STRB     r1,[r2],#1
        0x00004792:    d11e        ..      BNE      0x47d2 ; am_util_stdio_vsprintf + 3098
        0x00004794:    4619        .F      MOV      r1,r3
        0x00004796:    2b03        .+      CMP      r3,#3
        0x00004798:    d311        ..      BCC      0x47be ; am_util_stdio_vsprintf + 3078
        0x0000479a:    bf00        ..      NOP      
        0x0000479c:    eb0c0301    ....    ADD      r3,r12,r1
        0x000047a0:    785f        _x      LDRB     r7,[r3,#1]
        0x000047a2:    7017        .p      STRB     r7,[r2,#0]
        0x000047a4:    f81c7001    ...p    LDRB     r7,[r12,r1]
        0x000047a8:    3904        .9      SUBS     r1,#4
        0x000047aa:    7057        Wp      STRB     r7,[r2,#1]
        0x000047ac:    f8137c01    ...|    LDRB     r7,[r3,#-1]
        0x000047b0:    7097        .p      STRB     r7,[r2,#2]
        0x000047b2:    f8133c02    ...<    LDRB     r3,[r3,#-2]
        0x000047b6:    70d3        .p      STRB     r3,[r2,#3]
        0x000047b8:    f1020204    ....    ADD      r2,r2,#4
        0x000047bc:    d1ee        ..      BNE      0x479c ; am_util_stdio_vsprintf + 3044
        0x000047be:    2100        .!      MOVS     r1,#0
        0x000047c0:    f80a1000    ....    STRB     r1,[r10,r0]
        0x000047c4:    f1ba0f00    ....    CMP      r10,#0
        0x000047c8:    4480        .D      ADD      r8,r8,r0
        0x000047ca:    bf18        ..      IT       NE
        0x000047cc:    4482        .D      ADDNE    r10,r10,r0
        0x000047ce:    250d        .%      MOVS     r5,#0xd
        0x000047d0:    e29e        ..      B        0x4d10 ; am_util_stdio_vsprintf + 4440
        0x000047d2:    1e81        ..      SUBS     r1,r0,#2
        0x000047d4:    2f02        ./      CMP      r7,#2
        0x000047d6:    f8192001    ...     LDRB     r2,[r9,r1]
        0x000047da:    f88a2001    ...     STRB     r2,[r10,#1]
        0x000047de:    d116        ..      BNE      0x480e ; am_util_stdio_vsprintf + 3158
        0x000047e0:    f10a0202    ....    ADD      r2,r10,#2
        0x000047e4:    2b03        .+      CMP      r3,#3
        0x000047e6:    d2d9        ..      BCS      0x479c ; am_util_stdio_vsprintf + 3044
        0x000047e8:    e7e9        ..      B        0x47be ; am_util_stdio_vsprintf + 3078
        0x000047ea:    f0410102    A...    ORR      r1,r1,#2
        0x000047ee:    9b03        ..      LDR      r3,[sp,#0xc]
        0x000047f0:    1a58        X.      SUBS     r0,r3,r1
        0x000047f2:    2801        .(      CMP      r0,#1
        0x000047f4:    f6bfae09    ....    BGE      0x440a ; am_util_stdio_vsprintf + 2130
        0x000047f8:    e791        ..      B        0x471e ; am_util_stdio_vsprintf + 2918
        0x000047fa:    7849        Ix      LDRB     r1,[r1,#1]
        0x000047fc:    4653        SF      MOV      r3,r10
        0x000047fe:    2f02        ./      CMP      r7,#2
        0x00004800:    f8031f02    ....    STRB     r1,[r3,#2]!
        0x00004804:    d139        9.      BNE      0x487a ; am_util_stdio_vsprintf + 3266
        0x00004806:    1c41        A.      ADDS     r1,r0,#1
        0x00004808:    2a03        .*      CMP      r2,#3
        0x0000480a:    d23e        >.      BCS      0x488a ; am_util_stdio_vsprintf + 3282
        0x0000480c:    e0ae        ..      B        0x496c ; am_util_stdio_vsprintf + 3508
        0x0000480e:    1ec1        ..      SUBS     r1,r0,#3
        0x00004810:    f8192001    ...     LDRB     r2,[r9,r1]
        0x00004814:    f88a2002    ...     STRB     r2,[r10,#2]
        0x00004818:    f10a0203    ....    ADD      r2,r10,#3
        0x0000481c:    2b03        .+      CMP      r3,#3
        0x0000481e:    d2bd        ..      BCS      0x479c ; am_util_stdio_vsprintf + 3044
        0x00004820:    e7cd        ..      B        0x47be ; am_util_stdio_vsprintf + 3078
        0x00004822:    4601        .F      MOV      r1,r0
        0x00004824:    9b03        ..      LDR      r3,[sp,#0xc]
        0x00004826:    1a58        X.      SUBS     r0,r3,r1
        0x00004828:    2801        .(      CMP      r0,#1
        0x0000482a:    f6bfadee    ....    BGE      0x440a ; am_util_stdio_vsprintf + 2130
        0x0000482e:    e776        v.      B        0x471e ; am_util_stdio_vsprintf + 2918
        0x00004830:    2000        .       MOVS     r0,#0
        0x00004832:    f1ba0f00    ....    CMP      r10,#0
        0x00004836:    4480        .D      ADD      r8,r8,r0
        0x00004838:    f04f0400    O...    MOV      r4,#0
        0x0000483c:    bf18        ..      IT       NE
        0x0000483e:    4482        .D      ADDNE    r10,r10,r0
        0x00004840:    7819        .x      LDRB     r1,[r3,#0]
        0x00004842:    bbe1        ..      CBNZ     r1,0x48be ; am_util_stdio_vsprintf + 3334
        0x00004844:    e049        I.      B        0x48da ; am_util_stdio_vsprintf + 3362
        0x00004846:    4653        SF      MOV      r3,r10
        0x00004848:    2a03        .*      CMP      r2,#3
        0x0000484a:    d27c        |.      BCS      0x4946 ; am_util_stdio_vsprintf + 3470
        0x0000484c:    e08e        ..      B        0x496c ; am_util_stdio_vsprintf + 3508
        0x0000484e:    f0420201    B...    ORR      r2,r2,#1
        0x00004852:    2c01        .,      CMP      r4,#1
        0x00004854:    f6bfaea5    ....    BGE      0x45a2 ; am_util_stdio_vsprintf + 2538
        0x00004858:    e02f        /.      B        0x48ba ; am_util_stdio_vsprintf + 3330
        0x0000485a:    f0420202    B...    ORR      r2,r2,#2
        0x0000485e:    2c01        .,      CMP      r4,#1
        0x00004860:    f6bfae9f    ....    BGE      0x45a2 ; am_util_stdio_vsprintf + 2538
        0x00004864:    e029        ).      B        0x48ba ; am_util_stdio_vsprintf + 3330
        0x00004866:    7849        Ix      LDRB     r1,[r1,#1]
        0x00004868:    4653        SF      MOV      r3,r10
        0x0000486a:    2f02        ./      CMP      r7,#2
        0x0000486c:    f8031f02    ....    STRB     r1,[r3,#2]!
        0x00004870:    d162        b.      BNE      0x4938 ; am_util_stdio_vsprintf + 3456
        0x00004872:    1c41        A.      ADDS     r1,r0,#1
        0x00004874:    2a03        .*      CMP      r2,#3
        0x00004876:    d266        f.      BCS      0x4946 ; am_util_stdio_vsprintf + 3470
        0x00004878:    e078        x.      B        0x496c ; am_util_stdio_vsprintf + 3508
        0x0000487a:    f81b1000    ....    LDRB     r1,[r11,r0]
        0x0000487e:    4653        SF      MOV      r3,r10
        0x00004880:    f8031f03    ....    STRB     r1,[r3,#3]!
        0x00004884:    4601        .F      MOV      r1,r0
        0x00004886:    2a03        .*      CMP      r2,#3
        0x00004888:    d370        p.      BCC      0x496c ; am_util_stdio_vsprintf + 3508
        0x0000488a:    1c9a        ..      ADDS     r2,r3,#2
        0x0000488c:    eb0c0301    ....    ADD      r3,r12,r1
        0x00004890:    785f        _x      LDRB     r7,[r3,#1]
        0x00004892:    f8027c01    ...|    STRB     r7,[r2,#-1]
        0x00004896:    f81c7001    ...p    LDRB     r7,[r12,r1]
        0x0000489a:    3904        .9      SUBS     r1,#4
        0x0000489c:    7017        .p      STRB     r7,[r2,#0]
        0x0000489e:    f8137c01    ...|    LDRB     r7,[r3,#-1]
        0x000048a2:    7057        Wp      STRB     r7,[r2,#1]
        0x000048a4:    f8133c02    ...<    LDRB     r3,[r3,#-2]
        0x000048a8:    7093        .p      STRB     r3,[r2,#2]
        0x000048aa:    f1020204    ....    ADD      r2,r2,#4
        0x000048ae:    d1ed        ..      BNE      0x488c ; am_util_stdio_vsprintf + 3284
        0x000048b0:    e05c        \.      B        0x496c ; am_util_stdio_vsprintf + 3508
        0x000048b2:    1c42        B.      ADDS     r2,r0,#1
        0x000048b4:    2c01        .,      CMP      r4,#1
        0x000048b6:    f6bfae74    ..t.    BGE      0x45a2 ; am_util_stdio_vsprintf + 2538
        0x000048ba:    7819        .x      LDRB     r1,[r3,#0]
        0x000048bc:    b169        i.      CBZ      r1,0x48da ; am_util_stdio_vsprintf + 3362
        0x000048be:    1c58        X.      ADDS     r0,r3,#1
        0x000048c0:    f1ba0f00    ....    CMP      r10,#0
        0x000048c4:    f1080801    ....    ADD      r8,r8,#1
        0x000048c8:    bf14        ..      ITE      NE
        0x000048ca:    f80a1b01    ....    STRBNE   r1,[r10],#1
        0x000048ce:    f04f0a00    O...    MOVEQ    r10,#0
        0x000048d2:    f8101b01    ....    LDRB     r1,[r0],#1
        0x000048d6:    2900        .)      CMP      r1,#0
        0x000048d8:    d1f2        ..      BNE      0x48c0 ; am_util_stdio_vsprintf + 3336
        0x000048da:    2c00        .,      CMP      r4,#0
        0x000048dc:    f0008218    ....    BEQ.W    0x4d10 ; am_util_stdio_vsprintf + 4440
        0x000048e0:    4260        `B      RSBS     r0,r4,#0
        0x000048e2:    4282        .B      CMP      r2,r0
        0x000048e4:    f0808214    ....    BCS.W    0x4d10 ; am_util_stdio_vsprintf + 4440
        0x000048e8:    1a80        ..      SUBS     r0,r0,r2
        0x000048ea:    2801        .(      CMP      r0,#1
        0x000048ec:    db0a        ..      BLT      0x4904 ; am_util_stdio_vsprintf + 3404
        0x000048ee:    1911        ..      ADDS     r1,r2,r4
        0x000048f0:    4652        RF      MOV      r2,r10
        0x000048f2:    bf00        ..      NOP      
        0x000048f4:    2a00        .*      CMP      r2,#0
        0x000048f6:    bf14        ..      ITE      NE
        0x000048f8:    f8026b01    ...k    STRBNE   r6,[r2],#1
        0x000048fc:    2200        ."      MOVEQ    r2,#0
        0x000048fe:    3101        .1      ADDS     r1,#1
        0x00004900:    d1f8        ..      BNE      0x48f4 ; am_util_stdio_vsprintf + 3388
        0x00004902:    e000        ..      B        0x4906 ; am_util_stdio_vsprintf + 3406
        0x00004904:    2000        .       MOVS     r0,#0
        0x00004906:    f1ba0f00    ....    CMP      r10,#0
        0x0000490a:    4480        .D      ADD      r8,r8,r0
        0x0000490c:    bf18        ..      IT       NE
        0x0000490e:    4482        .D      ADDNE    r10,r10,r0
        0x00004910:    e1fe        ..      B        0x4d10 ; am_util_stdio_vsprintf + 4440
        0x00004912:    297f        .)      CMP      r1,#0x7f
        0x00004914:    d33c        <.      BCC      0x4990 ; am_util_stdio_vsprintf + 3544
        0x00004916:    f1c10396    ....    RSB      r3,r1,#0x96
        0x0000491a:    397e        ~9      SUBS     r1,r1,#0x7e
        0x0000491c:    fa02f101    ....    LSL      r1,r2,r1
        0x00004920:    fa22f703    "...    LSR      r7,r2,r3
        0x00004924:    f021497f    !..I    BIC      r9,r1,#0xff000000
        0x00004928:    f1b03fff    ...?    CMP      r0,#0xffffffff
        0x0000492c:    46d4        .F      MOV      r12,r10
        0x0000492e:    f04f0130    O.0.    MOV      r1,#0x30
        0x00004932:    f73facd0    ?...    BGT      0x42d6 ; am_util_stdio_vsprintf + 1822
        0x00004936:    e4ca        ..      B        0x42ce ; am_util_stdio_vsprintf + 1814
        0x00004938:    5c21        !\      LDRB     r1,[r4,r0]
        0x0000493a:    4653        SF      MOV      r3,r10
        0x0000493c:    f8031f03    ....    STRB     r1,[r3,#3]!
        0x00004940:    4601        .F      MOV      r1,r0
        0x00004942:    2a03        .*      CMP      r2,#3
        0x00004944:    d312        ..      BCC      0x496c ; am_util_stdio_vsprintf + 3508
        0x00004946:    1c9a        ..      ADDS     r2,r3,#2
        0x00004948:    eb0c0301    ....    ADD      r3,r12,r1
        0x0000494c:    785f        _x      LDRB     r7,[r3,#1]
        0x0000494e:    f8027c01    ...|    STRB     r7,[r2,#-1]
        0x00004952:    f81c7001    ...p    LDRB     r7,[r12,r1]
        0x00004956:    3904        .9      SUBS     r1,#4
        0x00004958:    7017        .p      STRB     r7,[r2,#0]
        0x0000495a:    f8137c01    ...|    LDRB     r7,[r3,#-1]
        0x0000495e:    7057        Wp      STRB     r7,[r2,#1]
        0x00004960:    f8133c02    ...<    LDRB     r3,[r3,#-2]
        0x00004964:    7093        .p      STRB     r3,[r2,#2]
        0x00004966:    f1020204    ....    ADD      r2,r2,#4
        0x0000496a:    d1ed        ..      BNE      0x4948 ; am_util_stdio_vsprintf + 3472
        0x0000496c:    eb0a0100    ....    ADD      r1,r10,r0
        0x00004970:    2200        ."      MOVS     r2,#0
        0x00004972:    710a        .q      STRB     r2,[r1,#4]
        0x00004974:    eb0a0100    ....    ADD      r1,r10,r0
        0x00004978:    f1ba0f00    ....    CMP      r10,#0
        0x0000497c:    4440        @D      ADD      r0,r0,r8
        0x0000497e:    bf18        ..      IT       NE
        0x00004980:    f1010a04    ....    ADDNE    r10,r1,#4
        0x00004984:    f1000804    ....    ADD      r8,r0,#4
        0x00004988:    e1c2        ..      B        0x4d10 ; am_util_stdio_vsprintf + 4440
        0x0000498a:    f80c1b01    ....    STRB     r1,[r12],#1
        0x0000498e:    e104        ..      B        0x4b9a ; am_util_stdio_vsprintf + 4066
        0x00004990:    f1c1017e    ..~.    RSB      r1,r1,#0x7e
        0x00004994:    2700        .'      MOVS     r7,#0
        0x00004996:    fa22f901    "...    LSR      r9,r2,r1
        0x0000499a:    f1b03fff    ...?    CMP      r0,#0xffffffff
        0x0000499e:    46d4        .F      MOV      r12,r10
        0x000049a0:    f04f0130    O.0.    MOV      r1,#0x30
        0x000049a4:    f73fac97    ?...    BGT      0x42d6 ; am_util_stdio_vsprintf + 1822
        0x000049a8:    e491        ..      B        0x42ce ; am_util_stdio_vsprintf + 1814
        0x000049aa:    427f        .B      RSBS     r7,r7,#0
        0x000049ac:    202d        -       MOVS     r0,#0x2d
        0x000049ae:    f04f33ff    O..3    MOV      r3,#0xffffffff
        0x000049b2:    17f9        ..      ASRS     r1,r7,#31
        0x000049b4:    f88c0000    ....    STRB     r0,[r12,#0]
        0x000049b8:    b3c9        ..      CBZ      r1,0x4a2e ; am_util_stdio_vsprintf + 3702
        0x000049ba:    08b8        ..      LSRS     r0,r7,#2
        0x000049bc:    ea5f0251    _.Q.    LSRS.W   r2,r1,#1
        0x000049c0:    f06f0e09    o...    MVN      lr,#9
        0x000049c4:    f04f36ff    O..6    MOV      r6,#0xffffffff
        0x000049c8:    ea407081    @..p    ORR      r0,r0,r1,LSL #30
        0x000049cc:    ea4f0437    O.7.    RRX      r4,r7
        0x000049d0:    1900        ..      ADDS     r0,r0,r4
        0x000049d2:    eb420291    B...    ADC      r2,r2,r1,LSR #2
        0x000049d6:    0904        ..      LSRS     r4,r0,#4
        0x000049d8:    ea447402    D..t    ORR      r4,r4,r2,LSL #28
        0x000049dc:    0915        ..      LSRS     r5,r2,#4
        0x000049de:    1900        ..      ADDS     r0,r0,r4
        0x000049e0:    416a        jA      ADCS     r2,r2,r5
        0x000049e2:    0a04        ..      LSRS     r4,r0,#8
        0x000049e4:    ea446402    D..d    ORR      r4,r4,r2,LSL #24
        0x000049e8:    0a15        ..      LSRS     r5,r2,#8
        0x000049ea:    1900        ..      ADDS     r0,r0,r4
        0x000049ec:    416a        jA      ADCS     r2,r2,r5
        0x000049ee:    0c04        ..      LSRS     r4,r0,#16
        0x000049f0:    ea444402    D..D    ORR      r4,r4,r2,LSL #16
        0x000049f4:    0c15        ..      LSRS     r5,r2,#16
        0x000049f6:    1900        ..      ADDS     r0,r0,r4
        0x000049f8:    416a        jA      ADCS     r2,r2,r5
        0x000049fa:    1880        ..      ADDS     r0,r0,r2
        0x000049fc:    f1420200    B...    ADC      r2,r2,#0
        0x00004a00:    08c0        ..      LSRS     r0,r0,#3
        0x00004a02:    ea407042    @.Bp    ORR      r0,r0,r2,LSL #29
        0x00004a06:    fba0450e    ...E    UMULL    r4,r5,r0,lr
        0x00004a0a:    fb005506    ...U    MLA      r5,r0,r6,r5
        0x00004a0e:    08d6        ..      LSRS     r6,r2,#3
        0x00004a10:    19e4        ..      ADDS     r4,r4,r7
        0x00004a12:    fb06550e    ...U    MLA      r5,r6,lr,r5
        0x00004a16:    4169        iA      ADCS     r1,r1,r5
        0x00004a18:    3406        .4      ADDS     r4,#6
        0x00004a1a:    f1410100    A...    ADC      r1,r1,#0
        0x00004a1e:    0924        $.      LSRS     r4,r4,#4
        0x00004a20:    090d        ..      LSRS     r5,r1,#4
        0x00004a22:    ea447101    D..q    ORR      r1,r4,r1,LSL #28
        0x00004a26:    180e        ..      ADDS     r6,r1,r0
        0x00004a28:    eb4501d2    E...    ADC      r1,r5,r2,LSR #3
        0x00004a2c:    e014        ..      B        0x4a58 ; am_util_stdio_vsprintf + 3744
        0x00004a2e:    0878        x.      LSRS     r0,r7,#1
        0x00004a30:    f06f0e09    o...    MVN      lr,#9
        0x00004a34:    eb000097    ....    ADD      r0,r0,r7,LSR #2
        0x00004a38:    eb001010    ....    ADD      r0,r0,r0,LSR #4
        0x00004a3c:    eb002010    ...     ADD      r0,r0,r0,LSR #8
        0x00004a40:    eb004010    ...@    ADD      r0,r0,r0,LSR #16
        0x00004a44:    08c1        ..      LSRS     r1,r0,#3
        0x00004a46:    eb010181    ....    ADD      r1,r1,r1,LSL #2
        0x00004a4a:    eba70141    ..A.    SUB      r1,r7,r1,LSL #1
        0x00004a4e:    3106        .1      ADDS     r1,#6
        0x00004a50:    0909        ..      LSRS     r1,r1,#4
        0x00004a52:    eb0106d0    ....    ADD      r6,r1,r0,LSR #3
        0x00004a56:    2100        .!      MOVS     r1,#0
        0x00004a58:    fb06700e    ...p    MLA      r0,r6,lr,r7
        0x00004a5c:    4637        7F      MOV      r7,r6
        0x00004a5e:    f1000230    ..0.    ADD      r2,r0,#0x30
        0x00004a62:    9807        ..      LDR      r0,[sp,#0x1c]
        0x00004a64:    4418        .D      ADD      r0,r0,r3
        0x00004a66:    3301        .3      ADDS     r3,#1
        0x00004a68:    70c2        .p      STRB     r2,[r0,#3]
        0x00004a6a:    ea560001    V...    ORRS     r0,r6,r1
        0x00004a6e:    d1a3        ..      BNE      0x49b8 ; am_util_stdio_vsprintf + 3584
        0x00004a70:    4667        gF      MOV      r7,r12
        0x00004a72:    2b00        .+      CMP      r3,#0
        0x00004a74:    f8072f01    .../    STRB     r2,[r7,#1]!
        0x00004a78:    d052        R.      BEQ      0x4b20 ; am_util_stdio_vsprintf + 3944
        0x00004a7a:    f0130103    ....    ANDS     r1,r3,#3
        0x00004a7e:    f1a30e01    ....    SUB      lr,r3,#1
        0x00004a82:    d00e        ..      BEQ      0x4aa2 ; am_util_stdio_vsprintf + 3818
        0x00004a84:    9c07        ..      LDR      r4,[sp,#0x1c]
        0x00004a86:    4666        fF      MOV      r6,r12
        0x00004a88:    2901        .)      CMP      r1,#1
        0x00004a8a:    eb040203    ....    ADD      r2,r4,r3
        0x00004a8e:    7850        Px      LDRB     r0,[r2,#1]
        0x00004a90:    f8060f02    ....    STRB     r0,[r6,#2]!
        0x00004a94:    d111        ..      BNE      0x4aba ; am_util_stdio_vsprintf + 3842
        0x00004a96:    4671        qF      MOV      r1,lr
        0x00004a98:    9d07        ..      LDR      r5,[sp,#0x1c]
        0x00004a9a:    f1be0f03    ....    CMP      lr,#3
        0x00004a9e:    d22e        ..      BCS      0x4afe ; am_util_stdio_vsprintf + 3910
        0x00004aa0:    e03e        >.      B        0x4b20 ; am_util_stdio_vsprintf + 3944
        0x00004aa2:    4619        .F      MOV      r1,r3
        0x00004aa4:    463e        >F      MOV      r6,r7
        0x00004aa6:    9d07        ..      LDR      r5,[sp,#0x1c]
        0x00004aa8:    f1be0f03    ....    CMP      lr,#3
        0x00004aac:    d227        '.      BCS      0x4afe ; am_util_stdio_vsprintf + 3910
        0x00004aae:    e037        7.      B        0x4b20 ; am_util_stdio_vsprintf + 3944
        0x00004ab0:    4666        fF      MOV      r6,r12
        0x00004ab2:    9d07        ..      LDR      r5,[sp,#0x1c]
        0x00004ab4:    2f03        ./      CMP      r7,#3
        0x00004ab6:    d242        B.      BCS      0x4b3e ; am_util_stdio_vsprintf + 3974
        0x00004ab8:    e052        R.      B        0x4b60 ; am_util_stdio_vsprintf + 4008
        0x00004aba:    5ce0        .\      LDRB     r0,[r4,r3]
        0x00004abc:    4666        fF      MOV      r6,r12
        0x00004abe:    2902        .)      CMP      r1,#2
        0x00004ac0:    f8060f03    ....    STRB     r0,[r6,#3]!
        0x00004ac4:    d111        ..      BNE      0x4aea ; am_util_stdio_vsprintf + 3890
        0x00004ac6:    1e99        ..      SUBS     r1,r3,#2
        0x00004ac8:    9d07        ..      LDR      r5,[sp,#0x1c]
        0x00004aca:    f1be0f03    ....    CMP      lr,#3
        0x00004ace:    d216        ..      BCS      0x4afe ; am_util_stdio_vsprintf + 3910
        0x00004ad0:    e026        &.      B        0x4b20 ; am_util_stdio_vsprintf + 3944
        0x00004ad2:    7848        Hx      LDRB     r0,[r1,#1]
        0x00004ad4:    4666        fF      MOV      r6,r12
        0x00004ad6:    2a02        .*      CMP      r2,#2
        0x00004ad8:    f8060f02    ....    STRB     r0,[r6,#2]!
        0x00004adc:    d124        $.      BNE      0x4b28 ; am_util_stdio_vsprintf + 3952
        0x00004ade:    f10e0101    ....    ADD      r1,lr,#1
        0x00004ae2:    9d07        ..      LDR      r5,[sp,#0x1c]
        0x00004ae4:    2f03        ./      CMP      r7,#3
        0x00004ae6:    d22a        *.      BCS      0x4b3e ; am_util_stdio_vsprintf + 3974
        0x00004ae8:    e03a        :.      B        0x4b60 ; am_util_stdio_vsprintf + 4008
        0x00004aea:    f8120c01    ....    LDRB     r0,[r2,#-1]
        0x00004aee:    1ed9        ..      SUBS     r1,r3,#3
        0x00004af0:    f80c0f04    ....    STRB     r0,[r12,#4]!
        0x00004af4:    4666        fF      MOV      r6,r12
        0x00004af6:    9d07        ..      LDR      r5,[sp,#0x1c]
        0x00004af8:    f1be0f03    ....    CMP      lr,#3
        0x00004afc:    d310        ..      BCC      0x4b20 ; am_util_stdio_vsprintf + 3944
        0x00004afe:    1cb0        ..      ADDS     r0,r6,#2
        0x00004b00:    186a        j.      ADDS     r2,r5,r1
        0x00004b02:    7856        Vx      LDRB     r6,[r2,#1]
        0x00004b04:    f8006c01    ...l    STRB     r6,[r0,#-1]
        0x00004b08:    5c6e        n\      LDRB     r6,[r5,r1]
        0x00004b0a:    3904        .9      SUBS     r1,#4
        0x00004b0c:    7006        .p      STRB     r6,[r0,#0]
        0x00004b0e:    f8126c01    ...l    LDRB     r6,[r2,#-1]
        0x00004b12:    7046        Fp      STRB     r6,[r0,#1]
        0x00004b14:    f8122c02    ...,    LDRB     r2,[r2,#-2]
        0x00004b18:    7082        .p      STRB     r2,[r0,#2]
        0x00004b1a:    f1000004    ....    ADD      r0,r0,#4
        0x00004b1e:    d1ef        ..      BNE      0x4b00 ; am_util_stdio_vsprintf + 3912
        0x00004b20:    18f8        ..      ADDS     r0,r7,r3
        0x00004b22:    2100        .!      MOVS     r1,#0
        0x00004b24:    7041        Ap      STRB     r1,[r0,#1]
        0x00004b26:    e020         .      B        0x4b6a ; am_util_stdio_vsprintf + 4018
        0x00004b28:    f10d0023    ..#.    ADD      r0,sp,#0x23
        0x00004b2c:    4666        fF      MOV      r6,r12
        0x00004b2e:    4671        qF      MOV      r1,lr
        0x00004b30:    f810000e    ....    LDRB     r0,[r0,lr]
        0x00004b34:    f8060f03    ....    STRB     r0,[r6,#3]!
        0x00004b38:    9d07        ..      LDR      r5,[sp,#0x1c]
        0x00004b3a:    2f03        ./      CMP      r7,#3
        0x00004b3c:    d310        ..      BCC      0x4b60 ; am_util_stdio_vsprintf + 4008
        0x00004b3e:    1cb7        ..      ADDS     r7,r6,#2
        0x00004b40:    1868        h.      ADDS     r0,r5,r1
        0x00004b42:    7842        Bx      LDRB     r2,[r0,#1]
        0x00004b44:    f8072c01    ...,    STRB     r2,[r7,#-1]
        0x00004b48:    5c6a        j\      LDRB     r2,[r5,r1]
        0x00004b4a:    3904        .9      SUBS     r1,#4
        0x00004b4c:    703a        :p      STRB     r2,[r7,#0]
        0x00004b4e:    f8102c01    ...,    LDRB     r2,[r0,#-1]
        0x00004b52:    707a        zp      STRB     r2,[r7,#1]
        0x00004b54:    f8100c02    ....    LDRB     r0,[r0,#-2]
        0x00004b58:    70b8        .p      STRB     r0,[r7,#2]
        0x00004b5a:    f1070704    ....    ADD      r7,r7,#4
        0x00004b5e:    d1ef        ..      BNE      0x4b40 ; am_util_stdio_vsprintf + 3976
        0x00004b60:    eb0c000e    ....    ADD      r0,r12,lr
        0x00004b64:    2100        .!      MOVS     r1,#0
        0x00004b66:    7101        .q      STRB     r1,[r0,#4]
        0x00004b68:    4667        gF      MOV      r7,r12
        0x00004b6a:    f2400ed0    @...    MOVW     lr,#0xd0
        0x00004b6e:    f2c10e00    ....    MOVT     lr,#0x1000
        0x00004b72:    4639        9F      MOV      r1,r7
        0x00004b74:    468c        .F      MOV      r12,r1
        0x00004b76:    f81c0b01    ....    LDRB     r0,[r12],#1
        0x00004b7a:    b150        P.      CBZ      r0,0x4b92 ; am_util_stdio_vsprintf + 4058
        0x00004b7c:    7848        Hx      LDRB     r0,[r1,#1]
        0x00004b7e:    b160        `.      CBZ      r0,0x4b9a ; am_util_stdio_vsprintf + 4066
        0x00004b80:    7888        .x      LDRB     r0,[r1,#2]
        0x00004b82:    b140        @.      CBZ      r0,0x4b96 ; am_util_stdio_vsprintf + 4062
        0x00004b84:    78c8        .x      LDRB     r0,[r1,#3]
        0x00004b86:    1d0f        ..      ADDS     r7,r1,#4
        0x00004b88:    2800        .(      CMP      r0,#0
        0x00004b8a:    d1f2        ..      BNE      0x4b72 ; am_util_stdio_vsprintf + 4026
        0x00004b8c:    f1010c03    ....    ADD      r12,r1,#3
        0x00004b90:    e003        ..      B        0x4b9a ; am_util_stdio_vsprintf + 4066
        0x00004b92:    468c        .F      MOV      r12,r1
        0x00004b94:    e001        ..      B        0x4b9a ; am_util_stdio_vsprintf + 4066
        0x00004b96:    f1010c02    ....    ADD      r12,r1,#2
        0x00004b9a:    4663        cF      MOV      r3,r12
        0x00004b9c:    202e        .       MOVS     r0,#0x2e
        0x00004b9e:    f1b90f00    ....    CMP      r9,#0
        0x00004ba2:    f8030b01    ....    STRB     r0,[r3],#1
        0x00004ba6:    f0008093    ....    BEQ.W    0x4cd0 ; am_util_stdio_vsprintf + 4376
        0x00004baa:    f10a0013    ....    ADD      r0,r10,#0x13
        0x00004bae:    1ac7        ..      SUBS     r7,r0,r3
        0x00004bb0:    455f        _E      CMP      r7,r11
        0x00004bb2:    bfc8        ..      IT       GT
        0x00004bb4:    465f        _F      MOVGT    r7,r11
        0x00004bb6:    2f01        ./      CMP      r7,#1
        0x00004bb8:    db77        w.      BLT      0x4caa ; am_util_stdio_vsprintf + 4338
        0x00004bba:    f1a30014    ....    SUB      r0,r3,#0x14
        0x00004bbe:    ea6f020b    o...    MVN      r2,r11
        0x00004bc2:    f06f0601    o...    MVN      r6,#1
        0x00004bc6:    eba0010a    ....    SUB      r1,r0,r10
        0x00004bca:    4610        .F      MOV      r0,r2
        0x00004bcc:    4291        .B      CMP      r1,r2
        0x00004bce:    bfc8        ..      IT       GT
        0x00004bd0:    4608        .F      MOVGT    r0,r1
        0x00004bd2:    1a30        0.      SUBS     r0,r6,r0
        0x00004bd4:    f0070603    ....    AND      r6,r7,#3
        0x00004bd8:    2803        .(      CMP      r0,#3
        0x00004bda:    d338        8.      BCC      0x4c4e ; am_util_stdio_vsprintf + 4246
        0x00004bdc:    4291        .B      CMP      r1,r2
        0x00004bde:    f64f74fc    O..t    MOV      r4,#0xfffc
        0x00004be2:    f04f0530    O.0.    MOV      r5,#0x30
        0x00004be6:    bfc8        ..      IT       GT
        0x00004be8:    460a        .F      MOVGT    r2,r1
        0x00004bea:    f2c004ff    ....    MOVT     r4,#0xff
        0x00004bee:    1990        ..      ADDS     r0,r2,r6
        0x00004bf0:    1c41        A.      ADDS     r1,r0,#1
        0x00004bf2:    eb090089    ....    ADD      r0,r9,r9,LSL #2
        0x00004bf6:    3104        .1      ADDS     r1,#4
        0x00004bf8:    ea4f0240    O.@.    LSL      r2,r0,#1
        0x00004bfc:    eb056212    ...b    ADD      r2,r5,r2,LSR #24
        0x00004c00:    701a        .p      STRB     r2,[r3,#0]
        0x00004c02:    f1040202    ....    ADD      r2,r4,#2
        0x00004c06:    ea020040    ..@.    AND      r0,r2,r0,LSL #1
        0x00004c0a:    eb000080    ....    ADD      r0,r0,r0,LSL #2
        0x00004c0e:    ea4f0240    O.@.    LSL      r2,r0,#1
        0x00004c12:    ea040040    ..@.    AND      r0,r4,r0,LSL #1
        0x00004c16:    ea456212    E..b    ORR      r2,r5,r2,LSR #24
        0x00004c1a:    eb000080    ....    ADD      r0,r0,r0,LSL #2
        0x00004c1e:    705a        Zp      STRB     r2,[r3,#1]
        0x00004c20:    ea4f0240    O.@.    LSL      r2,r0,#1
        0x00004c24:    ea456212    E..b    ORR      r2,r5,r2,LSR #24
        0x00004c28:    709a        .p      STRB     r2,[r3,#2]
        0x00004c2a:    f1a40204    ....    SUB      r2,r4,#4
        0x00004c2e:    ea020040    ..@.    AND      r0,r2,r0,LSL #1
        0x00004c32:    eb000080    ....    ADD      r0,r0,r0,LSL #2
        0x00004c36:    ea4f0240    O.@.    LSL      r2,r0,#1
        0x00004c3a:    ea456212    E..b    ORR      r2,r5,r2,LSR #24
        0x00004c3e:    70da        .p      STRB     r2,[r3,#3]
        0x00004c40:    f1a4020c    ....    SUB      r2,r4,#0xc
        0x00004c44:    f1030304    ....    ADD      r3,r3,#4
        0x00004c48:    ea020940    ..@.    AND      r9,r2,r0,LSL #1
        0x00004c4c:    d1d1        ..      BNE      0x4bf2 ; am_util_stdio_vsprintf + 4154
        0x00004c4e:    b34e        N.      CBZ      r6,0x4ca4 ; am_util_stdio_vsprintf + 4332
        0x00004c50:    eb090089    ....    ADD      r0,r9,r9,LSL #2
        0x00004c54:    2e01        ..      CMP      r6,#1
        0x00004c56:    ea4f0140    O.@.    LSL      r1,r0,#1
        0x00004c5a:    f04f0030    O.0.    MOV      r0,#0x30
        0x00004c5e:    eb006011    ...`    ADD      r0,r0,r1,LSR #24
        0x00004c62:    7018        .p      STRB     r0,[r3,#0]
        0x00004c64:    d01e        ..      BEQ      0x4ca4 ; am_util_stdio_vsprintf + 4332
        0x00004c66:    f64f70fc    O..p    MOV      r0,#0xfffc
        0x00004c6a:    2e02        ..      CMP      r6,#2
        0x00004c6c:    f2c000ff    ....    MOVT     r0,#0xff
        0x00004c70:    f1000002    ....    ADD      r0,r0,#2
        0x00004c74:    ea000001    ....    AND      r0,r0,r1
        0x00004c78:    eb000080    ....    ADD      r0,r0,r0,LSL #2
        0x00004c7c:    ea4f0140    O.@.    LSL      r1,r0,#1
        0x00004c80:    f04f0030    O.0.    MOV      r0,#0x30
        0x00004c84:    ea406011    @..`    ORR      r0,r0,r1,LSR #24
        0x00004c88:    7058        Xp      STRB     r0,[r3,#1]
        0x00004c8a:    d00b        ..      BEQ      0x4ca4 ; am_util_stdio_vsprintf + 4332
        0x00004c8c:    f64f70fc    O..p    MOV      r0,#0xfffc
        0x00004c90:    f2c000ff    ....    MOVT     r0,#0xff
        0x00004c94:    4008        .@      ANDS     r0,r0,r1
        0x00004c96:    2130        0!      MOVS     r1,#0x30
        0x00004c98:    eb000080    ....    ADD      r0,r0,r0,LSL #2
        0x00004c9c:    0040        @.      LSLS     r0,r0,#1
        0x00004c9e:    ea416010    A..`    ORR      r0,r1,r0,LSR #24
        0x00004ca2:    7098        .p      STRB     r0,[r3,#2]
        0x00004ca4:    eb0c0007    ....    ADD      r0,r12,r7
        0x00004ca8:    1c43        C.      ADDS     r3,r0,#1
        0x00004caa:    f8130c01    ....    LDRB     r0,[r3,#-1]
        0x00004cae:    f8ddc01c    ....    LDR      r12,[sp,#0x1c]
        0x00004cb2:    250d        .%      MOVS     r5,#0xd
        0x00004cb4:    2830        0(      CMP      r0,#0x30
        0x00004cb6:    d113        ..      BNE      0x4ce0 ; am_util_stdio_vsprintf + 4392
        0x00004cb8:    f8130c02    ....    LDRB     r0,[r3,#-2]
        0x00004cbc:    282e        .(      CMP      r0,#0x2e
        0x00004cbe:    d00f        ..      BEQ      0x4ce0 ; am_util_stdio_vsprintf + 4392
        0x00004cc0:    f8131c02    ....    LDRB     r1,[r3,#-2]
        0x00004cc4:    1e58        X.      SUBS     r0,r3,#1
        0x00004cc6:    4603        .F      MOV      r3,r0
        0x00004cc8:    2930        0)      CMP      r1,#0x30
        0x00004cca:    d0f5        ..      BEQ      0x4cb8 ; am_util_stdio_vsprintf + 4352
        0x00004ccc:    4603        .F      MOV      r3,r0
        0x00004cce:    e007        ..      B        0x4ce0 ; am_util_stdio_vsprintf + 4392
        0x00004cd0:    2030        0       MOVS     r0,#0x30
        0x00004cd2:    f10c0302    ....    ADD      r3,r12,#2
        0x00004cd6:    250d        .%      MOVS     r5,#0xd
        0x00004cd8:    f88c0001    ....    STRB     r0,[r12,#1]
        0x00004cdc:    f8ddc01c    ....    LDR      r12,[sp,#0x1c]
        0x00004ce0:    2000        .       MOVS     r0,#0
        0x00004ce2:    7018        .p      STRB     r0,[r3,#0]
        0x00004ce4:    eba3000a    ....    SUB      r0,r3,r10
        0x00004ce8:    f1b03fff    ...?    CMP      r0,#0xffffffff
        0x00004cec:    dc0e        ..      BGT      0x4d0c ; am_util_stdio_vsprintf + 4436
        0x00004cee:    f6426230    B.0b    MOV      r2,#0x2e30
        0x00004cf2:    1c41        A.      ADDS     r1,r0,#1
        0x00004cf4:    f2c00230    ..0.    MOVT     r2,#0x30
        0x00004cf8:    bf18        ..      IT       NE
        0x00004cfa:    f102120f    ....    ADDNE    r2,r2,#0xf000f
        0x00004cfe:    3002        .0      ADDS     r0,#2
        0x00004d00:    9805        ..      LDR      r0,[sp,#0x14]
        0x00004d02:    bf08        ..      IT       EQ
        0x00004d04:    4602        .F      MOVEQ    r2,r0
        0x00004d06:    2003        .       MOVS     r0,#3
        0x00004d08:    f8ca2000    ...     STR      r2,[r10,#0]
        0x00004d0c:    4482        .D      ADD      r10,r10,r0
        0x00004d0e:    4480        .D      ADD      r8,r8,r0
        0x00004d10:    9804        ..      LDR      r0,[sp,#0x10]
        0x00004d12:    1c41        A.      ADDS     r1,r0,#1
        0x00004d14:    1c48        H.      ADDS     r0,r1,#1
        0x00004d16:    f8101c01    ....    LDRB     r1,[r0,#-1]
        0x00004d1a:    2900        .)      CMP      r1,#0
        0x00004d1c:    f47eaf62    ~.b.    BNE      0x3be4 ; am_util_stdio_vsprintf + 44
        0x00004d20:    f1ba0f00    ....    CMP      r10,#0
        0x00004d24:    bf1c        ..      ITT      NE
        0x00004d26:    2000        .       MOVNE    r0,#0
        0x00004d28:    f88a0000    ....    STRBNE   r0,[r10,#0]
        0x00004d2c:    4640        @F      MOV      r0,r8
        0x00004d2e:    b00f        ..      ADD      sp,sp,#0x3c
        0x00004d30:    e8bd8ff0    ....    POP      {r4-r11,pc}
    getStackedReg
        0x00004d34:    0080        ..      LSLS     r0,r0,#2
        0x00004d36:    1840        @.      ADDS     r0,r0,r1
        0x00004d38:    6800        .h      LDR      r0,[r0,#0]
        0x00004d3a:    4770        pG      BX       lr
    main
        0x00004d3c:    b510        ..      PUSH     {r4,lr}
        0x00004d3e:    b082        ..      SUB      sp,sp,#8
        0x00004d40:    2000        .       MOVS     r0,#0
        0x00004d42:    2400        .$      MOVS     r4,#0
        0x00004d44:    f000fe30    ..0.    BL       am_hal_clkgen_sysclk_select ; 0x59a8
        0x00004d48:    f64630b2    F..0    MOV      r0,#0x6bb2
        0x00004d4c:    f2c00000    ....    MOVT     r0,#0
        0x00004d50:    f000fda6    ....    BL       am_hal_cachectrl_enable ; 0x58a0
        0x00004d54:    f000fd92    ....    BL       am_bsp_low_power_init ; 0x587c
        0x00004d58:    f6450079    E.y.    MOV      r0,#0x5879
        0x00004d5c:    f2c00000    ....    MOVT     r0,#0
        0x00004d60:    f7feff16    ....    BL       am_util_stdio_printf_init ; 0x3b90
        0x00004d64:    f3ef8010    ....    MRS      r0,PRIMASK
        0x00004d68:    2173        s!      MOVS     r1,#0x73
        0x00004d6a:    2210        ."      MOVS     r2,#0x10
        0x00004d6c:    9001        ..      STR      r0,[sp,#4]
        0x00004d6e:    2028        (       MOVS     r0,#0x28
        0x00004d70:    b672        r.      CPSID    i
        0x00004d72:    f2c40001    ....    MOVT     r0,#0x4001
        0x00004d76:    6381        .c      STR      r1,[r0,#0x38]
        0x00004d78:    6ac1        .j      LDR      r1,[r0,#0x2c]
        0x00004d7a:    f0210170    !.p.    BIC      r1,r1,#0x70
        0x00004d7e:    62c1        .b      STR      r1,[r0,#0x2c]
        0x00004d80:    6801        .h      LDR      r1,[r0,#0]
        0x00004d82:    f362210f    b..!    BFI      r1,r2,#8,#8
        0x00004d86:    6001        .`      STR      r1,[r0,#0]
        0x00004d88:    f8d010e0    ....    LDR      r1,[r0,#0xe0]
        0x00004d8c:    f421417f    !..A    BIC      r1,r1,#0xff00
        0x00004d90:    f8c010e0    ....    STR      r1,[r0,#0xe0]
        0x00004d94:    6384        .c      STR      r4,[r0,#0x38]
        0x00004d96:    9801        ..      LDR      r0,[sp,#4]
        0x00004d98:    f3808810    ....    MSR      PRIMASK,r0
        0x00004d9c:    f000feac    ....    BL       am_hal_itm_enable ; 0x5af8
        0x00004da0:    f000fd32    ..2.    BL       am_bsp_debug_printf_enable ; 0x5808
        0x00004da4:    f7fefefa    ....    BL       am_util_stdio_terminal_clear ; 0x3b9c
        0x00004da8:    2001        .       MOVS     r0,#1
        0x00004daa:    f44f7180    O..q    MOV      r1,#0x100
        0x00004dae:    2201        ."      MOVS     r2,#1
        0x00004db0:    f7fefb72    ..r.    BL       TestSetup ; 0x3498
        0x00004db4:    f000fcf8    ....    BL       am_bsp_debug_printf_disable ; 0x57a8
        0x00004db8:    2001        .       MOVS     r0,#1
        0x00004dba:    f001f86f    ..o.    BL       am_hal_sysctrl_sleep ; 0x5e9c
        0x00004dbe:    e7fb        ..      B        0x4db8 ; main + 124
    $t
    i.__ARM_fpclassify
    __ARM_fpclassify
        0x00004dc0:    b403        ..      PUSH     {r0,r1}
        0x00004dc2:    9801        ..      LDR      r0,[sp,#4]
        0x00004dc4:    0041        A.      LSLS     r1,r0,#1
        0x00004dc6:    9800        ..      LDR      r0,[sp,#0]
        0x00004dc8:    ea5020c1    P..     ORRS     r0,r0,r1,LSL #11
        0x00004dcc:    bf18        ..      IT       NE
        0x00004dce:    2004        .       MOVNE    r0,#4
        0x00004dd0:    0d4a        J.      LSRS     r2,r1,#21
        0x00004dd2:    bf18        ..      IT       NE
        0x00004dd4:    f0400001    @...    ORRNE    r0,r0,#1
        0x00004dd8:    f24072ff    @..r    MOV      r2,#0x7ff
        0x00004ddc:    ebb25f51    ..Q_    CMP      r2,r1,LSR #21
        0x00004de0:    bf08        ..      IT       EQ
        0x00004de2:    f0400002    @...    ORREQ    r0,r0,#2
        0x00004de6:    2801        .(      CMP      r0,#1
        0x00004de8:    bf08        ..      IT       EQ
        0x00004dea:    2005        .       MOVEQ    r0,#5
        0x00004dec:    b002        ..      ADD      sp,sp,#8
        0x00004dee:    4770        pG      BX       lr
    i.__hardfp_cos
    __hardfp_cos
        0x00004df0:    b510        ..      PUSH     {r4,lr}
        0x00004df2:    492f        /I      LDR      r1,[pc,#188] ; [0x4eb0] = 0x3fe921fb
        0x00004df4:    ed9f1b2c    ..,.    VLDR     d1,[pc,#176] ; [0x4ea8] = 0
        0x00004df8:    ed2d0b02    -...    VPUSH    {d0}
        0x00004dfc:    b084        ..      SUB      sp,sp,#0x10
        0x00004dfe:    9805        ..      LDR      r0,[sp,#0x14]
        0x00004e00:    f0204000     ..@    BIC      r0,r0,#0x80000000
        0x00004e04:    4288        .B      CMP      r0,r1
        0x00004e06:    bfd8        ..      IT       LE
        0x00004e08:    ed9d0b04    ....    VLDRLE   d0,[sp,#0x10]
        0x00004e0c:    dd2d        -.      BLE      0x4e6a ; __hardfp_cos + 122
        0x00004e0e:    4929        )I      LDR      r1,[pc,#164] ; [0x4eb4] = 0x7ff00000
        0x00004e10:    4288        .B      CMP      r0,r1
        0x00004e12:    d109        ..      BNE      0x4e28 ; __hardfp_cos + 56
        0x00004e14:    9804        ..      LDR      r0,[sp,#0x10]
        0x00004e16:    b940        @.      CBNZ     r0,0x4e2a ; __hardfp_cos + 58
        0x00004e18:    f04f0001    O...    MOV      r0,#1
        0x00004e1c:    f7fbfbab    ....    BL       __set_errno ; 0x576
        0x00004e20:    f000fca2    ....    BL       __mathlib_dbl_invalid ; 0x5768
        0x00004e24:    b006        ..      ADD      sp,sp,#0x18
        0x00004e26:    bd10        ..      POP      {r4,pc}
        0x00004e28:    db05        ..      BLT      0x4e36 ; __hardfp_cos + 70
        0x00004e2a:    ed9d0b04    ....    VLDR     d0,[sp,#0x10]
        0x00004e2e:    f000fc8f    ....    BL       __mathlib_dbl_infnan ; 0x5750
        0x00004e32:    b006        ..      ADD      sp,sp,#0x18
        0x00004e34:    bd10        ..      POP      {r4,pc}
        0x00004e36:    4668        hF      MOV      r0,sp
        0x00004e38:    ed9d0b04    ....    VLDR     d0,[sp,#0x10]
        0x00004e3c:    f000f8a0    ....    BL       __ieee754_rem_pio2 ; 0x4f80
        0x00004e40:    f0100003    ....    ANDS     r0,r0,#3
        0x00004e44:    bf04        ..      ITT      EQ
        0x00004e46:    ed9d1b02    ....    VLDREQ   d1,[sp,#8]
        0x00004e4a:    ed9d0b00    ....    VLDREQ   d0,[sp,#0]
        0x00004e4e:    d00c        ..      BEQ      0x4e6a ; __hardfp_cos + 122
        0x00004e50:    2801        .(      CMP      r0,#1
        0x00004e52:    d00e        ..      BEQ      0x4e72 ; __hardfp_cos + 130
        0x00004e54:    ed9d1b02    ....    VLDR     d1,[sp,#8]
        0x00004e58:    ed9d0b00    ....    VLDR     d0,[sp,#0]
        0x00004e5c:    2802        .(      CMP      r0,#2
        0x00004e5e:    d017        ..      BEQ      0x4e90 ; __hardfp_cos + 160
        0x00004e60:    2001        .       MOVS     r0,#1
        0x00004e62:    f000fbdd    ....    BL       __kernel_sin ; 0x5620
        0x00004e66:    b006        ..      ADD      sp,sp,#0x18
        0x00004e68:    bd10        ..      POP      {r4,pc}
        0x00004e6a:    f000faa5    ....    BL       __kernel_cos ; 0x53b8
        0x00004e6e:    b006        ..      ADD      sp,sp,#0x18
        0x00004e70:    bd10        ..      POP      {r4,pc}
        0x00004e72:    ed9d1b02    ....    VLDR     d1,[sp,#8]
        0x00004e76:    ed9d0b00    ....    VLDR     d0,[sp,#0]
        0x00004e7a:    2001        .       MOVS     r0,#1
        0x00004e7c:    f000fbd0    ....    BL       __kernel_sin ; 0x5620
        0x00004e80:    ec510b10    Q...    VMOV     r0,r1,d0
        0x00004e84:    f001f91a    ....    BL       __aeabi_dneg ; 0x60bc
        0x00004e88:    b006        ..      ADD      sp,sp,#0x18
        0x00004e8a:    ec410b10    A...    VMOV     d0,r0,r1
        0x00004e8e:    bd10        ..      POP      {r4,pc}
        0x00004e90:    f000fa92    ....    BL       __kernel_cos ; 0x53b8
        0x00004e94:    ec510b10    Q...    VMOV     r0,r1,d0
        0x00004e98:    f001f910    ....    BL       __aeabi_dneg ; 0x60bc
        0x00004e9c:    b006        ..      ADD      sp,sp,#0x18
        0x00004e9e:    ec410b10    A...    VMOV     d0,r0,r1
        0x00004ea2:    bd10        ..      POP      {r4,pc}
    $d
        0x00004ea4:    00000000    ....    DCD    0
        0x00004ea8:    00000000    ....    DCD    0
        0x00004eac:    00000000    ....    DCD    0
        0x00004eb0:    3fe921fb    .!.?    DCD    1072243195
        0x00004eb4:    7ff00000    ....    DCD    2146435072
    $t
    i.__hardfp_sin
    __hardfp_sin
        0x00004eb8:    b510        ..      PUSH     {r4,lr}
        0x00004eba:    492f        /I      LDR      r1,[pc,#188] ; [0x4f78] = 0x3fe921fb
        0x00004ebc:    ed9f1b2c    ..,.    VLDR     d1,[pc,#176] ; [0x4f70] = 0
        0x00004ec0:    ed2d0b02    -...    VPUSH    {d0}
        0x00004ec4:    b084        ..      SUB      sp,sp,#0x10
        0x00004ec6:    9805        ..      LDR      r0,[sp,#0x14]
        0x00004ec8:    f0204000     ..@    BIC      r0,r0,#0x80000000
        0x00004ecc:    4288        .B      CMP      r0,r1
        0x00004ece:    bfdc        ..      ITT      LE
        0x00004ed0:    2000        .       MOVLE    r0,#0
        0x00004ed2:    ed9d0b04    ....    VLDRLE   d0,[sp,#0x10]
        0x00004ed6:    dd32        2.      BLE      0x4f3e ; __hardfp_sin + 134
        0x00004ed8:    4928        (I      LDR      r1,[pc,#160] ; [0x4f7c] = 0x7ff00000
        0x00004eda:    4288        .B      CMP      r0,r1
        0x00004edc:    d109        ..      BNE      0x4ef2 ; __hardfp_sin + 58
        0x00004ede:    9804        ..      LDR      r0,[sp,#0x10]
        0x00004ee0:    b940        @.      CBNZ     r0,0x4ef4 ; __hardfp_sin + 60
        0x00004ee2:    f04f0001    O...    MOV      r0,#1
        0x00004ee6:    f7fbfb46    ..F.    BL       __set_errno ; 0x576
        0x00004eea:    f000fc3d    ..=.    BL       __mathlib_dbl_invalid ; 0x5768
        0x00004eee:    b006        ..      ADD      sp,sp,#0x18
        0x00004ef0:    bd10        ..      POP      {r4,pc}
        0x00004ef2:    db05        ..      BLT      0x4f00 ; __hardfp_sin + 72
        0x00004ef4:    ed9d0b04    ....    VLDR     d0,[sp,#0x10]
        0x00004ef8:    f000fc2a    ..*.    BL       __mathlib_dbl_infnan ; 0x5750
        0x00004efc:    b006        ..      ADD      sp,sp,#0x18
        0x00004efe:    bd10        ..      POP      {r4,pc}
        0x00004f00:    4668        hF      MOV      r0,sp
        0x00004f02:    ed9d0b04    ....    VLDR     d0,[sp,#0x10]
        0x00004f06:    f000f83b    ..;.    BL       __ieee754_rem_pio2 ; 0x4f80
        0x00004f0a:    f0100003    ....    ANDS     r0,r0,#3
        0x00004f0e:    d011        ..      BEQ      0x4f34 ; __hardfp_sin + 124
        0x00004f10:    2801        .(      CMP      r0,#1
        0x00004f12:    d018        ..      BEQ      0x4f46 ; __hardfp_sin + 142
        0x00004f14:    ed9d1b02    ....    VLDR     d1,[sp,#8]
        0x00004f18:    ed9d0b00    ....    VLDR     d0,[sp,#0]
        0x00004f1c:    2802        .(      CMP      r0,#2
        0x00004f1e:    d01a        ..      BEQ      0x4f56 ; __hardfp_sin + 158
        0x00004f20:    f000fa4a    ..J.    BL       __kernel_cos ; 0x53b8
        0x00004f24:    ec510b10    Q...    VMOV     r0,r1,d0
        0x00004f28:    f001f8c8    ....    BL       __aeabi_dneg ; 0x60bc
        0x00004f2c:    b006        ..      ADD      sp,sp,#0x18
        0x00004f2e:    ec410b10    A...    VMOV     d0,r0,r1
        0x00004f32:    bd10        ..      POP      {r4,pc}
        0x00004f34:    ed9d1b02    ....    VLDR     d1,[sp,#8]
        0x00004f38:    ed9d0b00    ....    VLDR     d0,[sp,#0]
        0x00004f3c:    2001        .       MOVS     r0,#1
        0x00004f3e:    f000fb6f    ..o.    BL       __kernel_sin ; 0x5620
        0x00004f42:    b006        ..      ADD      sp,sp,#0x18
        0x00004f44:    bd10        ..      POP      {r4,pc}
        0x00004f46:    ed9d1b02    ....    VLDR     d1,[sp,#8]
        0x00004f4a:    ed9d0b00    ....    VLDR     d0,[sp,#0]
        0x00004f4e:    f000fa33    ..3.    BL       __kernel_cos ; 0x53b8
        0x00004f52:    b006        ..      ADD      sp,sp,#0x18
        0x00004f54:    bd10        ..      POP      {r4,pc}
        0x00004f56:    2001        .       MOVS     r0,#1
        0x00004f58:    f000fb62    ..b.    BL       __kernel_sin ; 0x5620
        0x00004f5c:    ec510b10    Q...    VMOV     r0,r1,d0
        0x00004f60:    f001f8ac    ....    BL       __aeabi_dneg ; 0x60bc
        0x00004f64:    b006        ..      ADD      sp,sp,#0x18
        0x00004f66:    ec410b10    A...    VMOV     d0,r0,r1
        0x00004f6a:    bd10        ..      POP      {r4,pc}
    $d
        0x00004f6c:    00000000    ....    DCD    0
        0x00004f70:    00000000    ....    DCD    0
        0x00004f74:    00000000    ....    DCD    0
        0x00004f78:    3fe921fb    .!.?    DCD    1072243195
        0x00004f7c:    7ff00000    ....    DCD    2146435072
    $t
    i.__ieee754_rem_pio2
    __ieee754_rem_pio2
        0x00004f80:    e92d4ff1    -..O    PUSH     {r0,r4-r11,lr}
        0x00004f84:    4604        .F      MOV      r4,r0
        0x00004f86:    ed2d0b02    -...    VPUSH    {d0}
        0x00004f8a:    ed2d8b08    -...    VPUSH    {d8-d11}
        0x00004f8e:    b08a        ..      SUB      sp,sp,#0x28
        0x00004f90:    ed9f0be7    ....    VLDR     d0,[pc,#924] ; [0x5330] = 0
        0x00004f94:    ed800b02    ....    VSTR     d0,[r0,#8]
        0x00004f98:    9e13        ..      LDR      r6,[sp,#0x4c]
        0x00004f9a:    48e7        .H      LDR      r0,[pc,#924] ; [0x5338] = 0x3fe921fb
        0x00004f9c:    f0264500    &..E    BIC      r5,r6,#0x80000000
        0x00004fa0:    4285        .B      CMP      r5,r0
        0x00004fa2:    dc0a        ..      BGT      0x4fba ; __ieee754_rem_pio2 + 58
        0x00004fa4:    ed9d0b12    ....    VLDR     d0,[sp,#0x48]
        0x00004fa8:    2000        .       MOVS     r0,#0
        0x00004faa:    ed840b00    ....    VSTR     d0,[r4,#0]
        0x00004fae:    b00a        ..      ADD      sp,sp,#0x28
        0x00004fb0:    ecbd8b08    ....    VPOP     {d8-d11}
        0x00004fb4:    b003        ..      ADD      sp,sp,#0xc
        0x00004fb6:    e8bd8ff0    ....    POP      {r4-r11,pc}
        0x00004fba:    48e0        .H      LDR      r0,[pc,#896] ; [0x533c] = 0x4002d97c
        0x00004fbc:    ed9fabe0    ....    VLDR     d10,[pc,#896] ; [0x5340] = 0x54400000
        0x00004fc0:    ed9fbbe1    ....    VLDR     d11,[pc,#900] ; [0x5348] = 0x1a626331
        0x00004fc4:    42a8        .B      CMP      r0,r5
        0x00004fc6:    dd47        G.      BLE      0x5058 ; __ieee754_rem_pio2 + 216
        0x00004fc8:    4fe1        .O      LDR      r7,[pc,#900] ; [0x5350] = 0x3ff921fb
        0x00004fca:    ed9f9be3    ....    VLDR     d9,[pc,#908] ; [0x5358] = 0x1a600000
        0x00004fce:    ed9f8be4    ....    VLDR     d8,[pc,#912] ; [0x5360] = 0x2e037073
        0x00004fd2:    ed9d0b12    ....    VLDR     d0,[sp,#0x48]
        0x00004fd6:    ec532b1a    S..+    VMOV     r2,r3,d10
        0x00004fda:    ec510b10    Q...    VMOV     r0,r1,d0
        0x00004fde:    2e00        ..      CMP      r6,#0
        0x00004fe0:    dd1c        ..      BLE      0x501c ; __ieee754_rem_pio2 + 156
        0x00004fe2:    f001fc81    ....    BL       __aeabi_dsub ; 0x68e8
        0x00004fe6:    ec410b10    A...    VMOV     d0,r0,r1
        0x00004fea:    42bd        .B      CMP      r5,r7
        0x00004fec:    d008        ..      BEQ      0x5000 ; __ieee754_rem_pio2 + 128
        0x00004fee:    ec532b1b    S..+    VMOV     r2,r3,d11
        0x00004ff2:    ec510b10    Q...    VMOV     r0,r1,d0
        0x00004ff6:    f001fc77    ..w.    BL       __aeabi_dsub ; 0x68e8
        0x00004ffa:    e9c40100    ....    STRD     r0,r1,[r4,#0]
        0x00004ffe:    e00b        ..      B        0x5018 ; __ieee754_rem_pio2 + 152
        0x00005000:    ec532b19    S..+    VMOV     r2,r3,d9
        0x00005004:    ec510b10    Q...    VMOV     r0,r1,d0
        0x00005008:    f001fc6e    ..n.    BL       __aeabi_dsub ; 0x68e8
        0x0000500c:    ec532b18    S..+    VMOV     r2,r3,d8
        0x00005010:    f001fc6a    ..j.    BL       __aeabi_dsub ; 0x68e8
        0x00005014:    e9c40100    ....    STRD     r0,r1,[r4,#0]
        0x00005018:    2001        .       MOVS     r0,#1
        0x0000501a:    e7c8        ..      B        0x4fae ; __ieee754_rem_pio2 + 46
        0x0000501c:    f001f88c    ....    BL       __aeabi_dadd ; 0x6138
        0x00005020:    ec410b10    A...    VMOV     d0,r0,r1
        0x00005024:    42bd        .B      CMP      r5,r7
        0x00005026:    d008        ..      BEQ      0x503a ; __ieee754_rem_pio2 + 186
        0x00005028:    ec532b1b    S..+    VMOV     r2,r3,d11
        0x0000502c:    ec510b10    Q...    VMOV     r0,r1,d0
        0x00005030:    f001f882    ....    BL       __aeabi_dadd ; 0x6138
        0x00005034:    e9c40100    ....    STRD     r0,r1,[r4,#0]
        0x00005038:    e00b        ..      B        0x5052 ; __ieee754_rem_pio2 + 210
        0x0000503a:    ec532b19    S..+    VMOV     r2,r3,d9
        0x0000503e:    ec510b10    Q...    VMOV     r0,r1,d0
        0x00005042:    f001f879    ..y.    BL       __aeabi_dadd ; 0x6138
        0x00005046:    ec532b18    S..+    VMOV     r2,r3,d8
        0x0000504a:    f001f875    ..u.    BL       __aeabi_dadd ; 0x6138
        0x0000504e:    e9c40100    ....    STRD     r0,r1,[r4,#0]
        0x00005052:    f04f30ff    O..0    MOV      r0,#0xffffffff
        0x00005056:    e7aa        ..      B        0x4fae ; __ieee754_rem_pio2 + 46
        0x00005058:    48c3        .H      LDR      r0,[pc,#780] ; [0x5368] = 0x413921fb
        0x0000505a:    42a8        .B      CMP      r0,r5
        0x0000505c:    db79        y.      BLT      0x5152 ; __ieee754_rem_pio2 + 466
        0x0000505e:    ed9d0b12    ....    VLDR     d0,[sp,#0x48]
        0x00005062:    ec510b10    Q...    VMOV     r0,r1,d0
        0x00005066:    f000ffe1    ....    BL       fabs ; 0x602c
        0x0000506a:    ec410b18    A...    VMOV     d8,r0,r1
        0x0000506e:    ed9f0bc0    ....    VLDR     d0,[pc,#768] ; [0x5370] = 0x6dc9c883
        0x00005072:    ec532b10    S..+    VMOV     r2,r3,d0
        0x00005076:    f001fb2d    ..-.    BL       __aeabi_dmul ; 0x66d4
        0x0000507a:    ed9f1bbf    ....    VLDR     d1,[pc,#764] ; [0x5378] = 0
        0x0000507e:    ec532b11    S..+    VMOV     r2,r3,d1
        0x00005082:    f001f859    ..Y.    BL       __aeabi_dadd ; 0x6138
        0x00005086:    f001fa57    ..W.    BL       __aeabi_d2iz ; 0x6538
        0x0000508a:    4607        .F      MOV      r7,r0
        0x0000508c:    f001fab1    ....    BL       __aeabi_i2d ; 0x65f2
        0x00005090:    ec410b19    A...    VMOV     d9,r0,r1
        0x00005094:    ec532b1a    S..+    VMOV     r2,r3,d10
        0x00005098:    f001fb1c    ....    BL       __aeabi_dmul ; 0x66d4
        0x0000509c:    ec532b18    S..+    VMOV     r2,r3,d8
        0x000050a0:    f001fc16    ....    BL       __aeabi_drsub ; 0x68d0
        0x000050a4:    ec410b18    A...    VMOV     d8,r0,r1
        0x000050a8:    ec532b1b    S..+    VMOV     r2,r3,d11
        0x000050ac:    ec510b19    Q...    VMOV     r0,r1,d9
        0x000050b0:    f001fb10    ....    BL       __aeabi_dmul ; 0x66d4
        0x000050b4:    f8dfa2c8    ....    LDR      r10,[pc,#712] ; [0x5380] = 0x1b2a
        0x000050b8:    ec410b10    A...    VMOV     d0,r0,r1
        0x000050bc:    ea4f5815    O..X    LSR      r8,r5,#20
        0x000050c0:    2501        .%      MOVS     r5,#1
        0x000050c2:    44fa        .D      ADD      r10,r10,pc
        0x000050c4:    ec532b10    S..+    VMOV     r2,r3,d0
        0x000050c8:    ec510b18    Q...    VMOV     r0,r1,d8
        0x000050cc:    f001fc0c    ....    BL       __aeabi_dsub ; 0x68e8
        0x000050d0:    2d03        .-      CMP      r5,#3
        0x000050d2:    e9c40100    ....    STRD     r0,r1,[r4,#0]
        0x000050d6:    d03d        =.      BEQ      0x5154 ; __ieee754_rem_pio2 + 468
        0x000050d8:    f3c1500a    ...P    UBFX     r0,r1,#20,#11
        0x000050dc:    eb051145    ..E.    ADD      r1,r5,r5,LSL #5
        0x000050e0:    eba80000    ....    SUB      r0,r8,r0
        0x000050e4:    3911        .9      SUBS     r1,r1,#0x11
        0x000050e6:    4281        .B      CMP      r1,r0
        0x000050e8:    da34        4.      BGE      0x5154 ; __ieee754_rem_pio2 + 468
        0x000050ea:    eb0a1b05    ....    ADD      r11,r10,r5,LSL #4
        0x000050ee:    eeb0aa48    ..H.    VMOV.F32 s20,s16
        0x000050f2:    ed9b0b00    ....    VLDR     d0,[r11,#0]
        0x000050f6:    eef0aa68    ..h.    VMOV.F32 s21,s17
        0x000050fa:    ec532b10    S..+    VMOV     r2,r3,d0
        0x000050fe:    ec510b19    Q...    VMOV     r0,r1,d9
        0x00005102:    f001fae7    ....    BL       __aeabi_dmul ; 0x66d4
        0x00005106:    ec410b1b    A...    VMOV     d11,r0,r1
        0x0000510a:    ec510b1a    Q...    VMOV     r0,r1,d10
        0x0000510e:    ec532b1b    S..+    VMOV     r2,r3,d11
        0x00005112:    f001fbe9    ....    BL       __aeabi_dsub ; 0x68e8
        0x00005116:    ec410b18    A...    VMOV     d8,r0,r1
        0x0000511a:    ec510b1a    Q...    VMOV     r0,r1,d10
        0x0000511e:    ec532b18    S..+    VMOV     r2,r3,d8
        0x00005122:    f001fbe1    ....    BL       __aeabi_dsub ; 0x68e8
        0x00005126:    ec532b1b    S..+    VMOV     r2,r3,d11
        0x0000512a:    f001fbdd    ....    BL       __aeabi_dsub ; 0x68e8
        0x0000512e:    ed9b0b02    ....    VLDR     d0,[r11,#8]
        0x00005132:    ec410b1a    A...    VMOV     d10,r0,r1
        0x00005136:    ec532b10    S..+    VMOV     r2,r3,d0
        0x0000513a:    ec510b19    Q...    VMOV     r0,r1,d9
        0x0000513e:    f001fac9    ....    BL       __aeabi_dmul ; 0x66d4
        0x00005142:    ec532b1a    S..+    VMOV     r2,r3,d10
        0x00005146:    f001fbcf    ....    BL       __aeabi_dsub ; 0x68e8
        0x0000514a:    ec410b10    A...    VMOV     d0,r0,r1
        0x0000514e:    1c6d        m.      ADDS     r5,r5,#1
        0x00005150:    e7b8        ..      B        0x50c4 ; __ieee754_rem_pio2 + 324
        0x00005152:    e00e        ..      B        0x5172 ; __ieee754_rem_pio2 + 498
        0x00005154:    2e00        ..      CMP      r6,#0
        0x00005156:    bfa8        ..      IT       GE
        0x00005158:    4638        8F      MOVGE    r0,r7
        0x0000515a:    f6bfaf28    ..(.    BGE      0x4fae ; __ieee754_rem_pio2 + 46
        0x0000515e:    ed940b00    ....    VLDR     d0,[r4,#0]
        0x00005162:    ec510b10    Q...    VMOV     r0,r1,d0
        0x00005166:    f000ffa9    ....    BL       __aeabi_dneg ; 0x60bc
        0x0000516a:    e9c40100    ....    STRD     r0,r1,[r4,#0]
        0x0000516e:    4278        xB      RSBS     r0,r7,#0
        0x00005170:    e71d        ..      B        0x4fae ; __ieee754_rem_pio2 + 46
        0x00005172:    f3c60013    ....    UBFX     r0,r6,#0,#20
        0x00005176:    f4401e80    @...    ORR      lr,r0,#0x100000
        0x0000517a:    f3c6500a    ...P    UBFX     r0,r6,#20,#11
        0x0000517e:    f2a030f5    ...0    SUB      r0,r0,#0x3f5
        0x00005182:    1147        G.      ASRS     r7,r0,#5
        0x00005184:    f000051f    ....    AND      r5,r0,#0x1f
        0x00005188:    f1c50020    .. .    RSB      r0,r5,#0x20
        0x0000518c:    f8ddb048    ..H.    LDR      r11,[sp,#0x48]
        0x00005190:    9008        ..      STR      r0,[sp,#0x20]
        0x00005192:    2000        .       MOVS     r0,#0
        0x00005194:    9006        ..      STR      r0,[sp,#0x18]
        0x00005196:    9007        ..      STR      r0,[sp,#0x1c]
        0x00005198:    2005        .       MOVS     r0,#5
        0x0000519a:    46ec        .F      MOV      r12,sp
        0x0000519c:    4979        yI      LDR      r1,[pc,#484] ; [0x5384] = 0x1a78
        0x0000519e:    2d00        .-      CMP      r5,#0
        0x000051a0:    eb070200    ....    ADD      r2,r7,r0
        0x000051a4:    4479        yD      ADD      r1,r1,pc
        0x000051a6:    bf08        ..      IT       EQ
        0x000051a8:    f8511022    Q.".    LDREQ    r1,[r1,r2,LSL #2]
        0x000051ac:    d009        ..      BEQ      0x51c2 ; __ieee754_rem_pio2 + 578
        0x000051ae:    f8513022    Q."0    LDR      r3,[r1,r2,LSL #2]
        0x000051b2:    eb010182    ....    ADD      r1,r1,r2,LSL #2
        0x000051b6:    40ab        .@      LSLS     r3,r3,r5
        0x000051b8:    684a        Jh      LDR      r2,[r1,#4]
        0x000051ba:    9908        ..      LDR      r1,[sp,#0x20]
        0x000051bc:    fa22f101    "...    LSR      r1,r2,r1
        0x000051c0:    4319        .C      ORRS     r1,r1,r3
        0x000051c2:    fba1260e    ...&    UMULL    r2,r6,r1,lr
        0x000051c6:    fba1130b    ....    UMULL    r1,r3,r1,r11
        0x000051ca:    441a        .D      ADD      r2,r2,r3
        0x000051cc:    429a        .B      CMP      r2,r3
        0x000051ce:    bf34        4.      ITE      CC
        0x000051d0:    2301        .#      MOVCC    r3,#1
        0x000051d2:    2300        .#      MOVCS    r3,#0
        0x000051d4:    eb030806    ....    ADD      r8,r3,r6
        0x000051d8:    eb0c0380    ....    ADD      r3,r12,r0,LSL #2
        0x000051dc:    e9d3a601    ....    LDRD     r10,r6,[r3,#4]
        0x000051e0:    440e        .D      ADD      r6,r6,r1
        0x000051e2:    428e        .B      CMP      r6,r1
        0x000051e4:    bf34        4.      ITE      CC
        0x000051e6:    2101        .!      MOVCC    r1,#1
        0x000051e8:    2100        .!      MOVCS    r1,#0
        0x000051ea:    4492        .D      ADD      r10,r10,r2
        0x000051ec:    448a        .D      ADD      r10,r10,r1
        0x000051ee:    b111        ..      CBZ      r1,0x51f6 ; __ieee754_rem_pio2 + 630
        0x000051f0:    4592        .E      CMP      r10,r2
        0x000051f2:    d902        ..      BLS      0x51fa ; __ieee754_rem_pio2 + 634
        0x000051f4:    e003        ..      B        0x51fe ; __ieee754_rem_pio2 + 638
        0x000051f6:    4592        .E      CMP      r10,r2
        0x000051f8:    d201        ..      BCS      0x51fe ; __ieee754_rem_pio2 + 638
        0x000051fa:    2101        .!      MOVS     r1,#1
        0x000051fc:    e000        ..      B        0x5200 ; __ieee754_rem_pio2 + 640
        0x000051fe:    2100        .!      MOVS     r1,#0
        0x00005200:    e9c3a601    ....    STRD     r10,r6,[r3,#4]
        0x00005204:    4441        AD      ADD      r1,r1,r8
        0x00005206:    f84c1020    L. .    STR      r1,[r12,r0,LSL #2]
        0x0000520a:    1e01        ..      SUBS     r1,r0,#0
        0x0000520c:    f1a00001    ....    SUB      r0,r0,#1
        0x00005210:    dcc4        ..      BGT      0x519c ; __ieee754_rem_pio2 + 540
        0x00005212:    9802        ..      LDR      r0,[sp,#8]
        0x00005214:    f1005000    ...P    ADD      r0,r0,#0x20000000
        0x00005218:    0f85        ..      LSRS     r5,r0,#30
        0x0000521a:    9802        ..      LDR      r0,[sp,#8]
        0x0000521c:    e9dd6703    ...g    LDRD     r6,r7,[sp,#0xc]
        0x00005220:    0080        ..      LSLS     r0,r0,#2
        0x00005222:    f8dd8014    ....    LDR      r8,[sp,#0x14]
        0x00005226:    f001f9e4    ....    BL       __aeabi_i2d ; 0x65f2
        0x0000522a:    ec410b1a    A...    VMOV     d10,r0,r1
        0x0000522e:    4630        0F      MOV      r0,r6
        0x00005230:    f001f9f6    ....    BL       __aeabi_ui2d ; 0x6620
        0x00005234:    ed9f1b54    ..T.    VLDR     d1,[pc,#336] ; [0x5388] = 0
        0x00005238:    ec532b11    S..+    VMOV     r2,r3,d1
        0x0000523c:    f001fa4a    ..J.    BL       __aeabi_dmul ; 0x66d4
        0x00005240:    ec410b1b    A...    VMOV     d11,r0,r1
        0x00005244:    4638        8F      MOV      r0,r7
        0x00005246:    f001f9eb    ....    BL       __aeabi_ui2d ; 0x6620
        0x0000524a:    ed9f1b51    ..Q.    VLDR     d1,[pc,#324] ; [0x5390] = 0
        0x0000524e:    ec532b11    S..+    VMOV     r2,r3,d1
        0x00005252:    f001fa3f    ..?.    BL       __aeabi_dmul ; 0x66d4
        0x00005256:    ec410b18    A...    VMOV     d8,r0,r1
        0x0000525a:    4640        @F      MOV      r0,r8
        0x0000525c:    f001f9e0    ....    BL       __aeabi_ui2d ; 0x6620
        0x00005260:    ed9f1b4d    ..M.    VLDR     d1,[pc,#308] ; [0x5398] = 0
        0x00005264:    ec532b11    S..+    VMOV     r2,r3,d1
        0x00005268:    f001fa34    ..4.    BL       __aeabi_dmul ; 0x66d4
        0x0000526c:    ec410b19    A...    VMOV     d9,r0,r1
        0x00005270:    ec510b18    Q...    VMOV     r0,r1,d8
        0x00005274:    ec532b19    S..+    VMOV     r2,r3,d9
        0x00005278:    f000ff5e    ..^.    BL       __aeabi_dadd ; 0x6138
        0x0000527c:    ec532b1b    S..+    VMOV     r2,r3,d11
        0x00005280:    f000ff5a    ..Z.    BL       __aeabi_dadd ; 0x6138
        0x00005284:    ec532b1a    S..+    VMOV     r2,r3,d10
        0x00005288:    f000ff56    ..V.    BL       __aeabi_dadd ; 0x6138
        0x0000528c:    e9cd0108    ....    STRD     r0,r1,[sp,#0x20]
        0x00005290:    2000        .       MOVS     r0,#0
        0x00005292:    9008        ..      STR      r0,[sp,#0x20]
        0x00005294:    ed9d0b08    ....    VLDR     d0,[sp,#0x20]
        0x00005298:    ec532b1a    S..+    VMOV     r2,r3,d10
        0x0000529c:    ec510b10    Q...    VMOV     r0,r1,d0
        0x000052a0:    f001fb22    ..".    BL       __aeabi_dsub ; 0x68e8
        0x000052a4:    ec532b1b    S..+    VMOV     r2,r3,d11
        0x000052a8:    f001fb1e    ....    BL       __aeabi_dsub ; 0x68e8
        0x000052ac:    ec532b18    S..+    VMOV     r2,r3,d8
        0x000052b0:    f001fb1a    ....    BL       __aeabi_dsub ; 0x68e8
        0x000052b4:    ec532b19    S..+    VMOV     r2,r3,d9
        0x000052b8:    f001fb0a    ....    BL       __aeabi_drsub ; 0x68d0
        0x000052bc:    ed9f1b38    ..8.    VLDR     d1,[pc,#224] ; [0x53a0] = 0x54442d18
        0x000052c0:    ec532b11    S..+    VMOV     r2,r3,d1
        0x000052c4:    f001fa06    ....    BL       __aeabi_dmul ; 0x66d4
        0x000052c8:    ed9f0b37    ..7.    VLDR     d0,[pc,#220] ; [0x53a8] = 0x11a62633
        0x000052cc:    ec410b18    A...    VMOV     d8,r0,r1
        0x000052d0:    ec532b10    S..+    VMOV     r2,r3,d0
        0x000052d4:    ed9d0b08    ....    VLDR     d0,[sp,#0x20]
        0x000052d8:    ec510b10    Q...    VMOV     r0,r1,d0
        0x000052dc:    f001f9fa    ....    BL       __aeabi_dmul ; 0x66d4
        0x000052e0:    ec532b18    S..+    VMOV     r2,r3,d8
        0x000052e4:    f000ff28    ..(.    BL       __aeabi_dadd ; 0x6138
        0x000052e8:    ed9f0b31    ..1.    VLDR     d0,[pc,#196] ; [0x53b0] = 0x54000000
        0x000052ec:    ec410b18    A...    VMOV     d8,r0,r1
        0x000052f0:    ec532b10    S..+    VMOV     r2,r3,d0
        0x000052f4:    ed9d0b08    ....    VLDR     d0,[sp,#0x20]
        0x000052f8:    ec510b10    Q...    VMOV     r0,r1,d0
        0x000052fc:    f001f9ea    ....    BL       __aeabi_dmul ; 0x66d4
        0x00005300:    ec532b18    S..+    VMOV     r2,r3,d8
        0x00005304:    f000ff18    ....    BL       __aeabi_dadd ; 0x6138
        0x00005308:    ec410b10    A...    VMOV     d0,r0,r1
        0x0000530c:    9813        ..      LDR      r0,[sp,#0x4c]
        0x0000530e:    f0104f00    ...O    TST      r0,#0x80000000
        0x00005312:    d006        ..      BEQ      0x5322 ; __ieee754_rem_pio2 + 930
        0x00005314:    426d        mB      RSBS     r5,r5,#0
        0x00005316:    ec510b10    Q...    VMOV     r0,r1,d0
        0x0000531a:    f000fecf    ....    BL       __aeabi_dneg ; 0x60bc
        0x0000531e:    ec410b10    A...    VMOV     d0,r0,r1
        0x00005322:    4628        (F      MOV      r0,r5
        0x00005324:    ed840b00    ....    VSTR     d0,[r4,#0]
        0x00005328:    e641        A.      B        0x4fae ; __ieee754_rem_pio2 + 46
    $d
        0x0000532a:    0000        ..      DCW    0
        0x0000532c:    00000000    ....    DCD    0
        0x00005330:    00000000    ....    DCD    0
        0x00005334:    00000000    ....    DCD    0
        0x00005338:    3fe921fb    .!.?    DCD    1072243195
        0x0000533c:    4002d97c    |..@    DCD    1073928572
        0x00005340:    54400000    ..@T    DCD    1413480448
        0x00005344:    3ff921fb    .!.?    DCD    1073291771
        0x00005348:    1a626331    1cb.    DCD    442655537
        0x0000534c:    3dd0b461    a..=    DCD    1037087841
        0x00005350:    3ff921fb    .!.?    DCD    1073291771
        0x00005354:    00000000    ....    DCD    0
        0x00005358:    1a600000    ..`.    DCD    442499072
        0x0000535c:    3dd0b461    a..=    DCD    1037087841
        0x00005360:    2e037073    sp..    DCD    771977331
        0x00005364:    3ba3198a    ...;    DCD    1000544650
        0x00005368:    413921fb    .!9A    DCD    1094263291
        0x0000536c:    00000000    ....    DCD    0
        0x00005370:    6dc9c883    ...m    DCD    1841940611
        0x00005374:    3fe45f30    0_.?    DCD    1071931184
        0x00005378:    00000000    ....    DCD    0
        0x0000537c:    3fe00000    ...?    DCD    1071644672
        0x00005380:    00001b2a    *...    DCD    6954
        0x00005384:    00001a78    x...    DCD    6776
        0x00005388:    00000000    ....    DCD    0
        0x0000538c:    3e100000    ...>    DCD    1041235968
        0x00005390:    00000000    ....    DCD    0
        0x00005394:    3c100000    ...<    DCD    1007681536
        0x00005398:    00000000    ....    DCD    0
        0x0000539c:    3a100000    ...:    DCD    974127104
        0x000053a0:    54442d18    .-DT    DCD    1413754136
        0x000053a4:    3df921fb    .!.=    DCD    1039737339
        0x000053a8:    11a62633    3&..    DCD    296101427
        0x000053ac:    3c110b46    F..<    DCD    1007749958
        0x000053b0:    54000000    ...T    DCD    1409286144
        0x000053b4:    3df921fb    .!.=    DCD    1039737339
    $t
    i.__kernel_cos
    __kernel_cos
        0x000053b8:    b510        ..      PUSH     {r4,lr}
        0x000053ba:    ed2d0b04    -...    VPUSH    {d0-d1}
        0x000053be:    ed2d8b08    -...    VPUSH    {d8-d11}
        0x000053c2:    b082        ..      SUB      sp,sp,#8
        0x000053c4:    eeb09a41    ..A.    VMOV.F32 s18,s2
        0x000053c8:    eef09a61    ..a.    VMOV.F32 s19,s3
        0x000053cc:    980b        ..      LDR      r0,[sp,#0x2c]
        0x000053ce:    f0204400     ..D    BIC      r4,r0,#0x80000000
        0x000053d2:    ed9fab4b    ..K.    VLDR     d10,[pc,#300] ; [0x5500] = 0
        0x000053d6:    f1b45f79    ..y_    CMP      r4,#0x3e400000
        0x000053da:    da11        ..      BGE      0x5400 ; __kernel_cos + 72
        0x000053dc:    ed9d0b0a    ....    VLDR     d0,[sp,#0x28]
        0x000053e0:    ec510b10    Q...    VMOV     r0,r1,d0
        0x000053e4:    f001f8a8    ....    BL       __aeabi_d2iz ; 0x6538
        0x000053e8:    2800        .(      CMP      r0,#0
        0x000053ea:    bf01        ..      ITTTT    EQ
        0x000053ec:    eeb00a4a    ..J.    VMOVEQ.F32 s0,s20
        0x000053f0:    eef00a6a    ..j.    VMOVEQ.F32 s1,s21
        0x000053f4:    b002        ..      ADDEQ    sp,sp,#8
        0x000053f6:    ecbd8b08    ....    VPOPEQ   {d8-d11}
        0x000053fa:    bf04        ..      ITT      EQ
        0x000053fc:    b004        ..      ADDEQ    sp,sp,#0x10
        0x000053fe:    bd10        ..      POPEQ    {r4,pc}
        0x00005400:    ed9d0b0a    ....    VLDR     d0,[sp,#0x28]
        0x00005404:    ec532b10    S..+    VMOV     r2,r3,d0
        0x00005408:    ec510b10    Q...    VMOV     r0,r1,d0
        0x0000540c:    f001f962    ..b.    BL       __aeabi_dmul ; 0x66d4
        0x00005410:    ec410b18    A...    VMOV     d8,r0,r1
        0x00005414:    483c        <H      LDR      r0,[pc,#240] ; [0x5508] = 0x179c
        0x00005416:    2106        .!      MOVS     r1,#6
        0x00005418:    eeb00a48    ..H.    VMOV.F32 s0,s16
        0x0000541c:    eef00a68    ..h.    VMOV.F32 s1,s17
        0x00005420:    4478        xD      ADD      r0,r0,pc
        0x00005422:    f000f881    ....    BL       __kernel_poly ; 0x5528
        0x00005426:    ec532b18    S..+    VMOV     r2,r3,d8
        0x0000542a:    ec510b10    Q...    VMOV     r0,r1,d0
        0x0000542e:    f001f951    ..Q.    BL       __aeabi_dmul ; 0x66d4
        0x00005432:    ed9d0b0a    ....    VLDR     d0,[sp,#0x28]
        0x00005436:    ec410b1b    A...    VMOV     d11,r0,r1
        0x0000543a:    ec532b19    S..+    VMOV     r2,r3,d9
        0x0000543e:    ec510b10    Q...    VMOV     r0,r1,d0
        0x00005442:    f001f947    ..G.    BL       __aeabi_dmul ; 0x66d4
        0x00005446:    ec410b19    A...    VMOV     d9,r0,r1
        0x0000544a:    ec532b1b    S..+    VMOV     r2,r3,d11
        0x0000544e:    ec510b18    Q...    VMOV     r0,r1,d8
        0x00005452:    f001f93f    ..?.    BL       __aeabi_dmul ; 0x66d4
        0x00005456:    ec532b19    S..+    VMOV     r2,r3,d9
        0x0000545a:    f001fa45    ..E.    BL       __aeabi_dsub ; 0x68e8
        0x0000545e:    ed9f0b2c    ..,.    VLDR     d0,[pc,#176] ; [0x5510] = 0
        0x00005462:    ec410b19    A...    VMOV     d9,r0,r1
        0x00005466:    ec532b10    S..+    VMOV     r2,r3,d0
        0x0000546a:    ec510b18    Q...    VMOV     r0,r1,d8
        0x0000546e:    f001f931    ..1.    BL       __aeabi_dmul ; 0x66d4
        0x00005472:    ec410b10    A...    VMOV     d0,r0,r1
        0x00005476:    4828        (H      LDR      r0,[pc,#160] ; [0x5518] = 0x3fd33333
        0x00005478:    4284        .B      CMP      r4,r0
        0x0000547a:    da10        ..      BGE      0x549e ; __kernel_cos + 230
        0x0000547c:    ec532b19    S..+    VMOV     r2,r3,d9
        0x00005480:    ec510b10    Q...    VMOV     r0,r1,d0
        0x00005484:    f001fa30    ..0.    BL       __aeabi_dsub ; 0x68e8
        0x00005488:    ec532b1a    S..+    VMOV     r2,r3,d10
        0x0000548c:    f001fa20    .. .    BL       __aeabi_drsub ; 0x68d0
        0x00005490:    ec410b10    A...    VMOV     d0,r0,r1
        0x00005494:    b002        ..      ADD      sp,sp,#8
        0x00005496:    ecbd8b08    ....    VPOP     {d8-d11}
        0x0000549a:    b004        ..      ADD      sp,sp,#0x10
        0x0000549c:    bd10        ..      POP      {r4,pc}
        0x0000549e:    481f        .H      LDR      r0,[pc,#124] ; [0x551c] = 0x3fe90000
        0x000054a0:    42a0        .B      CMP      r0,r4
        0x000054a2:    bfbc        ..      ITT      LT
        0x000054a4:    ed9f1b1e    ....    VLDRLT   d1,[pc,#120] ; [0x5520] = 0
        0x000054a8:    ed8d1b00    ....    VSTRLT   d1,[sp,#0]
        0x000054ac:    db06        ..      BLT      0x54bc ; __kernel_cos + 260
        0x000054ae:    f5a41000    ....    SUB      r0,r4,#0x200000
        0x000054b2:    9001        ..      STR      r0,[sp,#4]
        0x000054b4:    2000        .       MOVS     r0,#0
        0x000054b6:    9000        ..      STR      r0,[sp,#0]
        0x000054b8:    ed9d1b00    ....    VLDR     d1,[sp,#0]
        0x000054bc:    ec510b10    Q...    VMOV     r0,r1,d0
        0x000054c0:    ec532b11    S..+    VMOV     r2,r3,d1
        0x000054c4:    f001fa10    ....    BL       __aeabi_dsub ; 0x68e8
        0x000054c8:    ed9d0b00    ....    VLDR     d0,[sp,#0]
        0x000054cc:    ec410b18    A...    VMOV     d8,r0,r1
        0x000054d0:    ec532b10    S..+    VMOV     r2,r3,d0
        0x000054d4:    ec510b1a    Q...    VMOV     r0,r1,d10
        0x000054d8:    f001fa06    ....    BL       __aeabi_dsub ; 0x68e8
        0x000054dc:    ec410b1a    A...    VMOV     d10,r0,r1
        0x000054e0:    ec532b19    S..+    VMOV     r2,r3,d9
        0x000054e4:    ec510b18    Q...    VMOV     r0,r1,d8
        0x000054e8:    f001f9fe    ....    BL       __aeabi_dsub ; 0x68e8
        0x000054ec:    ec532b1a    S..+    VMOV     r2,r3,d10
        0x000054f0:    f001f9ee    ....    BL       __aeabi_drsub ; 0x68d0
        0x000054f4:    ec410b10    A...    VMOV     d0,r0,r1
        0x000054f8:    e7cc        ..      B        0x5494 ; __kernel_cos + 220
    $d
        0x000054fa:    0000        ..      DCW    0
        0x000054fc:    00000000    ....    DCD    0
        0x00005500:    00000000    ....    DCD    0
        0x00005504:    3ff00000    ...?    DCD    1072693248
        0x00005508:    0000179c    ....    DCD    6044
        0x0000550c:    00000000    ....    DCD    0
        0x00005510:    00000000    ....    DCD    0
        0x00005514:    3fe00000    ...?    DCD    1071644672
        0x00005518:    3fd33333    33.?    DCD    1070805811
        0x0000551c:    3fe90000    ...?    DCD    1072234496
        0x00005520:    00000000    ....    DCD    0
        0x00005524:    3fd20000    ...?    DCD    1070727168
    $t
    i.__kernel_poly
    __kernel_poly
        0x00005528:    b570        p.      PUSH     {r4-r6,lr}
        0x0000552a:    4604        .F      MOV      r4,r0
        0x0000552c:    ed2d8b02    -...    VPUSH    {d8}
        0x00005530:    1e4d        M.      SUBS     r5,r1,#1
        0x00005532:    eb0000c5    ....    ADD      r0,r0,r5,LSL #3
        0x00005536:    eeb08a40    ..@.    VMOV.F32 s16,s0
        0x0000553a:    eef08a60    ..`.    VMOV.F32 s17,s1
        0x0000553e:    ed900b00    ....    VLDR     d0,[r0,#0]
        0x00005542:    f0350006    5...    BICS     r0,r5,#6
        0x00005546:    d017        ..      BEQ      0x5578 ; __kernel_poly + 80
        0x00005548:    ec532b18    S..+    VMOV     r2,r3,d8
        0x0000554c:    ec510b10    Q...    VMOV     r0,r1,d0
        0x00005550:    f001f8c0    ....    BL       __aeabi_dmul ; 0x66d4
        0x00005554:    ec410b10    A...    VMOV     d0,r0,r1
        0x00005558:    1e6d        m.      SUBS     r5,r5,#1
        0x0000555a:    eb0400c5    ....    ADD      r0,r4,r5,LSL #3
        0x0000555e:    ed901b00    ....    VLDR     d1,[r0,#0]
        0x00005562:    ec510b10    Q...    VMOV     r0,r1,d0
        0x00005566:    ec532b11    S..+    VMOV     r2,r3,d1
        0x0000556a:    f000fde5    ....    BL       __aeabi_dadd ; 0x6138
        0x0000556e:    ec410b10    A...    VMOV     d0,r0,r1
        0x00005572:    f0350006    5...    BICS     r0,r5,#6
        0x00005576:    d1e7        ..      BNE      0x5548 ; __kernel_poly + 32
        0x00005578:    2d02        .-      CMP      r5,#2
        0x0000557a:    d036        6.      BEQ      0x55ea ; __kernel_poly + 194
        0x0000557c:    2d04        .-      CMP      r5,#4
        0x0000557e:    d01c        ..      BEQ      0x55ba ; __kernel_poly + 146
        0x00005580:    2d06        .-      CMP      r5,#6
        0x00005582:    bf1c        ..      ITT      NE
        0x00005584:    ecbd8b02    ....    VPOPNE   {d8}
        0x00005588:    bd70        p.      POPNE    {r4-r6,pc}
        0x0000558a:    ec532b18    S..+    VMOV     r2,r3,d8
        0x0000558e:    ec510b10    Q...    VMOV     r0,r1,d0
        0x00005592:    f001f89f    ....    BL       __aeabi_dmul ; 0x66d4
        0x00005596:    ed941b0a    ....    VLDR     d1,[r4,#0x28]
        0x0000559a:    ec532b11    S..+    VMOV     r2,r3,d1
        0x0000559e:    f000fdcb    ....    BL       __aeabi_dadd ; 0x6138
        0x000055a2:    ec532b18    S..+    VMOV     r2,r3,d8
        0x000055a6:    f001f895    ....    BL       __aeabi_dmul ; 0x66d4
        0x000055aa:    ed941b08    ....    VLDR     d1,[r4,#0x20]
        0x000055ae:    ec532b11    S..+    VMOV     r2,r3,d1
        0x000055b2:    f000fdc1    ....    BL       __aeabi_dadd ; 0x6138
        0x000055b6:    ec410b10    A...    VMOV     d0,r0,r1
        0x000055ba:    ec532b18    S..+    VMOV     r2,r3,d8
        0x000055be:    ec510b10    Q...    VMOV     r0,r1,d0
        0x000055c2:    f001f887    ....    BL       __aeabi_dmul ; 0x66d4
        0x000055c6:    ed941b06    ....    VLDR     d1,[r4,#0x18]
        0x000055ca:    ec532b11    S..+    VMOV     r2,r3,d1
        0x000055ce:    f000fdb3    ....    BL       __aeabi_dadd ; 0x6138
        0x000055d2:    ec532b18    S..+    VMOV     r2,r3,d8
        0x000055d6:    f001f87d    ..}.    BL       __aeabi_dmul ; 0x66d4
        0x000055da:    ed940b04    ....    VLDR     d0,[r4,#0x10]
        0x000055de:    ec532b10    S..+    VMOV     r2,r3,d0
        0x000055e2:    f000fda9    ....    BL       __aeabi_dadd ; 0x6138
        0x000055e6:    ec410b10    A...    VMOV     d0,r0,r1
        0x000055ea:    ec532b18    S..+    VMOV     r2,r3,d8
        0x000055ee:    ec510b10    Q...    VMOV     r0,r1,d0
        0x000055f2:    f001f86f    ..o.    BL       __aeabi_dmul ; 0x66d4
        0x000055f6:    ed941b02    ....    VLDR     d1,[r4,#8]
        0x000055fa:    ec532b11    S..+    VMOV     r2,r3,d1
        0x000055fe:    f000fd9b    ....    BL       __aeabi_dadd ; 0x6138
        0x00005602:    ec532b18    S..+    VMOV     r2,r3,d8
        0x00005606:    f001f865    ..e.    BL       __aeabi_dmul ; 0x66d4
        0x0000560a:    ed941b00    ....    VLDR     d1,[r4,#0]
        0x0000560e:    ec532b11    S..+    VMOV     r2,r3,d1
        0x00005612:    f000fd91    ....    BL       __aeabi_dadd ; 0x6138
        0x00005616:    ecbd8b02    ....    VPOP     {d8}
        0x0000561a:    ec410b10    A...    VMOV     d0,r0,r1
        0x0000561e:    bd70        p.      POP      {r4-r6,pc}
    i.__kernel_sin
    __kernel_sin
        0x00005620:    b531        1.      PUSH     {r0,r4,r5,lr}
        0x00005622:    4604        .F      MOV      r4,r0
        0x00005624:    ed2d0b04    -...    VPUSH    {d0-d1}
        0x00005628:    ed2d8b0a    -...    VPUSH    {d8-d12}
        0x0000562c:    eeb0ba41    ..A.    VMOV.F32 s22,s2
        0x00005630:    eef0ba61    ..a.    VMOV.F32 s23,s3
        0x00005634:    980b        ..      LDR      r0,[sp,#0x2c]
        0x00005636:    ed9d0b0a    ....    VLDR     d0,[sp,#0x28]
        0x0000563a:    f0204000     ..@    BIC      r0,r0,#0x80000000
        0x0000563e:    f1b05f79    ..y_    CMP      r0,#0x3e400000
        0x00005642:    da0d        ..      BGE      0x5660 ; __kernel_sin + 64
        0x00005644:    ec510b10    Q...    VMOV     r0,r1,d0
        0x00005648:    f7fffbba    ....    BL       __ARM_fpclassify ; 0x4dc0
        0x0000564c:    2804        .(      CMP      r0,#4
        0x0000564e:    bf08        ..      IT       EQ
        0x00005650:    f000f89a    ....    BLEQ     __mathlib_dbl_underflow ; 0x5788
        0x00005654:    ed9d0b0a    ....    VLDR     d0,[sp,#0x28]
        0x00005658:    ecbd8b0a    ....    VPOP     {d8-d12}
        0x0000565c:    b005        ..      ADD      sp,sp,#0x14
        0x0000565e:    bd30        0.      POP      {r4,r5,pc}
        0x00005660:    ec532b10    S..+    VMOV     r2,r3,d0
        0x00005664:    ec510b10    Q...    VMOV     r0,r1,d0
        0x00005668:    f001f834    ..4.    BL       __aeabi_dmul ; 0x66d4
        0x0000566c:    ec410b18    A...    VMOV     d8,r0,r1
        0x00005670:    ed9d0b0a    ....    VLDR     d0,[sp,#0x28]
        0x00005674:    ec532b18    S..+    VMOV     r2,r3,d8
        0x00005678:    ec510b10    Q...    VMOV     r0,r1,d0
        0x0000567c:    f001f82a    ..*.    BL       __aeabi_dmul ; 0x66d4
        0x00005680:    ec410b19    A...    VMOV     d9,r0,r1
        0x00005684:    482c        ,H      LDR      r0,[pc,#176] ; [0x5738] = 0x1624
        0x00005686:    eeb00a48    ..H.    VMOV.F32 s0,s16
        0x0000568a:    eef00a68    ..h.    VMOV.F32 s1,s17
        0x0000568e:    2105        .!      MOVS     r1,#5
        0x00005690:    4478        xD      ADD      r0,r0,pc
        0x00005692:    f7ffff49    ..I.    BL       __kernel_poly ; 0x5528
        0x00005696:    ed9fcb2a    ..*.    VLDR     d12,[pc,#168] ; [0x5740] = 0x55555549
        0x0000569a:    eeb0aa40    ..@.    VMOV.F32 s20,s0
        0x0000569e:    eef0aa60    ..`.    VMOV.F32 s21,s1
        0x000056a2:    b39c        ..      CBZ      r4,0x570c ; __kernel_sin + 236
        0x000056a4:    ec532b1c    S..+    VMOV     r2,r3,d12
        0x000056a8:    ec510b19    Q...    VMOV     r0,r1,d9
        0x000056ac:    f001f812    ....    BL       __aeabi_dmul ; 0x66d4
        0x000056b0:    ec410b1c    A...    VMOV     d12,r0,r1
        0x000056b4:    ec532b1a    S..+    VMOV     r2,r3,d10
        0x000056b8:    ec510b19    Q...    VMOV     r0,r1,d9
        0x000056bc:    f001f80a    ....    BL       __aeabi_dmul ; 0x66d4
        0x000056c0:    ed9f0b21    ..!.    VLDR     d0,[pc,#132] ; [0x5748] = 0
        0x000056c4:    ec410b19    A...    VMOV     d9,r0,r1
        0x000056c8:    ec532b10    S..+    VMOV     r2,r3,d0
        0x000056cc:    ec510b1b    Q...    VMOV     r0,r1,d11
        0x000056d0:    f001f800    ....    BL       __aeabi_dmul ; 0x66d4
        0x000056d4:    ec532b19    S..+    VMOV     r2,r3,d9
        0x000056d8:    f001f906    ....    BL       __aeabi_dsub ; 0x68e8
        0x000056dc:    ec532b18    S..+    VMOV     r2,r3,d8
        0x000056e0:    f000fff8    ....    BL       __aeabi_dmul ; 0x66d4
        0x000056e4:    ec532b1b    S..+    VMOV     r2,r3,d11
        0x000056e8:    f001f8fe    ....    BL       __aeabi_dsub ; 0x68e8
        0x000056ec:    ec532b1c    S..+    VMOV     r2,r3,d12
        0x000056f0:    f001f8fa    ....    BL       __aeabi_dsub ; 0x68e8
        0x000056f4:    ed9d1b0a    ....    VLDR     d1,[sp,#0x28]
        0x000056f8:    ec532b11    S..+    VMOV     r2,r3,d1
        0x000056fc:    f001f8e8    ....    BL       __aeabi_drsub ; 0x68d0
        0x00005700:    ecbd8b0a    ....    VPOP     {d8-d12}
        0x00005704:    b005        ..      ADD      sp,sp,#0x14
        0x00005706:    ec410b10    A...    VMOV     d0,r0,r1
        0x0000570a:    bd30        0.      POP      {r4,r5,pc}
        0x0000570c:    e7ff        ..      B        0x570e ; __kernel_sin + 238
        0x0000570e:    ec532b1a    S..+    VMOV     r2,r3,d10
        0x00005712:    ec510b18    Q...    VMOV     r0,r1,d8
        0x00005716:    f000ffdd    ....    BL       __aeabi_dmul ; 0x66d4
        0x0000571a:    ec532b1c    S..+    VMOV     r2,r3,d12
        0x0000571e:    f000fd0b    ....    BL       __aeabi_dadd ; 0x6138
        0x00005722:    ec532b19    S..+    VMOV     r2,r3,d9
        0x00005726:    f000ffd5    ....    BL       __aeabi_dmul ; 0x66d4
        0x0000572a:    ed9d1b0a    ....    VLDR     d1,[sp,#0x28]
        0x0000572e:    ec532b11    S..+    VMOV     r2,r3,d1
        0x00005732:    f000fd01    ....    BL       __aeabi_dadd ; 0x6138
        0x00005736:    e7e3        ..      B        0x5700 ; __kernel_sin + 224
    $d
        0x00005738:    00001624    $...    DCD    5668
        0x0000573c:    00000000    ....    DCD    0
        0x00005740:    55555549    IUUU    DCD    1431655753
        0x00005744:    bfc55555    UU..    DCD    3217380693
        0x00005748:    00000000    ....    DCD    0
        0x0000574c:    3fe00000    ...?    DCD    1071644672
    $t
    i.__mathlib_dbl_infnan
    __mathlib_dbl_infnan
        0x00005750:    b510        ..      PUSH     {r4,lr}
        0x00005752:    ec532b10    S..+    VMOV     r2,r3,d0
        0x00005756:    ec510b10    Q...    VMOV     r0,r1,d0
        0x0000575a:    f000fced    ....    BL       __aeabi_dadd ; 0x6138
        0x0000575e:    ec410b10    A...    VMOV     d0,r0,r1
        0x00005762:    bd10        ..      POP      {r4,pc}
        0x00005764:    0000        ..      MOVS     r0,r0
        0x00005766:    0000        ..      MOVS     r0,r0
    i.__mathlib_dbl_invalid
    __mathlib_dbl_invalid
        0x00005768:    ed9f0b05    ....    VLDR     d0,[pc,#20] ; [0x5780] = 0
        0x0000576c:    b510        ..      PUSH     {r4,lr}
        0x0000576e:    ec532b10    S..+    VMOV     r2,r3,d0
        0x00005772:    ec510b10    Q...    VMOV     r0,r1,d0
        0x00005776:    f000fd87    ....    BL       __aeabi_ddiv ; 0x6288
        0x0000577a:    ec410b10    A...    VMOV     d0,r0,r1
        0x0000577e:    bd10        ..      POP      {r4,pc}
    $d
        0x00005780:    00000000    ....    DCD    0
        0x00005784:    00000000    ....    DCD    0
    $t
    i.__mathlib_dbl_underflow
    __mathlib_dbl_underflow
        0x00005788:    ed9f0b05    ....    VLDR     d0,[pc,#20] ; [0x57a0] = 0
        0x0000578c:    b510        ..      PUSH     {r4,lr}
        0x0000578e:    ec532b10    S..+    VMOV     r2,r3,d0
        0x00005792:    ec510b10    Q...    VMOV     r0,r1,d0
        0x00005796:    f000ff9d    ....    BL       __aeabi_dmul ; 0x66d4
        0x0000579a:    ec410b10    A...    VMOV     d0,r0,r1
        0x0000579e:    bd10        ..      POP      {r4,pc}
    $d
        0x000057a0:    00000000    ....    DCD    0
        0x000057a4:    10000000    ....    DCD    268435456
    $t
    i.am_bsp_debug_printf_disable
    am_bsp_debug_printf_disable
        0x000057a8:    4815        .H      LDR      r0,[pc,#84] ; [0x5800] = 0x10000000
        0x000057aa:    6800        .h      LDR      r0,[r0,#0]
        0x000057ac:    f0100f01    ....    TST      r0,#1
        0x000057b0:    bf18        ..      IT       NE
        0x000057b2:    4770        pG      BXNE     lr
        0x000057b4:    b508        ..      PUSH     {r3,lr}
        0x000057b6:    f000f9cb    ....    BL       am_hal_itm_not_busy ; 0x5b50
        0x000057ba:    f3ef8010    ....    MRS      r0,PRIMASK
        0x000057be:    9000        ..      STR      r0,[sp,#0]
        0x000057c0:    b672        r.      CPSID    i
        0x000057c2:    4810        .H      LDR      r0,[pc,#64] ; [0x5804] = 0x40010000
        0x000057c4:    2173        s!      MOVS     r1,#0x73
        0x000057c6:    6601        .f      STR      r1,[r0,#0x60]
        0x000057c8:    6d41        Am      LDR      r1,[r0,#0x54]
        0x000057ca:    f0210170    !.p.    BIC      r1,r1,#0x70
        0x000057ce:    f0410120    A. .    ORR      r1,r1,#0x20
        0x000057d2:    6541        Ae      STR      r1,[r0,#0x54]
        0x000057d4:    6a81        .j      LDR      r1,[r0,#0x28]
        0x000057d6:    f421417f    !..A    BIC      r1,r1,#0xff00
        0x000057da:    f44151c0    A..Q    ORR      r1,r1,#0x1800
        0x000057de:    6281        .b      STR      r1,[r0,#0x28]
        0x000057e0:    f8d01108    ....    LDR      r1,[r0,#0x108]
        0x000057e4:    f421417f    !..A    BIC      r1,r1,#0xff00
        0x000057e8:    f8c01108    ....    STR      r1,[r0,#0x108]
        0x000057ec:    2100        .!      MOVS     r1,#0
        0x000057ee:    6601        .f      STR      r1,[r0,#0x60]
        0x000057f0:    9800        ..      LDR      r0,[sp,#0]
        0x000057f2:    f3808810    ....    MSR      PRIMASK,r0
        0x000057f6:    e8bd4008    ...@    POP      {r3,lr}
        0x000057fa:    f000bbc5    ....    B.W      am_hal_tpiu_disable ; 0x5f88
    $d
        0x000057fe:    0000        ..      DCW    0
        0x00005800:    10000000    ....    DCD    268435456
        0x00005804:    40010000    ...@    DCD    1073807360
    $t
    i.am_bsp_debug_printf_enable
    am_bsp_debug_printf_enable
        0x00005808:    4816        .H      LDR      r0,[pc,#88] ; [0x5864] = 0x10000000
        0x0000580a:    6800        .h      LDR      r0,[r0,#0]
        0x0000580c:    f0100f01    ....    TST      r0,#1
        0x00005810:    bf18        ..      IT       NE
        0x00005812:    4770        pG      BXNE     lr
        0x00005814:    b500        ..      PUSH     {lr}
        0x00005816:    b087        ..      SUB      sp,sp,#0x1c
        0x00005818:    4914        .I      LDR      r1,[pc,#80] ; [0x586c] = 0xe0000e80
        0x0000581a:    4813        .H      LDR      r0,[pc,#76] ; [0x5868] = 0x150511
        0x0000581c:    6008        .`      STR      r0,[r1,#0]
        0x0000581e:    4814        .H      LDR      r0,[pc,#80] ; [0x5870] = 0xf4240
        0x00005820:    9000        ..      STR      r0,[sp,#0]
        0x00005822:    4668        hF      MOV      r0,sp
        0x00005824:    f000fbb8    ....    BL       am_hal_tpiu_enable ; 0x5f98
        0x00005828:    f3ef8010    ....    MRS      r0,PRIMASK
        0x0000582c:    9005        ..      STR      r0,[sp,#0x14]
        0x0000582e:    b672        r.      CPSID    i
        0x00005830:    4810        .H      LDR      r0,[pc,#64] ; [0x5874] = 0x40010000
        0x00005832:    2173        s!      MOVS     r1,#0x73
        0x00005834:    6601        .f      STR      r1,[r0,#0x60]
        0x00005836:    6d41        Am      LDR      r1,[r0,#0x54]
        0x00005838:    f0210170    !.p.    BIC      r1,r1,#0x70
        0x0000583c:    6541        Ae      STR      r1,[r0,#0x54]
        0x0000583e:    6a81        .j      LDR      r1,[r0,#0x28]
        0x00005840:    f421417f    !..A    BIC      r1,r1,#0xff00
        0x00005844:    f4415180    A..Q    ORR      r1,r1,#0x1000
        0x00005848:    6281        .b      STR      r1,[r0,#0x28]
        0x0000584a:    f8d01108    ....    LDR      r1,[r0,#0x108]
        0x0000584e:    f421417f    !..A    BIC      r1,r1,#0xff00
        0x00005852:    f8c01108    ....    STR      r1,[r0,#0x108]
        0x00005856:    2100        .!      MOVS     r1,#0
        0x00005858:    6601        .f      STR      r1,[r0,#0x60]
        0x0000585a:    9805        ..      LDR      r0,[sp,#0x14]
        0x0000585c:    f3808810    ....    MSR      PRIMASK,r0
        0x00005860:    b007        ..      ADD      sp,sp,#0x1c
        0x00005862:    bd00        ..      POP      {pc}
    $d
        0x00005864:    10000000    ....    DCD    268435456
        0x00005868:    00150511    ....    DCD    1377553
        0x0000586c:    e0000e80    ....    DCD    3758100096
        0x00005870:    000f4240    @B..    DCD    1000000
        0x00005874:    40010000    ...@    DCD    1073807360
    $t
    i.am_bsp_itm_string_print
    am_bsp_itm_string_print
        0x00005878:    f000b976    ..v.    B.W      am_hal_itm_print ; 0x5b68
    i.am_bsp_low_power_init
    am_bsp_low_power_init
        0x0000587c:    b510        ..      PUSH     {r4,lr}
        0x0000587e:    f000f9e7    ....    BL       am_hal_pwrctrl_bucks_init ; 0x5c50
        0x00005882:    f000fa05    ....    BL       am_hal_pwrctrl_low_power_init ; 0x5c90
        0x00005886:    f000fbcb    ....    BL       am_hal_vcomp_disable ; 0x6020
        0x0000588a:    2001        .       MOVS     r0,#1
        0x0000588c:    f000fad3    ....    BL       am_hal_rtc_osc_select ; 0x5e36
        0x00005890:    2001        .       MOVS     r0,#1
        0x00005892:    f000f86d    ..m.    BL       am_hal_clkgen_osc_stop ; 0x5970
        0x00005896:    e8bd4010    ...@    POP      {r4,lr}
        0x0000589a:    f000bac5    ....    B.W      am_hal_rtc_osc_disable ; 0x5e28
        0x0000589e:    0000        ..      MOVS     r0,r0
    i.am_hal_cachectrl_enable
    am_hal_cachectrl_enable
        0x000058a0:    b570        p.      PUSH     {r4-r6,lr}
        0x000058a2:    4604        .F      MOV      r4,r0
        0x000058a4:    78c0        .x      LDRB     r0,[r0,#3]
        0x000058a6:    7861        ax      LDRB     r1,[r4,#1]
        0x000058a8:    2202        ."      MOVS     r2,#2
        0x000058aa:    ea020141    ..A.    AND      r1,r2,r1,LSL #1
        0x000058ae:    4301        .C      ORRS     r1,r1,r0
        0x000058b0:    78a0        .x      LDRB     r0,[r4,#2]
        0x000058b2:    2204        ."      MOVS     r2,#4
        0x000058b4:    ea020280    ....    AND      r2,r2,r0,LSL #2
        0x000058b8:    f3c00040    ..@.    UBFX     r0,r0,#1,#1
        0x000058bc:    ea4200c0    B...    ORR      r0,r2,r0,LSL #3
        0x000058c0:    4308        .C      ORRS     r0,r0,r1
        0x000058c2:    7921        !y      LDRB     r1,[r4,#4]
        0x000058c4:    2280        ."      MOVS     r2,#0x80
        0x000058c6:    ea0211c1    ....    AND      r1,r2,r1,LSL #7
        0x000058ca:    4308        .C      ORRS     r0,r0,r1
        0x000058cc:    79a1        .y      LDRB     r1,[r4,#6]
        0x000058ce:    00d2        ..      LSLS     r2,r2,#3
        0x000058d0:    ea022181    ...!    AND      r1,r2,r1,LSL #10
        0x000058d4:    4308        .C      ORRS     r0,r0,r1
        0x000058d6:    79e1        .y      LDRB     r1,[r4,#7]
        0x000058d8:    0052        R.      LSLS     r2,r2,#1
        0x000058da:    ea0221c1    ...!    AND      r1,r2,r1,LSL #11
        0x000058de:    4308        .C      ORRS     r0,r0,r1
        0x000058e0:    7a21        !z      LDRB     r1,[r4,#8]
        0x000058e2:    f44f4270    O.pB    MOV      r2,#0xf000
        0x000058e6:    ea023101    ...1    AND      r1,r2,r1,LSL #12
        0x000058ea:    4308        .C      ORRS     r0,r0,r1
        0x000058ec:    7a61        az      LDRB     r1,[r4,#9]
        0x000058ee:    0112        ..      LSLS     r2,r2,#4
        0x000058f0:    ea024101    ...A    AND      r1,r2,r1,LSL #16
        0x000058f4:    4308        .C      ORRS     r0,r0,r1
        0x000058f6:    7aa1        .z      LDRB     r1,[r4,#0xa]
        0x000058f8:    f44f1280    O...    MOV      r2,#0x100000
        0x000058fc:    ea025101    ...Q    AND      r1,r2,r1,LSL #20
        0x00005900:    4308        .C      ORRS     r0,r0,r1
        0x00005902:    7ae1        .z      LDRB     r1,[r4,#0xb]
        0x00005904:    0112        ..      LSLS     r2,r2,#4
        0x00005906:    ea026101    ...a    AND      r1,r2,r1,LSL #24
        0x0000590a:    4308        .C      ORRS     r0,r0,r1
        0x0000590c:    f0400501    @...    ORR      r5,r0,#1
        0x00005910:    f04f4020    O. @    MOV      r0,#0xa0000000
        0x00005914:    f000f9c8    ....    BL       am_hal_pwrctrl_memory_enable ; 0x5ca8
        0x00005918:    4814        .H      LDR      r0,[pc,#80] ; [0x596c] = 0x40018000
        0x0000591a:    6005        .`      STR      r5,[r0,#0]
        0x0000591c:    2100        .!      MOVS     r1,#0
        0x0000591e:    6882        .h      LDR      r2,[r0,#8]
        0x00005920:    f0120f04    ....    TST      r2,#4
        0x00005924:    bf04        ..      ITT      EQ
        0x00005926:    6882        .h      LDREQ    r2,[r0,#8]
        0x00005928:    f0120f04    ....    TSTEQ    r2,#4
        0x0000592c:    d102        ..      BNE      0x5934 ; am_hal_cachectrl_enable + 148
        0x0000592e:    1c89        ..      ADDS     r1,r1,#2
        0x00005930:    2932        2)      CMP      r1,#0x32
        0x00005932:    d3f4        ..      BCC      0x591e ; am_hal_cachectrl_enable + 126
        0x00005934:    6881        .h      LDR      r1,[r0,#8]
        0x00005936:    f0410101    A...    ORR      r1,r1,#1
        0x0000593a:    6081        .`      STR      r1,[r0,#8]
        0x0000593c:    2100        .!      MOVS     r1,#0
        0x0000593e:    6882        .h      LDR      r2,[r0,#8]
        0x00005940:    f0120f04    ....    TST      r2,#4
        0x00005944:    bf04        ..      ITT      EQ
        0x00005946:    6882        .h      LDREQ    r2,[r0,#8]
        0x00005948:    f0120f04    ....    TSTEQ    r2,#4
        0x0000594c:    d102        ..      BNE      0x5954 ; am_hal_cachectrl_enable + 180
        0x0000594e:    1c89        ..      ADDS     r1,r1,#2
        0x00005950:    2932        2)      CMP      r1,#0x32
        0x00005952:    d3f4        ..      BCC      0x593e ; am_hal_cachectrl_enable + 158
        0x00005954:    7961        ay      LDRB     r1,[r4,#5]
        0x00005956:    f44f7280    O..r    MOV      r2,#0x100
        0x0000595a:    ea022201    ..."    AND      r2,r2,r1,LSL #8
        0x0000595e:    f3c10140    ..@.    UBFX     r1,r1,#1,#1
        0x00005962:    ea422141    B.A!    ORR      r1,r2,r1,LSL #9
        0x00005966:    4329        )C      ORRS     r1,r1,r5
        0x00005968:    6001        .`      STR      r1,[r0,#0]
        0x0000596a:    bd70        p.      POP      {r4-r6,pc}
    $d
        0x0000596c:    40018000    ...@    DCD    1073840128
    $t
    i.am_hal_clkgen_osc_stop
    am_hal_clkgen_osc_stop
        0x00005970:    f0100f03    ....    TST      r0,#3
        0x00005974:    bf08        ..      IT       EQ
        0x00005976:    4770        pG      BXEQ     lr
        0x00005978:    f04f2140    O.@!    MOV      r1,#0x40004000
        0x0000597c:    68ca        .h      LDR      r2,[r1,#0xc]
        0x0000597e:    4310        .C      ORRS     r0,r0,r2
        0x00005980:    60c8        .`      STR      r0,[r1,#0xc]
        0x00005982:    4770        pG      BX       lr
    i.am_hal_clkgen_sysclk_get
    am_hal_clkgen_sysclk_get
        0x00005984:    f04f2040    O.@     MOV      r0,#0x40004000
        0x00005988:    6980        .i      LDR      r0,[r0,#0x18]
        0x0000598a:    f0100001    ....    ANDS     r0,r0,#1
        0x0000598e:    bf04        ..      ITT      EQ
        0x00005990:    4803        .H      LDREQ    r0,[pc,#12] ; [0x59a0] = 0x2dc6c00
        0x00005992:    4770        pG      BXEQ     lr
        0x00005994:    2800        .(      CMP      r0,#0
        0x00005996:    bf0c        ..      ITE      EQ
        0x00005998:    f04f30ff    O..0    MOVEQ    r0,#0xffffffff
        0x0000599c:    4801        .H      LDRNE    r0,[pc,#4] ; [0x59a4] = 0x16e3600
        0x0000599e:    4770        pG      BX       lr
    $d
        0x000059a0:    02dc6c00    .l..    DCD    48000000
        0x000059a4:    016e3600    .6n.    DCD    24000000
    $t
    i.am_hal_clkgen_sysclk_select
    am_hal_clkgen_sysclk_select
        0x000059a8:    b510        ..      PUSH     {r4,lr}
        0x000059aa:    0004        ..      MOVS     r4,r0
        0x000059ac:    d004        ..      BEQ      0x59b8 ; am_hal_clkgen_sysclk_select + 16
        0x000059ae:    a206        ..      ADR      r2,{pc}+0x1a ; 0x59c8
        0x000059b0:    214f        O!      MOVS     r1,#0x4f
        0x000059b2:    a013        ..      ADR      r0,{pc}+0x4e ; 0x5a00
        0x000059b4:    f000f898    ....    BL       am_hal_debug_error ; 0x5ae8
        0x000059b8:    f04f2040    O.@     MOV      r0,#0x40004000
        0x000059bc:    2147        G!      MOVS     r1,#0x47
        0x000059be:    6141        Aa      STR      r1,[r0,#0x14]
        0x000059c0:    6184        .a      STR      r4,[r0,#0x18]
        0x000059c2:    2100        .!      MOVS     r1,#0
        0x000059c4:    6141        Aa      STR      r1,[r0,#0x14]
        0x000059c6:    bd10        ..      POP      {r4,pc}
    $d
        0x000059c8:    685f6d61    am_h    DCD    1751084385
        0x000059cc:    635f6c61    al_c    DCD    1667198049
        0x000059d0:    65676b6c    lkge    DCD    1701276524
        0x000059d4:    79735f6e    n_sy    DCD    2037604206
        0x000059d8:    6b6c6373    sclk    DCD    1802265459
        0x000059dc:    6c65735f    _sel    DCD    1818587999
        0x000059e0:    28746365    ect(    DCD    678716261
        0x000059e4:    69203a29    ): i    DCD    1763719721
        0x000059e8:    6c61766e    nval    DCD    1818326638
        0x000059ec:    63206469    id c    DCD    1663067241
        0x000059f0:    6b636f6c    lock    DCD    1801678700
        0x000059f4:    74657320     set    DCD    1952805664
        0x000059f8:    676e6974    ting    DCD    1735289204
        0x000059fc:    0000002e    ....    DCD    46
        0x00005a00:    612f2e2e    ../a    DCD    1630481966
        0x00005a04:    61685f6d    m_ha    DCD    1634230125
        0x00005a08:    6c635f6c    l_cl    DCD    1818451820
        0x00005a0c:    6e65676b    kgen    DCD    1852139371
        0x00005a10:    0000632e    .c..    DCD    25390
    $t
    i.am_hal_ctimer_clear
    am_hal_ctimer_clear
        0x00005a14:    4a08        .J      LDR      r2,[pc,#32] ; [0x5a38] = 0x4000800c
        0x00005a16:    b081        ..      SUB      sp,sp,#4
        0x00005a18:    eb021000    ....    ADD      r0,r2,r0,LSL #4
        0x00005a1c:    f3ef8210    ....    MRS      r2,PRIMASK
        0x00005a20:    9200        ..      STR      r2,[sp,#0]
        0x00005a22:    6802        .h      LDR      r2,[r0,#0]
        0x00005a24:    b672        r.      CPSID    i
        0x00005a26:    f0012108    ...!    AND      r1,r1,#0x8000800
        0x00005a2a:    4311        .C      ORRS     r1,r1,r2
        0x00005a2c:    6001        .`      STR      r1,[r0,#0]
        0x00005a2e:    9800        ..      LDR      r0,[sp,#0]
        0x00005a30:    f3808810    ....    MSR      PRIMASK,r0
        0x00005a34:    b001        ..      ADD      sp,sp,#4
        0x00005a36:    4770        pG      BX       lr
    $d
        0x00005a38:    4000800c    ...@    DCD    1073774604
    $t
    i.am_hal_ctimer_period_set
    am_hal_ctimer_period_set
        0x00005a3c:    b438        8.      PUSH     {r3-r5}
        0x00005a3e:    f8dfc06c    ..l.    LDR      r12,[pc,#108] ; [0x5aac] = 0x4000800c
        0x00005a42:    4c1b        .L      LDR      r4,[pc,#108] ; [0x5ab0] = 0x40008004
        0x00005a44:    4d1b        .M      LDR      r5,[pc,#108] ; [0x5ab4] = 0x40008008
        0x00005a46:    eb0c1c00    ....    ADD      r12,r12,r0,LSL #4
        0x00005a4a:    eb041400    ....    ADD      r4,r4,r0,LSL #4
        0x00005a4e:    eb051500    ....    ADD      r5,r5,r0,LSL #4
        0x00005a52:    f3ef8010    ....    MRS      r0,PRIMASK
        0x00005a56:    b672        r.      CPSID    i
        0x00005a58:    9000        ..      STR      r0,[sp,#0]
        0x00005a5a:    f8dc0000    ....    LDR      r0,[r12,#0]
        0x00005a5e:    f5113f80    ...?    CMN      r1,#0x10000
        0x00005a62:    bf08        ..      IT       EQ
        0x00005a64:    0c00        ..      LSREQ    r0,r0,#16
        0x00005a66:    f40070e0    ...p    AND      r0,r0,#0x1c0
        0x00005a6a:    2880        .(      CMP      r0,#0x80
        0x00005a6c:    bf17        ..      ITETT    NE
        0x00005a6e:    28c0        .(      CMPNE    r0,#0xc0
        0x00005a70:    eba20c03    ....    SUBEQ    r12,r2,r3
        0x00005a74:    4694        .F      MOVNE    r12,r2
        0x00005a76:    2200        ."      MOVNE    r2,#0
        0x00005a78:    f5a1407f    ...@    SUB      r0,r1,#0xff00
        0x00005a7c:    38ff        .8      SUBS     r0,r0,#0xff
        0x00005a7e:    bf04        ..      ITT      EQ
        0x00005a80:    eacc4002    ...@    PKHBTEQ  r0,r12,r2,LSL #16
        0x00005a84:    6020         `      STREQ    r0,[r4,#0]
        0x00005a86:    d00c        ..      BEQ      0x5aa2 ; am_hal_ctimer_period_set + 102
        0x00005a88:    f5113f80    ...?    CMN      r1,#0x10000
        0x00005a8c:    eacc4002    ...@    PKHBT    r0,r12,r2,LSL #16
        0x00005a90:    d006        ..      BEQ      0x5aa0 ; am_hal_ctimer_period_set + 100
        0x00005a92:    6020         `      STR      r0,[r4,#0]
        0x00005a94:    ea4f401c    O..@    LSR      r0,r12,#16
        0x00005a98:    f36f020f    o...    BFC      r2,#0,#16
        0x00005a9c:    eac00002    ....    PKHBT    r0,r0,r2
        0x00005aa0:    6028        (`      STR      r0,[r5,#0]
        0x00005aa2:    9800        ..      LDR      r0,[sp,#0]
        0x00005aa4:    f3808810    ....    MSR      PRIMASK,r0
        0x00005aa8:    bc38        8.      POP      {r3-r5}
        0x00005aaa:    4770        pG      BX       lr
    $d
        0x00005aac:    4000800c    ...@    DCD    1073774604
        0x00005ab0:    40008004    ...@    DCD    1073774596
        0x00005ab4:    40008008    ...@    DCD    1073774600
    $t
    i.am_hal_ctimer_start
    am_hal_ctimer_start
        0x00005ab8:    4a0a        .J      LDR      r2,[pc,#40] ; [0x5ae4] = 0x4000800c
        0x00005aba:    b081        ..      SUB      sp,sp,#4
        0x00005abc:    eb021000    ....    ADD      r0,r2,r0,LSL #4
        0x00005ac0:    f3ef8210    ....    MRS      r2,PRIMASK
        0x00005ac4:    9200        ..      STR      r2,[sp,#0]
        0x00005ac6:    6802        .h      LDR      r2,[r0,#0]
        0x00005ac8:    b672        r.      CPSID    i
        0x00005aca:    f0012308    ...#    AND      r3,r1,#0x8000800
        0x00005ace:    439a        .C      BICS     r2,r2,r3
        0x00005ad0:    f0011101    ....    AND      r1,r1,#0x10001
        0x00005ad4:    4311        .C      ORRS     r1,r1,r2
        0x00005ad6:    6001        .`      STR      r1,[r0,#0]
        0x00005ad8:    9800        ..      LDR      r0,[sp,#0]
        0x00005ada:    f3808810    ....    MSR      PRIMASK,r0
        0x00005ade:    b001        ..      ADD      sp,sp,#4
        0x00005ae0:    4770        pG      BX       lr
    $d
        0x00005ae2:    0000        ..      DCW    0
        0x00005ae4:    4000800c    ...@    DCD    1073774604
    $t
    i.am_hal_debug_error
    am_hal_debug_error
        0x00005ae8:    e7fe        ..      B        am_hal_debug_error ; 0x5ae8
        0x00005aea:    0000        ..      MOVS     r0,r0
    i.am_hal_flash_delay
    am_hal_flash_delay
        0x00005aec:    4901        .I      LDR      r1,[pc,#4] ; [0x5af4] = 0x10000004
        0x00005aee:    6b49        Ik      LDR      r1,[r1,#0x34]
        0x00005af0:    4708        .G      BX       r1
    $d
        0x00005af2:    0000        ..      DCW    0
        0x00005af4:    10000004    ....    DCD    268435460
    $t
    i.am_hal_itm_enable
    am_hal_itm_enable
        0x00005af8:    480d        .H      LDR      r0,[pc,#52] ; [0x5b30] = 0x10000000
        0x00005afa:    6800        .h      LDR      r0,[r0,#0]
        0x00005afc:    f0100f01    ....    TST      r0,#1
        0x00005b00:    bf18        ..      IT       NE
        0x00005b02:    4770        pG      BXNE     lr
        0x00005b04:    480b        .H      LDR      r0,[pc,#44] ; [0x5b34] = 0xe000edfc
        0x00005b06:    6801        .h      LDR      r1,[r0,#0]
        0x00005b08:    f0417180    A..q    ORR      r1,r1,#0x1000000
        0x00005b0c:    6001        .`      STR      r1,[r0,#0]
        0x00005b0e:    6801        .h      LDR      r1,[r0,#0]
        0x00005b10:    f0117f80    ....    TST      r1,#0x1000000
        0x00005b14:    d0fb        ..      BEQ      0x5b0e ; am_hal_itm_enable + 22
        0x00005b16:    4909        .I      LDR      r1,[pc,#36] ; [0x5b3c] = 0xe0000fb0
        0x00005b18:    4807        .H      LDR      r0,[pc,#28] ; [0x5b38] = 0xc5acce55
        0x00005b1a:    6008        .`      STR      r0,[r1,#0]
        0x00005b1c:    4908        .I      LDR      r1,[pc,#32] ; [0x5b40] = 0xe0000e40
        0x00005b1e:    200f        .       MOVS     r0,#0xf
        0x00005b20:    6008        .`      STR      r0,[r1,#0]
        0x00005b22:    1748        H.      ASRS     r0,r1,#29
        0x00005b24:    4907        .I      LDR      r1,[pc,#28] ; [0x5b44] = 0xe0000e00
        0x00005b26:    6008        .`      STR      r0,[r1,#0]
        0x00005b28:    4908        .I      LDR      r1,[pc,#32] ; [0x5b4c] = 0xe0000e80
        0x00005b2a:    4807        .H      LDR      r0,[pc,#28] ; [0x5b48] = 0x150511
        0x00005b2c:    6008        .`      STR      r0,[r1,#0]
        0x00005b2e:    4770        pG      BX       lr
    $d
        0x00005b30:    10000000    ....    DCD    268435456
        0x00005b34:    e000edfc    ....    DCD    3758157308
        0x00005b38:    c5acce55    U...    DCD    3316436565
        0x00005b3c:    e0000fb0    ....    DCD    3758100400
        0x00005b40:    e0000e40    @...    DCD    3758100032
        0x00005b44:    e0000e00    ....    DCD    3758099968
        0x00005b48:    00150511    ....    DCD    1377553
        0x00005b4c:    e0000e80    ....    DCD    3758100096
    $t
    i.am_hal_itm_not_busy
    am_hal_itm_not_busy
        0x00005b50:    4804        .H      LDR      r0,[pc,#16] ; [0x5b64] = 0xe0000e80
        0x00005b52:    6801        .h      LDR      r1,[r0,#0]
        0x00005b54:    f4110f00    ....    TST      r1,#0x800000
        0x00005b58:    d1fb        ..      BNE      0x5b52 ; am_hal_itm_not_busy + 2
        0x00005b5a:    f44f7047    O.Gp    MOV      r0,#0x31c
        0x00005b5e:    f7ffbfc5    ....    B.W      am_hal_flash_delay ; 0x5aec
    $d
        0x00005b62:    0000        ..      DCW    0
        0x00005b64:    e0000e80    ....    DCD    3758100096
    $t
    i.am_hal_itm_print
    am_hal_itm_print
        0x00005b68:    7802        .x      LDRB     r2,[r0,#0]
        0x00005b6a:    2100        .!      MOVS     r1,#0
        0x00005b6c:    2a00        .*      CMP      r2,#0
        0x00005b6e:    bf08        ..      IT       EQ
        0x00005b70:    4770        pG      BXEQ     lr
        0x00005b72:    1c49        I.      ADDS     r1,r1,#1
        0x00005b74:    5c42        B\      LDRB     r2,[r0,r1]
        0x00005b76:    2a00        .*      CMP      r2,#0
        0x00005b78:    d1fb        ..      BNE      0x5b72 ; am_hal_itm_print + 10
        0x00005b7a:    2900        .)      CMP      r1,#0
        0x00005b7c:    bf08        ..      IT       EQ
        0x00005b7e:    4770        pG      BXEQ     lr
        0x00005b80:    f810cb01    ....    LDRB     r12,[r0],#1
        0x00005b84:    f04f4260    O.`B    MOV      r2,#0xe0000000
        0x00005b88:    6813        .h      LDR      r3,[r2,#0]
        0x00005b8a:    2b00        .+      CMP      r3,#0
        0x00005b8c:    d0fc        ..      BEQ      0x5b88 ; am_hal_itm_print + 32
        0x00005b8e:    f882c000    ....    STRB     r12,[r2,#0]
        0x00005b92:    1e49        I.      SUBS     r1,r1,#1
        0x00005b94:    d1f4        ..      BNE      0x5b80 ; am_hal_itm_print + 24
        0x00005b96:    4770        pG      BX       lr
    i.am_hal_mcuctrl_fault_status
    am_hal_mcuctrl_fault_status
        0x00005b98:    490c        .I      LDR      r1,[pc,#48] ; [0x5bcc] = 0x40020000
        0x00005b9a:    f8d121cc    ...!    LDR      r2,[r1,#0x1cc]
        0x00005b9e:    f0020301    ....    AND      r3,r2,#1
        0x00005ba2:    7003        .p      STRB     r3,[r0,#0]
        0x00005ba4:    f3c20340    ..@.    UBFX     r3,r2,#1,#1
        0x00005ba8:    7203        .r      STRB     r3,[r0,#8]
        0x00005baa:    f3c20280    ....    UBFX     r2,r2,#2,#1
        0x00005bae:    7402        .t      STRB     r2,[r0,#0x10]
        0x00005bb0:    f8d121c4    ...!    LDR      r2,[r1,#0x1c4]
        0x00005bb4:    60c2        .`      STR      r2,[r0,#0xc]
        0x00005bb6:    6842        Bh      LDR      r2,[r0,#4]
        0x00005bb8:    f8d131c0    ...1    LDR      r3,[r1,#0x1c0]
        0x00005bbc:    431a        .C      ORRS     r2,r2,r3
        0x00005bbe:    6042        B`      STR      r2,[r0,#4]
        0x00005bc0:    6942        Bi      LDR      r2,[r0,#0x14]
        0x00005bc2:    f8d111c8    ....    LDR      r1,[r1,#0x1c8]
        0x00005bc6:    4311        .C      ORRS     r1,r1,r2
        0x00005bc8:    6141        Aa      STR      r1,[r0,#0x14]
        0x00005bca:    4770        pG      BX       lr
    $d
        0x00005bcc:    40020000    ...@    DCD    1073872896
    $t
    i.am_hal_pwrctrl_bucks_disable
    am_hal_pwrctrl_bucks_disable
        0x00005bd0:    4810        .H      LDR      r0,[pc,#64] ; [0x5c14] = 0x40021000
        0x00005bd2:    6841        Ah      LDR      r1,[r0,#4]
        0x00005bd4:    f0110f02    ....    TST      r1,#2
        0x00005bd8:    bf02        ..      ITTT     EQ
        0x00005bda:    6841        Ah      LDREQ    r1,[r0,#4]
        0x00005bdc:    f0110f01    ....    TSTEQ    r1,#1
        0x00005be0:    4770        pG      BXEQ     lr
        0x00005be2:    490d        .I      LDR      r1,[pc,#52] ; [0x5c18] = 0x40020000
        0x00005be4:    68c9        .h      LDR      r1,[r1,#0xc]
        0x00005be6:    f00101f0    ....    AND      r1,r1,#0xf0
        0x00005bea:    2920         )      CMP      r1,#0x20
        0x00005bec:    bf04        ..      ITT      EQ
        0x00005bee:    6881        .h      LDREQ    r1,[r0,#8]
        0x00005bf0:    f5b17f00    ....    CMPEQ    r1,#0x200
        0x00005bf4:    6801        .h      LDR      r1,[r0,#0]
        0x00005bf6:    bf0f        ..      ITEEE    EQ
        0x00005bf8:    f0010105    ....    ANDEQ    r1,r1,#5
        0x00005bfc:    f0210102    !...    BICNE    r1,r1,#2
        0x00005c00:    6001        .`      STRNE    r1,[r0,#0]
        0x00005c02:    6801        .h      LDRNE    r1,[r0,#0]
        0x00005c04:    bf18        ..      IT       NE
        0x00005c06:    f0210101    !...    BICNE    r1,r1,#1
        0x00005c0a:    6001        .`      STR      r1,[r0,#0]
        0x00005c0c:    f04f000a    O...    MOV      r0,#0xa
        0x00005c10:    f7ffbf6c    ..l.    B.W      am_hal_flash_delay ; 0x5aec
    $d
        0x00005c14:    40021000    ...@    DCD    1073876992
        0x00005c18:    40020000    ...@    DCD    1073872896
    $t
    i.am_hal_pwrctrl_bucks_enable
    am_hal_pwrctrl_bucks_enable
        0x00005c1c:    480b        .H      LDR      r0,[pc,#44] ; [0x5c4c] = 0x40021000
        0x00005c1e:    6841        Ah      LDR      r1,[r0,#4]
        0x00005c20:    f0110f02    ....    TST      r1,#2
        0x00005c24:    bf1e        ..      ITTT     NE
        0x00005c26:    6841        Ah      LDRNE    r1,[r0,#4]
        0x00005c28:    f0110f01    ....    TSTNE    r1,#1
        0x00005c2c:    4770        pG      BXNE     lr
        0x00005c2e:    6801        .h      LDR      r1,[r0,#0]
        0x00005c30:    f0410102    A...    ORR      r1,r1,#2
        0x00005c34:    6001        .`      STR      r1,[r0,#0]
        0x00005c36:    6801        .h      LDR      r1,[r0,#0]
        0x00005c38:    f0410101    A...    ORR      r1,r1,#1
        0x00005c3c:    6001        .`      STR      r1,[r0,#0]
        0x00005c3e:    2103        .!      MOVS     r1,#3
        0x00005c40:    6842        Bh      LDR      r2,[r0,#4]
        0x00005c42:    ea310202    1...    BICS     r2,r1,r2
        0x00005c46:    d1fb        ..      BNE      0x5c40 ; am_hal_pwrctrl_bucks_enable + 36
        0x00005c48:    4770        pG      BX       lr
    $d
        0x00005c4a:    0000        ..      DCW    0
        0x00005c4c:    40021000    ...@    DCD    1073876992
    $t
    i.am_hal_pwrctrl_bucks_init
    am_hal_pwrctrl_bucks_init
        0x00005c50:    480e        .H      LDR      r0,[pc,#56] ; [0x5c8c] = 0x40021000
        0x00005c52:    6841        Ah      LDR      r1,[r0,#4]
        0x00005c54:    f0110f02    ....    TST      r1,#2
        0x00005c58:    f04f0103    O...    MOV      r1,#3
        0x00005c5c:    bf1c        ..      ITT      NE
        0x00005c5e:    6842        Bh      LDRNE    r2,[r0,#4]
        0x00005c60:    f0120f01    ....    TSTNE    r2,#1
        0x00005c64:    d10b        ..      BNE      0x5c7e ; am_hal_pwrctrl_bucks_init + 46
        0x00005c66:    6802        .h      LDR      r2,[r0,#0]
        0x00005c68:    f0420202    B...    ORR      r2,r2,#2
        0x00005c6c:    6002        .`      STR      r2,[r0,#0]
        0x00005c6e:    6802        .h      LDR      r2,[r0,#0]
        0x00005c70:    f0420201    B...    ORR      r2,r2,#1
        0x00005c74:    6002        .`      STR      r2,[r0,#0]
        0x00005c76:    6842        Bh      LDR      r2,[r0,#4]
        0x00005c78:    ea310202    1...    BICS     r2,r1,r2
        0x00005c7c:    d1fb        ..      BNE      0x5c76 ; am_hal_pwrctrl_bucks_init + 38
        0x00005c7e:    6842        Bh      LDR      r2,[r0,#4]
        0x00005c80:    ea310202    1...    BICS     r2,r1,r2
        0x00005c84:    d1fb        ..      BNE      0x5c7e ; am_hal_pwrctrl_bucks_init + 46
        0x00005c86:    2042        B       MOVS     r0,#0x42
        0x00005c88:    f7ffbf30    ..0.    B.W      am_hal_flash_delay ; 0x5aec
    $d
        0x00005c8c:    40021000    ...@    DCD    1073876992
    $t
    i.am_hal_pwrctrl_low_power_init
    am_hal_pwrctrl_low_power_init
        0x00005c90:    4804        .H      LDR      r0,[pc,#16] ; [0x5ca4] = 0x40021000
        0x00005c92:    6981        .i      LDR      r1,[r0,#0x18]
        0x00005c94:    f0410106    A...    ORR      r1,r1,#6
        0x00005c98:    6181        .a      STR      r1,[r0,#0x18]
        0x00005c9a:    6801        .h      LDR      r1,[r0,#0]
        0x00005c9c:    f0210104    !...    BIC      r1,r1,#4
        0x00005ca0:    6001        .`      STR      r1,[r0,#0]
        0x00005ca2:    4770        pG      BX       lr
    $d
        0x00005ca4:    40021000    ...@    DCD    1073876992
    $t
    i.am_hal_pwrctrl_memory_enable
    am_hal_pwrctrl_memory_enable
        0x00005ca8:    b410        ..      PUSH     {r4}
        0x00005caa:    f8dfc170    ..p.    LDR      r12,[pc,#368] ; [0x5e1c] = 0x40021000
        0x00005cae:    f5b06f00    ...o    CMP      r0,#0x800
        0x00005cb2:    d051        Q.      BEQ      0x5d58 ; am_hal_pwrctrl_memory_enable + 176
        0x00005cb4:    f5b05fc0    ..._    CMP      r0,#0x1800
        0x00005cb8:    d054        T.      BEQ      0x5d64 ; am_hal_pwrctrl_memory_enable + 188
        0x00005cba:    2801        .(      CMP      r0,#1
        0x00005cbc:    d057        W.      BEQ      0x5d6e ; am_hal_pwrctrl_memory_enable + 198
        0x00005cbe:    2803        .(      CMP      r0,#3
        0x00005cc0:    d05b        [.      BEQ      0x5d7a ; am_hal_pwrctrl_memory_enable + 210
        0x00005cc2:    2807        .(      CMP      r0,#7
        0x00005cc4:    d05f        _.      BEQ      0x5d86 ; am_hal_pwrctrl_memory_enable + 222
        0x00005cc6:    280f        .(      CMP      r0,#0xf
        0x00005cc8:    d063        c.      BEQ      0x5d92 ; am_hal_pwrctrl_memory_enable + 234
        0x00005cca:    281f        .(      CMP      r0,#0x1f
        0x00005ccc:    d067        g.      BEQ      0x5d9e ; am_hal_pwrctrl_memory_enable + 246
        0x00005cce:    283f        ?(      CMP      r0,#0x3f
        0x00005cd0:    d06b        k.      BEQ      0x5daa ; am_hal_pwrctrl_memory_enable + 258
        0x00005cd2:    287f        .(      CMP      r0,#0x7f
        0x00005cd4:    d072        r.      BEQ      0x5dbc ; am_hal_pwrctrl_memory_enable + 276
        0x00005cd6:    28ff        .(      CMP      r0,#0xff
        0x00005cd8:    d076        v.      BEQ      0x5dc8 ; am_hal_pwrctrl_memory_enable + 288
        0x00005cda:    f5a07180    ...q    SUB      r1,r0,#0x100
        0x00005cde:    39ff        .9      SUBS     r1,r1,#0xff
        0x00005ce0:    d033        3.      BEQ      0x5d4a ; am_hal_pwrctrl_memory_enable + 162
        0x00005ce2:    f5a07140    ..@q    SUB      r1,r0,#0x300
        0x00005ce6:    39ff        .9      SUBS     r1,r1,#0xff
        0x00005ce8:    d074        t.      BEQ      0x5dd4 ; am_hal_pwrctrl_memory_enable + 300
        0x00005cea:    4a4d        MJ      LDR      r2,[pc,#308] ; [0x5e20] = 0x7ff00
        0x00005cec:    ebb02122    .."!    SUBS     r1,r0,r2,ASR #8
        0x00005cf0:    bf08        ..      IT       EQ
        0x00005cf2:    f24071ff    @..q    MOVEQ    r1,#0x7ff
        0x00005cf6:    d075        u.      BEQ      0x5de4 ; am_hal_pwrctrl_memory_enable + 316
        0x00005cf8:    f1b04f20    .. O    CMP      r0,#0xa0000000
        0x00005cfc:    bf04        ..      ITT      EQ
        0x00005cfe:    f04f4120    O. A    MOVEQ    r1,#0xa0000000
        0x00005d02:    0a8a        ..      LSREQ    r2,r1,#10
        0x00005d04:    d06e        n.      BEQ      0x5de4 ; am_hal_pwrctrl_memory_enable + 316
        0x00005d06:    f06f4120    o. A    MVN      r1,#0xa0000000
        0x00005d0a:    4288        .B      CMP      r0,r1
        0x00005d0c:    d16c        l.      BNE      0x5de8 ; am_hal_pwrctrl_memory_enable + 320
        0x00005d0e:    2100        .!      MOVS     r1,#0
        0x00005d10:    43c3        .C      MVNS     r3,r0
        0x00005d12:    460a        .F      MOV      r2,r1
        0x00005d14:    ea5f2093    _..     LSRS.W   r0,r3,#10
        0x00005d18:    f8dc4010    ...@    LDR      r4,[r12,#0x10]
        0x00005d1c:    ea240303    $...    BIC      r3,r4,r3
        0x00005d20:    f8cc3010    ...0    STR      r3,[r12,#0x10]
        0x00005d24:    b129        ).      CBZ      r1,0x5d32 ; am_hal_pwrctrl_memory_enable + 138
        0x00005d26:    bf00        ..      NOP      
        0x00005d28:    f8dc3010    ...0    LDR      r3,[r12,#0x10]
        0x00005d2c:    4319        .C      ORRS     r1,r1,r3
        0x00005d2e:    f8cc1010    ....    STR      r1,[r12,#0x10]
        0x00005d32:    2800        .(      CMP      r0,#0
        0x00005d34:    bf18        ..      IT       NE
        0x00005d36:    21c7        .!      MOVNE    r1,#0xc7
        0x00005d38:    d05c        \.      BEQ      0x5df4 ; am_hal_pwrctrl_memory_enable + 332
        0x00005d3a:    bf00        ..      NOP      
        0x00005d3c:    f8dc3014    ...0    LDR      r3,[r12,#0x14]
        0x00005d40:    4203        .B      TST      r3,r0
        0x00005d42:    d055        U.      BEQ      0x5df0 ; am_hal_pwrctrl_memory_enable + 328
        0x00005d44:    1e49        I.      SUBS     r1,r1,#1
        0x00005d46:    d1f9        ..      BNE      0x5d3c ; am_hal_pwrctrl_memory_enable + 148
        0x00005d48:    e062        b.      B        0x5e10 ; am_hal_pwrctrl_memory_enable + 360
        0x00005d4a:    f24011ff    @...    MOV      r1,#0x1ff
        0x00005d4e:    f44f63c0    O..c    MOV      r3,#0x600
        0x00005d52:    020a        ..      LSLS     r2,r1,#8
        0x00005d54:    0218        ..      LSLS     r0,r3,#8
        0x00005d56:    e7df        ..      B        0x5d18 ; am_hal_pwrctrl_memory_enable + 112
        0x00005d58:    f44f6100    O..a    MOV      r1,#0x800
        0x00005d5c:    004b        K.      LSLS     r3,r1,#1
        0x00005d5e:    2220         "      MOVS     r2,#0x20
        0x00005d60:    2040        @       MOVS     r0,#0x40
        0x00005d62:    e7d9        ..      B        0x5d18 ; am_hal_pwrctrl_memory_enable + 112
        0x00005d64:    2260        `"      MOVS     r2,#0x60
        0x00005d66:    f44f51c0    O..Q    MOV      r1,#0x1800
        0x00005d6a:    2000        .       MOVS     r0,#0
        0x00005d6c:    e7dc        ..      B        0x5d28 ; am_hal_pwrctrl_memory_enable + 128
        0x00005d6e:    2101        .!      MOVS     r1,#1
        0x00005d70:    f24073fe    @..s    MOV      r3,#0x7fe
        0x00005d74:    020a        ..      LSLS     r2,r1,#8
        0x00005d76:    0218        ..      LSLS     r0,r3,#8
        0x00005d78:    e7ce        ..      B        0x5d18 ; am_hal_pwrctrl_memory_enable + 112
        0x00005d7a:    2103        .!      MOVS     r1,#3
        0x00005d7c:    f24073fc    @..s    MOV      r3,#0x7fc
        0x00005d80:    020a        ..      LSLS     r2,r1,#8
        0x00005d82:    0218        ..      LSLS     r0,r3,#8
        0x00005d84:    e7c8        ..      B        0x5d18 ; am_hal_pwrctrl_memory_enable + 112
        0x00005d86:    2107        .!      MOVS     r1,#7
        0x00005d88:    f44f63ff    O..c    MOV      r3,#0x7f8
        0x00005d8c:    020a        ..      LSLS     r2,r1,#8
        0x00005d8e:    0218        ..      LSLS     r0,r3,#8
        0x00005d90:    e7c2        ..      B        0x5d18 ; am_hal_pwrctrl_memory_enable + 112
        0x00005d92:    210f        .!      MOVS     r1,#0xf
        0x00005d94:    f44f63fe    O..c    MOV      r3,#0x7f0
        0x00005d98:    020a        ..      LSLS     r2,r1,#8
        0x00005d9a:    0218        ..      LSLS     r0,r3,#8
        0x00005d9c:    e7bc        ..      B        0x5d18 ; am_hal_pwrctrl_memory_enable + 112
        0x00005d9e:    211f        .!      MOVS     r1,#0x1f
        0x00005da0:    f44f63fc    O..c    MOV      r3,#0x7e0
        0x00005da4:    020a        ..      LSLS     r2,r1,#8
        0x00005da6:    0218        ..      LSLS     r0,r3,#8
        0x00005da8:    e7b6        ..      B        0x5d18 ; am_hal_pwrctrl_memory_enable + 112
        0x00005daa:    213f        ?!      MOVS     r1,#0x3f
        0x00005dac:    f44f63f8    O..c    MOV      r3,#0x7c0
        0x00005db0:    020a        ..      LSLS     r2,r1,#8
        0x00005db2:    0218        ..      LSLS     r0,r3,#8
        0x00005db4:    e7b0        ..      B        0x5d18 ; am_hal_pwrctrl_memory_enable + 112
        0x00005db6:    e001        ..      B        0x5dbc ; am_hal_pwrctrl_memory_enable + 276
        0x00005db8:    e006        ..      B        0x5dc8 ; am_hal_pwrctrl_memory_enable + 288
        0x00005dba:    e00b        ..      B        0x5dd4 ; am_hal_pwrctrl_memory_enable + 300
        0x00005dbc:    217f        .!      MOVS     r1,#0x7f
        0x00005dbe:    f44f63f0    O..c    MOV      r3,#0x780
        0x00005dc2:    020a        ..      LSLS     r2,r1,#8
        0x00005dc4:    0218        ..      LSLS     r0,r3,#8
        0x00005dc6:    e7a7        ..      B        0x5d18 ; am_hal_pwrctrl_memory_enable + 112
        0x00005dc8:    21ff        .!      MOVS     r1,#0xff
        0x00005dca:    f44f63e0    O..c    MOV      r3,#0x700
        0x00005dce:    020a        ..      LSLS     r2,r1,#8
        0x00005dd0:    0218        ..      LSLS     r0,r3,#8
        0x00005dd2:    e7a1        ..      B        0x5d18 ; am_hal_pwrctrl_memory_enable + 112
        0x00005dd4:    f24031ff    @..1    MOV      r1,#0x3ff
        0x00005dd8:    1c4b        K.      ADDS     r3,r1,#1
        0x00005dda:    020a        ..      LSLS     r2,r1,#8
        0x00005ddc:    0218        ..      LSLS     r0,r3,#8
        0x00005dde:    e79b        ..      B        0x5d18 ; am_hal_pwrctrl_memory_enable + 112
        0x00005de0:    e000        ..      B        0x5de4 ; am_hal_pwrctrl_memory_enable + 316
        0x00005de2:    e001        ..      B        0x5de8 ; am_hal_pwrctrl_memory_enable + 320
        0x00005de4:    2000        .       MOVS     r0,#0
        0x00005de6:    e79f        ..      B        0x5d28 ; am_hal_pwrctrl_memory_enable + 128
        0x00005de8:    490e        .I      LDR      r1,[pc,#56] ; [0x5e24] = 0xa0001fff
        0x00005dea:    4288        .B      CMP      r0,r1
        0x00005dec:    d0fa        ..      BEQ      0x5de4 ; am_hal_pwrctrl_memory_enable + 316
        0x00005dee:    e00f        ..      B        0x5e10 ; am_hal_pwrctrl_memory_enable + 360
        0x00005df0:    2900        .)      CMP      r1,#0
        0x00005df2:    dd0d        ..      BLE      0x5e10 ; am_hal_pwrctrl_memory_enable + 360
        0x00005df4:    2a00        .*      CMP      r2,#0
        0x00005df6:    bf18        ..      IT       NE
        0x00005df8:    20c7        .       MOVNE    r0,#0xc7
        0x00005dfa:    d00c        ..      BEQ      0x5e16 ; am_hal_pwrctrl_memory_enable + 366
        0x00005dfc:    f8dc1014    ....    LDR      r1,[r12,#0x14]
        0x00005e00:    ea320101    2...    BICS     r1,r2,r1
        0x00005e04:    d002        ..      BEQ      0x5e0c ; am_hal_pwrctrl_memory_enable + 356
        0x00005e06:    1e40        @.      SUBS     r0,r0,#1
        0x00005e08:    d1f8        ..      BNE      0x5dfc ; am_hal_pwrctrl_memory_enable + 340
        0x00005e0a:    e001        ..      B        0x5e10 ; am_hal_pwrctrl_memory_enable + 360
        0x00005e0c:    2800        .(      CMP      r0,#0
        0x00005e0e:    dc02        ..      BGT      0x5e16 ; am_hal_pwrctrl_memory_enable + 366
        0x00005e10:    bc10        ..      POP      {r4}
        0x00005e12:    2000        .       MOVS     r0,#0
        0x00005e14:    4770        pG      BX       lr
        0x00005e16:    bc10        ..      POP      {r4}
        0x00005e18:    2001        .       MOVS     r0,#1
        0x00005e1a:    4770        pG      BX       lr
    $d
        0x00005e1c:    40021000    ...@    DCD    1073876992
        0x00005e20:    0007ff00    ....    DCD    524032
        0x00005e24:    a0001fff    ....    DCD    2684362751
    $t
    i.am_hal_rtc_osc_disable
    am_hal_rtc_osc_disable
        0x00005e28:    f04f2040    O.@     MOV      r0,#0x40004000
        0x00005e2c:    6d01        .m      LDR      r1,[r0,#0x50]
        0x00005e2e:    f0410110    A...    ORR      r1,r1,#0x10
        0x00005e32:    6501        .e      STR      r1,[r0,#0x50]
        0x00005e34:    4770        pG      BX       lr
    i.am_hal_rtc_osc_select
    am_hal_rtc_osc_select
        0x00005e36:    f04f2140    O.@!    MOV      r1,#0x40004000
        0x00005e3a:    2800        .(      CMP      r0,#0
        0x00005e3c:    68c8        .h      LDR      r0,[r1,#0xc]
        0x00005e3e:    bf14        ..      ITE      NE
        0x00005e40:    f0400080    @...    ORRNE    r0,r0,#0x80
        0x00005e44:    f0200080     ...    BICEQ    r0,r0,#0x80
        0x00005e48:    60c8        .`      STR      r0,[r1,#0xc]
        0x00005e4a:    4770        pG      BX       lr
    i.am_hal_stimer_config
    am_hal_stimer_config
        0x00005e4c:    490e        .I      LDR      r1,[pc,#56] ; [0x5e88] = 0x40008000
        0x00005e4e:    4602        .F      MOV      r2,r0
        0x00005e50:    f8d10100    ....    LDR      r0,[r1,#0x100]
        0x00005e54:    f8c12100    ...!    STR      r2,[r1,#0x100]
        0x00005e58:    f8d12100    ...!    LDR      r2,[r1,#0x100]
        0x00005e5c:    f002030f    ....    AND      r3,r2,#0xf
        0x00005e60:    4a0a        .J      LDR      r2,[pc,#40] ; [0x5e8c] = 0x40021000
        0x00005e62:    2b01        .+      CMP      r3,#1
        0x00005e64:    d00b        ..      BEQ      0x5e7e ; am_hal_stimer_config + 50
        0x00005e66:    f8d11100    ....    LDR      r1,[r1,#0x100]
        0x00005e6a:    f001010f    ....    AND      r1,r1,#0xf
        0x00005e6e:    2902        .)      CMP      r1,#2
        0x00005e70:    bf1c        ..      ITT      NE
        0x00005e72:    6a11        .j      LDRNE    r1,[r2,#0x20]
        0x00005e74:    f0410104    A...    ORRNE    r1,r1,#4
        0x00005e78:    d001        ..      BEQ      0x5e7e ; am_hal_stimer_config + 50
        0x00005e7a:    6211        .b      STR      r1,[r2,#0x20]
        0x00005e7c:    4770        pG      BX       lr
        0x00005e7e:    6a11        .j      LDR      r1,[r2,#0x20]
        0x00005e80:    f0210104    !...    BIC      r1,r1,#4
        0x00005e84:    e7f9        ..      B        0x5e7a ; am_hal_stimer_config + 46
    $d
        0x00005e86:    0000        ..      DCW    0
        0x00005e88:    40008000    ...@    DCD    1073774592
        0x00005e8c:    40021000    ...@    DCD    1073876992
    $t
    i.am_hal_stimer_counter_get
    am_hal_stimer_counter_get
        0x00005e90:    4801        .H      LDR      r0,[pc,#4] ; [0x5e98] = 0x40008000
        0x00005e92:    f8d00104    ....    LDR      r0,[r0,#0x104]
        0x00005e96:    4770        pG      BX       lr
    $d
        0x00005e98:    40008000    ...@    DCD    1073774592
    $t
    i.am_hal_sysctrl_sleep
    am_hal_sysctrl_sleep
        0x00005e9c:    b5f8        ..      PUSH     {r3-r7,lr}
        0x00005e9e:    4604        .F      MOV      r4,r0
        0x00005ea0:    f7faf97a    ..z.    BL       am_hal_interrupt_master_disable ; 0x198
        0x00005ea4:    4934        4I      LDR      r1,[pc,#208] ; [0x5f78] = 0xe000ed10
        0x00005ea6:    4605        .F      MOV      r5,r0
        0x00005ea8:    b12c        ,.      CBZ      r4,0x5eb6 ; am_hal_sysctrl_sleep + 26
        0x00005eaa:    4834        4H      LDR      r0,[pc,#208] ; [0x5f7c] = 0x40020000
        0x00005eac:    f8d02250    ..P"    LDR      r2,[r0,#0x250]
        0x00005eb0:    f0120f01    ....    TST      r2,#1
        0x00005eb4:    d009        ..      BEQ      0x5eca ; am_hal_sysctrl_sleep + 46
        0x00005eb6:    6808        .h      LDR      r0,[r1,#0]
        0x00005eb8:    f0200004     ...    BIC      r0,r0,#4
        0x00005ebc:    6008        .`      STR      r0,[r1,#0]
        0x00005ebe:    bf30        0.      WFI      
        0x00005ec0:    4628        (F      MOV      r0,r5
        0x00005ec2:    e8bd40f8    ...@    POP      {r3-r7,lr}
        0x00005ec6:    f7fab96b    ..k.    B        am_hal_interrupt_master_set ; 0x1a0
        0x00005eca:    680a        .h      LDR      r2,[r1,#0]
        0x00005ecc:    f0420204    B...    ORR      r2,r2,#4
        0x00005ed0:    600a        .`      STR      r2,[r1,#0]
        0x00005ed2:    68c0        .h      LDR      r0,[r0,#0xc]
        0x00005ed4:    f00000f0    ....    AND      r0,r0,#0xf0
        0x00005ed8:    2820         (      CMP      r0,#0x20
        0x00005eda:    bf14        ..      ITE      NE
        0x00005edc:    2000        .       MOVNE    r0,#0
        0x00005ede:    2002        .       MOVEQ    r0,#2
        0x00005ee0:    4c27        'L      LDR      r4,[pc,#156] ; [0x5f80] = 0x10000054
        0x00005ee2:    60e0        .`      STR      r0,[r4,#0xc]
        0x00005ee4:    6861        ah      LDR      r1,[r4,#4]
        0x00005ee6:    1e49        I.      SUBS     r1,r1,#1
        0x00005ee8:    2903        .)      CMP      r1,#3
        0x00005eea:    bf94        ..      ITE      LS
        0x00005eec:    2104        .!      MOVLS    r1,#4
        0x00005eee:    2100        .!      MOVHI    r1,#0
        0x00005ef0:    4301        .C      ORRS     r1,r1,r0
        0x00005ef2:    4824        $H      LDR      r0,[pc,#144] ; [0x5f84] = 0x40021000
        0x00005ef4:    60e1        .`      STR      r1,[r4,#0xc]
        0x00005ef6:    6802        .h      LDR      r2,[r0,#0]
        0x00005ef8:    f0120203    ....    ANDS     r2,r2,#3
        0x00005efc:    bf18        ..      IT       NE
        0x00005efe:    2201        ."      MOVNE    r2,#1
        0x00005f00:    4311        .C      ORRS     r1,r1,r2
        0x00005f02:    60e1        .`      STR      r1,[r4,#0xc]
        0x00005f04:    6880        .h      LDR      r0,[r0,#8]
        0x00005f06:    f24052ff    @..R    MOV      r2,#0x5ff
        0x00005f0a:    4210        .B      TST      r0,r2
        0x00005f0c:    bf14        ..      ITE      NE
        0x00005f0e:    2000        .       MOVNE    r0,#0
        0x00005f10:    2008        .       MOVEQ    r0,#8
        0x00005f12:    4308        .C      ORRS     r0,r0,r1
        0x00005f14:    2600        .&      MOVS     r6,#0
        0x00005f16:    2101        .!      MOVS     r1,#1
        0x00005f18:    60e0        .`      STR      r0,[r4,#0xc]
        0x00005f1a:    280f        .(      CMP      r0,#0xf
        0x00005f1c:    bf1c        ..      ITT      NE
        0x00005f1e:    bf30        0.      WFINE    
        0x00005f20:    7021        !p      STRBNE   r1,[r4,#0]
        0x00005f22:    d1cd        ..      BNE      0x5ec0 ; am_hal_sysctrl_sleep + 36
        0x00005f24:    6860        `h      LDR      r0,[r4,#4]
        0x00005f26:    f04f31ff    O..1    MOV      r1,#0xffffffff
        0x00005f2a:    1e40        @.      SUBS     r0,r0,#1
        0x00005f2c:    9000        ..      STR      r0,[sp,#0]
        0x00005f2e:    f7fffd71    ..q.    BL       am_hal_ctimer_clear ; 0x5a14
        0x00005f32:    2300        .#      MOVS     r3,#0
        0x00005f34:    f04f1201    O...    MOV      r2,#0x10001
        0x00005f38:    1e59        Y.      SUBS     r1,r3,#1
        0x00005f3a:    9800        ..      LDR      r0,[sp,#0]
        0x00005f3c:    f7fffd7e    ..~.    BL       am_hal_ctimer_period_set ; 0x5a3c
        0x00005f40:    f7fffe46    ..F.    BL       am_hal_pwrctrl_bucks_disable ; 0x5bd0
        0x00005f44:    bf30        0.      WFI      
        0x00005f46:    2107        .!      MOVS     r1,#7
        0x00005f48:    2231        1"      MOVS     r2,#0x31
        0x00005f4a:    4608        .F      MOV      r0,r1
        0x00005f4c:    f000f87a    ..z.    BL       setBuckZX ; 0x6044
        0x00005f50:    201c        .       MOVS     r0,#0x1c
        0x00005f52:    f7fffdcb    ....    BL       am_hal_flash_delay ; 0x5aec
        0x00005f56:    f7fffe61    ..a.    BL       am_hal_pwrctrl_bucks_enable ; 0x5c1c
        0x00005f5a:    6860        `h      LDR      r0,[r4,#4]
        0x00005f5c:    1e40        @.      SUBS     r0,r0,#1
        0x00005f5e:    9000        ..      STR      r0,[sp,#0]
        0x00005f60:    7026        &p      STRB     r6,[r4,#0]
        0x00005f62:    60a6        .`      STR      r6,[r4,#8]
        0x00005f64:    204c        L       MOVS     r0,#0x4c
        0x00005f66:    f7fffdc1    ....    BL       am_hal_flash_delay ; 0x5aec
        0x00005f6a:    f04f31ff    O..1    MOV      r1,#0xffffffff
        0x00005f6e:    9800        ..      LDR      r0,[sp,#0]
        0x00005f70:    f7fffda2    ....    BL       am_hal_ctimer_start ; 0x5ab8
        0x00005f74:    e7a4        ..      B        0x5ec0 ; am_hal_sysctrl_sleep + 36
    $d
        0x00005f76:    0000        ..      DCW    0
        0x00005f78:    e000ed10    ....    DCD    3758157072
        0x00005f7c:    40020000    ...@    DCD    1073872896
        0x00005f80:    10000054    T...    DCD    268435540
        0x00005f84:    40021000    ...@    DCD    1073876992
    $t
    i.am_hal_tpiu_disable
    am_hal_tpiu_disable
        0x00005f88:    4902        .I      LDR      r1,[pc,#8] ; [0x5f94] = 0x40020000
        0x00005f8a:    2000        .       MOVS     r0,#0
        0x00005f8c:    f8c10250    ..P.    STR      r0,[r1,#0x250]
        0x00005f90:    4770        pG      BX       lr
    $d
        0x00005f92:    0000        ..      DCW    0
        0x00005f94:    40020000    ...@    DCD    1073872896
    $t
    i.am_hal_tpiu_enable
    am_hal_tpiu_enable
        0x00005f98:    e92d41f0    -..A    PUSH     {r4-r8,lr}
        0x00005f9c:    4c1b        .L      LDR      r4,[pc,#108] ; [0x600c] = 0xe0040000
        0x00005f9e:    2700        .'      MOVS     r7,#0
        0x00005fa0:    6805        .h      LDR      r5,[r0,#0]
        0x00005fa2:    f8c47304    ...s    STR      r7,[r4,#0x304]
        0x00005fa6:    4e1a        .N      LDR      r6,[pc,#104] ; [0x6010] = 0x40020000
        0x00005fa8:    2101        .!      MOVS     r1,#1
        0x00005faa:    b30d        ..      CBZ      r5,0x5ff0 ; am_hal_tpiu_enable + 88
        0x00005fac:    6061        a`      STR      r1,[r4,#4]
        0x00005fae:    4919        .I      LDR      r1,[pc,#100] ; [0x6014] = 0x1da381
        0x00005fb0:    f5a54061    ..a@    SUB      r0,r5,#0xe100
        0x00005fb4:    4288        .B      CMP      r0,r1
        0x00005fb6:    bf28        (.      IT       CS
        0x00005fb8:    4d17        .M      LDRCS    r5,[pc,#92] ; [0x6018] = 0xf4240
        0x00005fba:    f7fffce3    ....    BL       am_hal_clkgen_sysclk_get ; 0x5984
        0x00005fbe:    f1b03fff    ...?    CMP      r0,#0xffffffff
        0x00005fc2:    bf1d        ..      ITTTE    NE
        0x00005fc4:    08c0        ..      LSRNE    r0,r0,#3
        0x00005fc6:    fbb0f0f5    ....    UDIVNE   r0,r0,r5
        0x00005fca:    1e40        @.      SUBNE    r0,r0,#1
        0x00005fcc:    2005        .       MOVEQ    r0,#5
        0x00005fce:    b280        ..      UXTH     r0,r0
        0x00005fd0:    6120         a      STR      r0,[r4,#0x10]
        0x00005fd2:    2002        .       MOVS     r0,#2
        0x00005fd4:    f8c400f0    ....    STR      r0,[r4,#0xf0]
        0x00005fd8:    4810        .H      LDR      r0,[pc,#64] ; [0x601c] = 0xe0040f00
        0x00005fda:    6007        .`      STR      r7,[r0,#0]
        0x00005fdc:    f2402001    @..     MOV      r0,#0x201
        0x00005fe0:    f8c60250    ..P.    STR      r0,[r6,#0x250]
        0x00005fe4:    e8bd41f0    ...A    POP      {r4-r8,lr}
        0x00005fe8:    f44f7047    O.Gp    MOV      r0,#0x31c
        0x00005fec:    f7ffbd7e    ..~.    B.W      am_hal_flash_delay ; 0x5aec
        0x00005ff0:    6902        .i      LDR      r2,[r0,#0x10]
        0x00005ff2:    6122        "a      STR      r2,[r4,#0x10]
        0x00005ff4:    6882        .h      LDR      r2,[r0,#8]
        0x00005ff6:    f8c420f0    ...     STR      r2,[r4,#0xf0]
        0x00005ffa:    7b02        .{      LDRB     r2,[r0,#0xc]
        0x00005ffc:    1e52        R.      SUBS     r2,r2,#1
        0x00005ffe:    4091        .@      LSLS     r1,r1,r2
        0x00006000:    6061        a`      STR      r1,[r4,#4]
        0x00006002:    f8d61250    ..P.    LDR      r1,[r6,#0x250]
        0x00006006:    6840        @h      LDR      r0,[r0,#4]
        0x00006008:    4308        .C      ORRS     r0,r0,r1
        0x0000600a:    e7e9        ..      B        0x5fe0 ; am_hal_tpiu_enable + 72
    $d
        0x0000600c:    e0040000    ....    DCD    3758358528
        0x00006010:    40020000    ...@    DCD    1073872896
        0x00006014:    001da381    ....    DCD    1942401
        0x00006018:    000f4240    @B..    DCD    1000000
        0x0000601c:    e0040f00    ....    DCD    3758362368
    $t
    i.am_hal_vcomp_disable
    am_hal_vcomp_disable
        0x00006020:    4901        .I      LDR      r1,[pc,#4] ; [0x6028] = 0x4000c000
        0x00006022:    2037        7       MOVS     r0,#0x37
        0x00006024:    6088        .`      STR      r0,[r1,#8]
        0x00006026:    4770        pG      BX       lr
    $d
        0x00006028:    4000c000    ...@    DCD    1073790976
    $t
    i.fabs
    fabs
        0x0000602c:    b082        ..      SUB      sp,sp,#8
        0x0000602e:    e9cd0100    ....    STRD     r0,r1,[sp,#0]
        0x00006032:    f0214000    !..@    BIC      r0,r1,#0x80000000
        0x00006036:    9001        ..      STR      r0,[sp,#4]
        0x00006038:    ed9d0b00    ....    VLDR     d0,[sp,#0]
        0x0000603c:    b002        ..      ADD      sp,sp,#8
        0x0000603e:    ec510b10    Q...    VMOV     r0,r1,d0
        0x00006042:    4770        pG      BX       lr
    i.setBuckZX
    setBuckZX
        0x00006044:    b478        x.      PUSH     {r3-r6}
        0x00006046:    f3ef8310    ....    MRS      r3,PRIMASK
        0x0000604a:    9300        ..      STR      r3,[sp,#0]
        0x0000604c:    4b19        .K      LDR      r3,[pc,#100] ; [0x60b4] = 0x40020000
        0x0000604e:    b672        r.      CPSID    i
        0x00006050:    f8d3c068    ..h.    LDR      r12,[r3,#0x68]
        0x00006054:    f3cc0483    ....    UBFX     r4,r12,#2,#4
        0x00006058:    f8d3c068    ..h.    LDR      r12,[r3,#0x68]
        0x0000605c:    f0120f02    ....    TST      r2,#2
        0x00006060:    f3cc3543    ..C5    UBFX     r5,r12,#13,#4
        0x00006064:    f8dfc050    ..P.    LDR      r12,[pc,#80] ; [0x60b8] = 0x10000054
        0x00006068:    bf14        ..      ITE      NE
        0x0000606a:    e9dc0104    ....    LDRDNE   r0,r1,[r12,#0x10]
        0x0000606e:    f0120f01    ....    TSTEQ    r2,#1
        0x00006072:    d00d        ..      BEQ      0x6090 ; setBuckZX + 76
        0x00006074:    f0120f10    ....    TST      r2,#0x10
        0x00006078:    d003        ..      BEQ      0x6082 ; setBuckZX + 62
        0x0000607a:    6e9e        .n      LDR      r6,[r3,#0x68]
        0x0000607c:    f3600685    `...    BFI      r6,r0,#2,#4
        0x00006080:    669e        .f      STR      r6,[r3,#0x68]
        0x00006082:    f0120f20    .. .    TST      r2,#0x20
        0x00006086:    d003        ..      BEQ      0x6090 ; setBuckZX + 76
        0x00006088:    6e98        .n      LDR      r0,[r3,#0x68]
        0x0000608a:    f3613050    a.P0    BFI      r0,r1,#13,#4
        0x0000608e:    6698        .f      STR      r0,[r3,#0x68]
        0x00006090:    f0120f04    ....    TST      r2,#4
        0x00006094:    d009        ..      BEQ      0x60aa ; setBuckZX + 102
        0x00006096:    f0120f10    ....    TST      r2,#0x10
        0x0000609a:    bf18        ..      IT       NE
        0x0000609c:    f8cc4010    ...@    STRNE    r4,[r12,#0x10]
        0x000060a0:    f0120f20    .. .    TST      r2,#0x20
        0x000060a4:    bf18        ..      IT       NE
        0x000060a6:    f8cc5014    ...P    STRNE    r5,[r12,#0x14]
        0x000060aa:    9800        ..      LDR      r0,[sp,#0]
        0x000060ac:    f3808810    ....    MSR      PRIMASK,r0
        0x000060b0:    bc78        x.      POP      {r3-r6}
        0x000060b2:    4770        pG      BX       lr
    $d
        0x000060b4:    40020000    ...@    DCD    1073872896
        0x000060b8:    10000054    T...    DCD    268435540
    $t
    x$fpl$basic
    $v0
    __aeabi_dneg
    _dneg
        0x000060bc:    f0814100    ...A    EOR      r1,r1,#0x80000000
        0x000060c0:    4770        pG      BX       lr
    __aeabi_fneg
    _fneg
        0x000060c2:    f0804000    ...@    EOR      r0,r0,#0x80000000
        0x000060c6:    4770        pG      BX       lr
    _dabs
        0x000060c8:    f0214100    !..A    BIC      r1,r1,#0x80000000
        0x000060cc:    4770        pG      BX       lr
    _fabs
        0x000060ce:    f0204000     ..@    BIC      r0,r0,#0x80000000
        0x000060d2:    4770        pG      BX       lr
    x$fpl$d2f
    $v0
    __aeabi_d2f
    _d2f
        0x000060d4:    f0214200    !..B    BIC      r2,r1,#0x80000000
        0x000060d8:    f0014300    ...C    AND      r3,r1,#0x80000000
        0x000060dc:    f1a25260    ..`R    SUB      r2,r2,#0x38000000
        0x000060e0:    f5b21f80    ....    CMP      r2,#0x100000
        0x000060e4:    bf28        (.      IT       CS
        0x000060e6:    f1d26c7f    ...l    RSBSCS   r12,r2,#0xff00000
        0x000060ea:    d90b        ..      BLS      0x6104 ; __aeabi_d2f + 48
        0x000060ec:    ea5f1c00    _...    LSLS     r12,r0,#4
        0x000060f0:    ea4302c2    C...    ORR      r2,r3,r2,LSL #3
        0x000060f4:    eb427050    B.Pp    ADC      r0,r2,r0,LSR #29
        0x000060f8:    bf18        ..      IT       NE
        0x000060fa:    4770        pG      BXNE     lr
        0x000060fc:    bf28        (.      IT       CS
        0x000060fe:    f0200001     ...    BICCS    r0,r0,#1
        0x00006102:    4770        pG      BX       lr
        0x00006104:    f5b21f80    ....    CMP      r2,#0x100000
        0x00006108:    bfbc        ..      ITT      LT
        0x0000610a:    4618        .F      MOVLT    r0,r3
        0x0000610c:    4770        pG      BXLT     lr
        0x0000610e:    ea4f0c41    O.A.    LSL      r12,r1,#1
        0x00006112:    f51c1f00    ....    CMN      r12,#0x200000
        0x00006116:    d202        ..      BCS      0x611e ; __aeabi_d2f + 74
        0x00006118:    4608        .F      MOV      r0,r1
        0x0000611a:    f000bd45    ..E.    B.W      __fpl_fretinf ; 0x6ba8
        0x0000611e:    b570        p.      PUSH     {r4-r6,lr}
        0x00006120:    f000fb82    ....    BL       __fpl_dnaninf ; 0x6828
    $d
        0x00006124:    89000000    ....    DCD    2298478592
    $t
        0x00006128:    f7ffbff6    ....    B.W      0x6118 ; __aeabi_d2f + 68
        0x0000612c:    f04f4000    O..@    MOV      r0,#0x80000000
        0x00006130:    f5a00080    ....    SUB      r0,r0,#0x400000
        0x00006134:    4770        pG      BX       lr
        0x00006136:    0000        ..      MOVS     r0,r0
    x$fpl$dadd
    $v0
    __aeabi_dadd
    _dadd
        0x00006138:    b510        ..      PUSH     {r4,lr}
        0x0000613a:    ea910f03    ....    TEQ      r1,r3
        0x0000613e:    bf48        H.      IT       MI
        0x00006140:    f0834300    ...C    EORMI    r3,r3,#0x80000000
        0x00006144:    f10083d8    ....    BMI.W    _dsub1 ; 0x68f8
    _dadd1
        0x00006148:    1a84        ..      SUBS     r4,r0,r2
        0x0000614a:    eb710c03    q...    SBCS     r12,r1,r3
        0x0000614e:    d205        ..      BCS      0x615c ; _dadd1 + 20
        0x00006150:    1912        ..      ADDS     r2,r2,r4
        0x00006152:    eb43030c    C...    ADC      r3,r3,r12
        0x00006156:    1b00        ..      SUBS     r0,r0,r4
        0x00006158:    eb61010c    a...    SBC      r1,r1,r12
        0x0000615c:    ea4f5411    O..T    LSR      r4,r1,#20
        0x00006160:    eba45c13    ...\    SUB      r12,r4,r3,LSR #20
        0x00006164:    f8dfe11c    ....    LDR      lr,[pc,#284] ; [0x6284] = 0xffe00000
        0x00006168:    ea1e0f43    ..C.    TST      lr,r3,LSL #1
        0x0000616c:    bf18        ..      IT       NE
        0x0000616e:    ea9e5f44    ..D_    TEQNE    lr,r4,LSL #21
        0x00006172:    d073        s.      BEQ      0x625c ; _dadd1 + 276
        0x00006174:    ea215104    !..Q    BIC      r1,r1,r4,LSL #20
        0x00006178:    ea23030e    #...    BIC      r3,r3,lr
        0x0000617c:    f4431380    C...    ORR      r3,r3,#0x100000
        0x00006180:    f1dc0e20    .. .    RSBS     lr,r12,#0x20
        0x00006184:    d332        2.      BCC      0x61ec ; _dadd1 + 164
        0x00006186:    fa22fe0c    "...    LSR      lr,r2,r12
        0x0000618a:    eb10000e    ....    ADDS     r0,r0,lr
        0x0000618e:    fa23fe0c    #...    LSR      lr,r3,r12
        0x00006192:    eb41010e    A...    ADC      r1,r1,lr
        0x00006196:    f1cc0e20    .. .    RSB      lr,r12,#0x20
        0x0000619a:    fa03fe0e    ....    LSL      lr,r3,lr
        0x0000619e:    eb10000e    ....    ADDS     r0,r0,lr
        0x000061a2:    f1cc0e20    .. .    RSB      lr,r12,#0x20
        0x000061a6:    f1510100    Q...    ADCS     r1,r1,#0
        0x000061aa:    f5b11f80    ....    CMP      r1,#0x100000
        0x000061ae:    d232        2.      BCS      0x6216 ; _dadd1 + 206
        0x000061b0:    eb015104    ...Q    ADD      r1,r1,r4,LSL #20
        0x000061b4:    fa12f20e    ....    LSLS     r2,r2,lr
        0x000061b8:    e8bd4010    ...@    POP      {r4,lr}
        0x000061bc:    bf58        X.      IT       PL
        0x000061be:    4770        pG      BXPL     lr
        0x000061c0:    1c40        @.      ADDS     r0,r0,#1
        0x000061c2:    bf38        8.      IT       CC
        0x000061c4:    ea5f0242    _.B.    LSLSCC   r2,r2,#1
        0x000061c8:    bf18        ..      IT       NE
        0x000061ca:    4770        pG      BXNE     lr
        0x000061cc:    2800        .(      CMP      r0,#0
        0x000061ce:    bf14        ..      ITE      NE
        0x000061d0:    f0200001     ...    BICNE    r0,r0,#1
        0x000061d4:    f1410100    A...    ADCEQ    r1,r1,#0
        0x000061d8:    ea4f0341    O.A.    LSL      r3,r1,#1
        0x000061dc:    f5131f00    ....    CMN      r3,#0x200000
        0x000061e0:    bf38        8.      IT       CC
        0x000061e2:    4770        pG      BXCC     lr
        0x000061e4:    f1a141c0    ...A    SUB      r1,r1,#0x60000000
        0x000061e8:    f000bb6c    ..l.    B.W      __fpl_dretinf ; 0x68c4
        0x000061ec:    2a01        .*      CMP      r2,#1
        0x000061ee:    eb430203    C...    ADC      r2,r3,r3
        0x000061f2:    f1ac0c20    .. .    SUB      r12,r12,#0x20
        0x000061f6:    f1dc0e1f    ....    RSBS     lr,r12,#0x1f
        0x000061fa:    bf32        2.      ITEE     CC
        0x000061fc:    f04f0e00    O...    MOVCC    lr,#0
        0x00006200:    fa23f30c    #...    LSRCS    r3,r3,r12
        0x00006204:    eb100003    ....    ADDSCS   r0,r0,r3
        0x00006208:    eb415104    A..Q    ADC      r1,r1,r4,LSL #20
        0x0000620c:    ebb45f11    ..._    CMP      r4,r1,LSR #20
        0x00006210:    d0d0        ..      BEQ      0x61b4 ; _dadd1 + 108
        0x00006212:    eba15104    ...Q    SUB      r1,r1,r4,LSL #20
        0x00006216:    f5011180    ....    ADD      r1,r1,#0x100000
        0x0000621a:    0849        I.      LSRS     r1,r1,#1
        0x0000621c:    eb015104    ...Q    ADD      r1,r1,r4,LSL #20
        0x00006220:    ea5f0030    _.0.    RRXS     r0,r0
        0x00006224:    d30e        ..      BCC      0x6244 ; _dadd1 + 252
        0x00006226:    f1500000    P...    ADCS     r0,r0,#0
        0x0000622a:    bf38        8.      IT       CC
        0x0000622c:    fa12fe0e    ....    LSLSCC   lr,r2,lr
        0x00006230:    d108        ..      BNE      0x6244 ; _dadd1 + 252
        0x00006232:    e8bd4010    ...@    POP      {r4,lr}
        0x00006236:    e7c9        ..      B        0x61cc ; _dadd1 + 132
        0x00006238:    1c40        @.      ADDS     r0,r0,#1
        0x0000623a:    bf38        8.      IT       CC
        0x0000623c:    ea5f0242    _.B.    LSLSCC   r2,r2,#1
        0x00006240:    d1ca        ..      BNE      0x61d8 ; _dadd1 + 144
        0x00006242:    e7c3        ..      B        0x61cc ; _dadd1 + 132
        0x00006244:    e8bd4010    ...@    POP      {r4,lr}
        0x00006248:    ea4f0341    O.A.    LSL      r3,r1,#1
        0x0000624c:    f5131f00    ....    CMN      r3,#0x200000
        0x00006250:    bf38        8.      IT       CC
        0x00006252:    4770        pG      BXCC     lr
        0x00006254:    f1a141c0    ...A    SUB      r1,r1,#0x60000000
        0x00006258:    f000bb34    ..4.    B.W      __fpl_dretinf ; 0x68c4
        0x0000625c:    ea9e5f44    ..D_    TEQ      lr,r4,LSL #21
        0x00006260:    d008        ..      BEQ      0x6274 ; _dadd1 + 300
        0x00006262:    ea110f5e    ..^.    TST      r1,lr,LSR #1
        0x00006266:    e8bd4010    ...@    POP      {r4,lr}
        0x0000626a:    bf04        ..      ITT      EQ
        0x0000626c:    f0014100    ...A    ANDEQ    r1,r1,#0x80000000
        0x00006270:    2000        .       MOVEQ    r0,#0
        0x00006272:    4770        pG      BX       lr
        0x00006274:    e8bd4010    ...@    POP      {r4,lr}
        0x00006278:    b570        p.      PUSH     {r4-r6,lr}
        0x0000627a:    f000fad5    ....    BL       __fpl_dnaninf ; 0x6828
        0x0000627e:    bf00        ..      NOP      
    $d
        0x00006280:    3ebefb64    d..>    DCD    1052703588
        0x00006284:    ffe00000    ....    DCD    4292870144
    $t
    x$fpl$ddiv
    $v0
    __aeabi_ddiv
    _ddiv
        0x00006288:    e92d41c0    -..A    PUSH     {r6-r8,lr}
        0x0000628c:    b430        0.      PUSH     {r4,r5}
    ddiv_entry
        0x0000628e:    f8dfc2a0    ....    LDR      r12,[pc,#672] ; [0x6530] = 0x7ff0000
        0x00006292:    ea3c1411    <...    BICS     r4,r12,r1,LSR #4
        0x00006296:    bf18        ..      IT       NE
        0x00006298:    ea3c1413    <...    BICSNE   r4,r12,r3,LSR #4
        0x0000629c:    f00080ec    ....    BEQ.W    0x6478 ; ddiv_entry + 490
        0x000062a0:    ea1c1411    ....    ANDS     r4,r12,r1,LSR #4
        0x000062a4:    ea810503    ....    EOR      r5,r1,r3
        0x000062a8:    ea4474d5    D..t    ORR      r4,r4,r5,LSR #31
        0x000062ac:    bf18        ..      IT       NE
        0x000062ae:    ea1c1513    ....    ANDSNE   r5,r12,r3,LSR #4
        0x000062b2:    f00080c7    ....    BEQ.W    0x6444 ; ddiv_entry + 438
        0x000062b6:    eba40405    ....    SUB      r4,r4,r5
        0x000062ba:    f104747f    ...t    ADD      r4,r4,#0x3fc0000
        0x000062be:    f5043400    ...4    ADD      r4,r4,#0x20000
        0x000062c2:    f04f4500    O..E    MOV      r5,#0x80000000
        0x000062c6:    ea4521c1    E..!    ORR      r1,r5,r1,LSL #11
        0x000062ca:    ea4523c3    E..#    ORR      r3,r5,r3,LSL #11
        0x000062ce:    ea415150    A.PQ    ORR      r1,r1,r0,LSR #21
        0x000062d2:    ea435352    C.RS    ORR      r3,r3,r2,LSR #21
        0x000062d6:    ea4f20c0    O..     LSL      r0,r0,#11
        0x000062da:    ea4f22c2    O.."    LSL      r2,r2,#11
        0x000062de:    4299        .B      CMP      r1,r3
        0x000062e0:    bf08        ..      IT       EQ
        0x000062e2:    4290        .B      CMPEQ    r0,r2
        0x000062e4:    f000809c    ....    BEQ.W    0x6420 ; ddiv_entry + 402
        0x000062e8:    ea4f6513    O..e    LSR      r5,r3,#24
        0x000062ec:    f20f1640    ..@.    ADR.W    r6,{pc}+0x144 ; 0x6430
        0x000062f0:    5d76        v]      LDRB     r6,[r6,r5]
        0x000062f2:    ea4f4513    O..E    LSR      r5,r3,#16
        0x000062f6:    fb06f705    ....    MUL      r7,r6,r5
        0x000062fa:    f1c77780    ...w    RSB      r7,r7,#0x1000000
        0x000062fe:    fb06f707    ....    MUL      r7,r6,r7
        0x00006302:    ea4f37d7    O..7    LSR      r7,r7,#15
        0x00006306:    fba76803    ...h    UMULL    r6,r8,r7,r3
        0x0000630a:    4276        vB      RSBS     r6,r6,#0
        0x0000630c:    fba7ce06    ....    UMULL    r12,lr,r7,r6
        0x00006310:    f5c83880    ...8    RSB      r8,r8,#0x10000
        0x00006314:    bf38        8.      IT       CC
        0x00006316:    f1a80801    ....    SUBCC    r8,r8,#1
        0x0000631a:    fb07e608    ....    MLA      r6,r7,r8,lr
        0x0000631e:    fba68c02    ....    UMULL    r8,r12,r6,r2
        0x00006322:    f04f0e00    O...    MOV      lr,#0
        0x00006326:    fbe6ce03    ....    UMLAL    r12,lr,r6,r3
        0x0000632a:    f1dc0c00    ....    RSBS     r12,r12,#0
        0x0000632e:    f1ce4e00    ...N    RSB      lr,lr,#0x80000000
        0x00006332:    bf38        8.      IT       CC
        0x00006334:    f1ae0e01    ....    SUBCC    lr,lr,#1
        0x00006338:    fba6580c    ...X    UMULL    r5,r8,r6,r12
        0x0000633c:    f04f0700    O...    MOV      r7,#0
        0x00006340:    fbe6870e    ....    UMLAL    r8,r7,r6,lr
        0x00006344:    fba1c608    ....    UMULL    r12,r6,r1,r8
        0x00006348:    fba0ce07    ....    UMULL    r12,lr,r0,r7
        0x0000634c:    eb16060e    ....    ADDS     r6,r6,lr
        0x00006350:    f04f0500    O...    MOV      r5,#0
        0x00006354:    f1450500    E...    ADC      r5,r5,#0
        0x00006358:    fbe16507    ...e    UMLAL    r6,r5,r1,r7
        0x0000635c:    f1154ee0    ...N    ADDS     lr,r5,#0x70000000
        0x00006360:    bf7e        ~.      ITTT     VC
        0x00006362:    f5a43480    ...4    SUBVC    r4,r4,#0x10000
        0x00006366:    ea5f0646    _.F.    LSLSVC   r6,r6,#1
        0x0000636a:    416d        mA      ADCVC    r5,r5,r5
        0x0000636c:    f1160780    ....    ADDS     r7,r6,#0x80
        0x00006370:    f1450500    E...    ADC      r5,r5,#0
        0x00006374:    ea4f2717    O..'    LSR      r7,r7,#8
        0x00006378:    ea476705    G..g    ORR      r7,r7,r5,LSL #24
        0x0000637c:    ea4f2515    O..%    LSR      r5,r5,#8
        0x00006380:    ea4f6606    O..f    LSL      r6,r6,#24
        0x00006384:    f1a646de    ...F    SUB      r6,r6,#0x6f000000
        0x00006388:    f1b65f80    ..._    CMP      r6,#0x10000000
        0x0000638c:    d91f        ..      BLS      0x63ce ; ddiv_entry + 320
        0x0000638e:    4638        8F      MOV      r0,r7
        0x00006390:    eb0571c4    ...q    ADD      r1,r5,r4,LSL #31
        0x00006394:    f0240c01    $...    BIC      r12,r4,#1
        0x00006398:    eb01110c    ....    ADD      r1,r1,r12,LSL #4
        0x0000639c:    f1bc6ffe    ...o    CMP      r12,#0x7f00000
        0x000063a0:    d802        ..      BHI      0x63a8 ; ddiv_entry + 282
        0x000063a2:    bcf0        ..      POP      {r4-r7}
        0x000063a4:    e8bd8100    ....    POP      {r8,pc}
        0x000063a8:    4224        $B      TST      r4,r4
        0x000063aa:    bf5c        \.      ITT      PL
        0x000063ac:    f5011e80    ....    ADDPL    lr,r1,#0x100000
        0x000063b0:    ea9e7fc4    ....    TEQPL    lr,r4,LSL #31
        0x000063b4:    d402        ..      BMI      0x63bc ; ddiv_entry + 302
        0x000063b6:    bcf0        ..      POP      {r4-r7}
        0x000063b8:    e8bd8100    ....    POP      {r8,pc}
        0x000063bc:    4224        $B      TST      r4,r4
        0x000063be:    d438        8.      BMI      0x6432 ; ddiv_entry + 420
        0x000063c0:    f1a141c0    ...A    SUB      r1,r1,#0x60000000
        0x000063c4:    bcf0        ..      POP      {r4-r7}
        0x000063c6:    e8bd4100    ...A    POP      {r8,lr}
        0x000063ca:    f000ba7b    ..{.    B.W      __fpl_dretinf ; 0x68c4
        0x000063ce:    ea4f20d0    O..     LSR      r0,r0,#11
        0x000063d2:    ea405041    @.AP    ORR      r0,r0,r1,LSL #21
        0x000063d6:    ea4f21d1    O..!    LSR      r1,r1,#11
        0x000063da:    ea4f22d2    O.."    LSR      r2,r2,#11
        0x000063de:    ea425243    B.CR    ORR      r2,r2,r3,LSL #21
        0x000063e2:    ea4f23d3    O..#    LSR      r3,r3,#11
        0x000063e6:    fba78602    ....    UMULL    r8,r6,r7,r2
        0x000063ea:    fb076603    ...f    MLA      r6,r7,r3,r6
        0x000063ee:    fb056602    ...f    MLA      r6,r5,r2,r6
        0x000063f2:    ea1e0f0e    ....    TST      lr,lr
        0x000063f6:    bf58        X.      IT       PL
        0x000063f8:    eba65600    ...V    SUBPL    r6,r6,r0,LSL #20
        0x000063fc:    ebb65600    ...V    SUBS     r6,r6,r0,LSL #20
        0x00006400:    ea4f0e52    O.R.    LSR      lr,r2,#1
        0x00006404:    ea4e7ec3    N..~    ORR      lr,lr,r3,LSL #31
        0x00006408:    eb180e0e    ....    ADDS     lr,r8,lr
        0x0000640c:    eb560e53    V.S.    ADCS     lr,r6,r3,LSR #1
        0x00006410:    d5bd        ..      BPL      0x638e ; ddiv_entry + 256
        0x00006412:    eb180802    ....    ADDS     r8,r8,r2
        0x00006416:    415e        ^A      ADCS     r6,r6,r3
        0x00006418:    1c7f        ..      ADDS     r7,r7,#1
        0x0000641a:    f1550500    U...    ADCS     r5,r5,#0
        0x0000641e:    e7b6        ..      B        0x638e ; ddiv_entry + 256
        0x00006420:    f44f1580    O...    MOV      r5,#0x100000
        0x00006424:    f04f0700    O...    MOV      r7,#0
        0x00006428:    f04f0600    O...    MOV      r6,#0
        0x0000642c:    f04f0800    O...    MOV      r8,#0
        0x00006430:    e7ad        ..      B        0x638e ; ddiv_entry + 256
        0x00006432:    f10141c0    ...A    ADD      r1,r1,#0x60000000
        0x00006436:    f0014100    ...A    AND      r1,r1,#0x80000000
        0x0000643a:    f04f0000    O...    MOV      r0,#0
        0x0000643e:    bcf0        ..      POP      {r4-r7}
        0x00006440:    e8bd8100    ....    POP      {r8,pc}
        0x00006444:    ea0c1513    ....    AND      r5,r12,r3,LSR #4
        0x00006448:    ea111f0c    ....    TST      r1,r12,LSL #4
        0x0000644c:    d000        ..      BEQ      0x6450 ; ddiv_entry + 450
        0x0000644e:    e00c        ..      B        0x646a ; ddiv_entry + 476
        0x00006450:    ea131f0c    ....    TST      r3,r12,LSL #4
        0x00006454:    f0008025    ..%.    BEQ.W    0x64a2 ; ddiv_entry + 532
        0x00006458:    f04f0000    O...    MOV      r0,#0
        0x0000645c:    ea810103    ....    EOR      r1,r1,r3
        0x00006460:    f0014100    ...A    AND      r1,r1,#0x80000000
        0x00006464:    bcf0        ..      POP      {r4-r7}
        0x00006466:    e8bd8100    ....    POP      {r8,pc}
        0x0000646a:    bcf0        ..      POP      {r4-r7}
        0x0000646c:    e8bd4100    ...A    POP      {r8,lr}
        0x00006470:    ea810103    ....    EOR      r1,r1,r3
        0x00006474:    f000ba26    ..&.    B.W      __fpl_dretinf ; 0x68c4
        0x00006478:    bcf0        ..      POP      {r4-r7}
        0x0000647a:    e8bd4100    ...A    POP      {r8,lr}
        0x0000647e:    b570        p.      PUSH     {r4-r6,lr}
        0x00006480:    f000f9d2    ....    BL       __fpl_dnaninf ; 0x6828
    $d
        0x00006484:    3efc7e09    .~.>    DCD    1056734729
    $t
        0x00006488:    f000b807    ....    B.W      0x649a ; ddiv_entry + 524
        0x0000648c:    f04f0000    O...    MOV      r0,#0
        0x00006490:    ea810103    ....    EOR      r1,r1,r3
        0x00006494:    f0014100    ...A    AND      r1,r1,#0x80000000
        0x00006498:    4770        pG      BX       lr
        0x0000649a:    ea810103    ....    EOR      r1,r1,r3
        0x0000649e:    f000ba11    ....    B.W      __fpl_dretinf ; 0x68c4
        0x000064a2:    bcf0        ..      POP      {r4-r7}
        0x000064a4:    e8bd4100    ...A    POP      {r8,lr}
        0x000064a8:    4922        "I      LDR      r1,[pc,#136] ; [0x6534] = 0x7ff80000
        0x000064aa:    f04f0000    O...    MOV      r0,#0
        0x000064ae:    4770        pG      BX       lr
    $d
        0x000064b0:    f9fbfdff    ....    DCD    4194041343
        0x000064b4:    f2f4f5f7    ....    DCD    4076140023
        0x000064b8:    ebedeef0    ....    DCD    3958238960
        0x000064bc:    e4e6e8e9    ....    DCD    3840338153
        0x000064c0:    dee0e1e3    ....    DCD    3739279843
        0x000064c4:    d8dadbdd    ....    DCD    3638221789
        0x000064c8:    d3d4d5d7    ....    DCD    3553940951
        0x000064cc:    cdcfd0d1    ....    DCD    3452948689
        0x000064d0:    c8cacbcc    ....    DCD    3368733644
        0x000064d4:    c4c5c6c7    ....    DCD    3301295815
        0x000064d8:    bfc0c1c2    ....    DCD    3217080770
        0x000064dc:    bbbcbdbe    ....    DCD    3149708734
        0x000064e0:    b7b8b9ba    ....    DCD    3082336698
        0x000064e4:    b3b4b5b6    ....    DCD    3014964662
        0x000064e8:    afb0b1b2    ....    DCD    2947592626
        0x000064ec:    abacadae    ....    DCD    2880220590
        0x000064f0:    a8a8a9aa    ....    DCD    2829625770
        0x000064f4:    a4a5a6a7    ....    DCD    2762319527
        0x000064f8:    a1a2a3a3    ....    DCD    2711790499
        0x000064fc:    9e9f9fa0    ....    DCD    2661261216
        0x00006500:    9b9c9c9d    ....    DCD    2610732189
        0x00006504:    9899999a    ....    DCD    2560203162
        0x00006508:    95969797    ....    DCD    2509674391
        0x0000650c:    93939495    ....    DCD    2475922581
        0x00006510:    90919192    ....    DCD    2425459090
        0x00006514:    8e8e8f8f    ....    DCD    2391707535
        0x00006518:    8b8c8c8d    ....    DCD    2341244045
        0x0000651c:    89898a8b    ....    DCD    2307492491
        0x00006520:    87878888    ....    DCD    2273806472
        0x00006524:    84858586    ....    DCD    2223342982
        0x00006528:    82838384    ....    DCD    2189656964
        0x0000652c:    80818182    ....    DCD    2155970946
        0x00006530:    07ff0000    ....    DCD    134152192
        0x00006534:    7ff80000    ....    DCD    2146959360
    $t
    x$fpl$dfix
    $v0
    __aeabi_d2iz
    _dfix
        0x00006538:    ea4f0341    O.A.    LSL      r3,r1,#1
        0x0000653c:    ea4f5353    O.SS    LSR      r3,r3,#21
        0x00006540:    f5a36380    ...c    SUB      r3,r3,#0x400
        0x00006544:    f1d3031e    ....    RSBS     r3,r3,#0x1e
        0x00006548:    bfc8        ..      IT       GT
        0x0000654a:    f1d30c21    ..!.    RSBSGT   r12,r3,#0x21
        0x0000654e:    dd0c        ..      BLE      0x656a ; __aeabi_d2iz + 50
        0x00006550:    f04f4200    O..B    MOV      r2,#0x80000000
        0x00006554:    ea4222c1    B.."    ORR      r2,r2,r1,LSL #11
        0x00006558:    ea425250    B.PR    ORR      r2,r2,r0,LSR #21
        0x0000655c:    fa32fc03    2...    LSRS     r12,r2,r3
        0x00006560:    ea8c7ce1    ...|    EOR      r12,r12,r1,ASR #31
        0x00006564:    ebac70e1    ...p    SUB      r0,r12,r1,ASR #31
        0x00006568:    4770        pG      BX       lr
        0x0000656a:    2b10        .+      CMP      r3,#0x10
        0x0000656c:    bfc4        ..      ITT      GT
        0x0000656e:    2000        .       MOVGT    r0,#0
        0x00006570:    4770        pG      BXGT     lr
        0x00006572:    f5037c78    ..x|    ADD      r12,r3,#0x3e0
        0x00006576:    f1bc3fff    ...?    CMP      r12,#0xffffffff
        0x0000657a:    d004        ..      BEQ      0x6586 ; __aeabi_d2iz + 78
        0x0000657c:    f06f4200    o..B    MVN      r2,#0x80000000
        0x00006580:    ea820021    ..!.    EOR      r0,r2,r1,ASR #32
        0x00006584:    4770        pG      BX       lr
        0x00006586:    b570        p.      PUSH     {r4-r6,lr}
        0x00006588:    f000f94e    ..N.    BL       __fpl_dnaninf ; 0x6828
    $d
        0x0000658c:    80249249    I.$.    DCD    2149880393
    $t
        0x00006590:    2000        .       MOVS     r0,#0
        0x00006592:    4770        pG      BX       lr
        0x00006594:    e7f2        ..      B        0x657c ; __aeabi_d2iz + 68
        0x00006596:    0000        ..      MOVS     r0,r0
    x$fpl$dfixu
    $v0
    __aeabi_d2uiz
    _dfixu
        0x00006598:    ea4f5311    O..S    LSR      r3,r1,#20
        0x0000659c:    f5a36380    ...c    SUB      r3,r3,#0x400
        0x000065a0:    f1d3031e    ....    RSBS     r3,r3,#0x1e
        0x000065a4:    bfa8        ..      IT       GE
        0x000065a6:    f1d30c20    .. .    RSBSGE   r12,r3,#0x20
        0x000065aa:    db08        ..      BLT      0x65be ; __aeabi_d2uiz + 38
        0x000065ac:    f04f4200    O..B    MOV      r2,#0x80000000
        0x000065b0:    ea4222c1    B.."    ORR      r2,r2,r1,LSL #11
        0x000065b4:    ea525250    R.PR    ORRS     r2,r2,r0,LSR #21
        0x000065b8:    fa32f003    2...    LSRS     r0,r2,r3
        0x000065bc:    4770        pG      BX       lr
        0x000065be:    4209        .B      TST      r1,r1
        0x000065c0:    d40b        ..      BMI      0x65da ; __aeabi_d2uiz + 66
        0x000065c2:    2b10        .+      CMP      r3,#0x10
        0x000065c4:    bfc4        ..      ITT      GT
        0x000065c6:    2000        .       MOVGT    r0,#0
        0x000065c8:    4770        pG      BXGT     lr
        0x000065ca:    f5037c78    ..x|    ADD      r12,r3,#0x3e0
        0x000065ce:    f1bc3fff    ...?    CMP      r12,#0xffffffff
        0x000065d2:    d005        ..      BEQ      0x65e0 ; __aeabi_d2uiz + 72
        0x000065d4:    f04f30ff    O..0    MOV      r0,#0xffffffff
        0x000065d8:    4770        pG      BX       lr
        0x000065da:    f04f0000    O...    MOV      r0,#0
        0x000065de:    4770        pG      BX       lr
        0x000065e0:    b570        p.      PUSH     {r4-r6,lr}
        0x000065e2:    f000f921    ..!.    BL       __fpl_dnaninf ; 0x6828
        0x000065e6:    bf00        ..      NOP      
    $d
        0x000065e8:    80249249    I.$.    DCD    2149880393
    $t
        0x000065ec:    2000        .       MOVS     r0,#0
        0x000065ee:    4770        pG      BX       lr
        0x000065f0:    e7f0        ..      B        0x65d4 ; __aeabi_d2uiz + 60
    x$fpl$dflt
    $v0
    __aeabi_i2d
    _dflt
        0x000065f2:    f0104200    ...B    ANDS     r2,r0,#0x80000000
        0x000065f6:    bf48        H.      IT       MI
        0x000065f8:    4240        @B      RSBMI    r0,r0,#0
        0x000065fa:    fab0f380    ....    CLZ      r3,r0
        0x000065fe:    fa10f103    ....    LSLS     r1,r0,r3
        0x00006602:    d00a        ..      BEQ      0x661a ; __aeabi_i2d + 40
        0x00006604:    f1c3031d    ....    RSB      r3,r3,#0x1d
        0x00006608:    f5036380    ...c    ADD      r3,r3,#0x400
        0x0000660c:    eb025203    ...R    ADD      r2,r2,r3,LSL #20
        0x00006610:    ea4f5041    O.AP    LSL      r0,r1,#21
        0x00006614:    eb0221d1    ...!    ADD      r1,r2,r1,LSR #11
        0x00006618:    4770        pG      BX       lr
        0x0000661a:    f04f0000    O...    MOV      r0,#0
        0x0000661e:    4770        pG      BX       lr
    x$fpl$dfltu
    $v0
    __aeabi_ui2d
    _dfltu
        0x00006620:    fab0f380    ....    CLZ      r3,r0
        0x00006624:    fa10f103    ....    LSLS     r1,r0,r3
        0x00006628:    d00a        ..      BEQ      0x6640 ; __aeabi_ui2d + 32
        0x0000662a:    f1c3031d    ....    RSB      r3,r3,#0x1d
        0x0000662e:    f5036380    ...c    ADD      r3,r3,#0x400
        0x00006632:    ea4f5203    O..R    LSL      r2,r3,#20
        0x00006636:    ea4f5041    O.AP    LSL      r0,r1,#21
        0x0000663a:    eb0221d1    ...!    ADD      r1,r2,r1,LSR #11
        0x0000663e:    4770        pG      BX       lr
        0x00006640:    f04f0000    O...    MOV      r0,#0
        0x00006644:    4770        pG      BX       lr
        0x00006646:    0000        ..      MOVS     r0,r0
    x$fpl$dfltull
    $v0
    __aeabi_ul2d
    _ll_uto_d
        0x00006648:    fab1f381    ....    CLZ      r3,r1
        0x0000664c:    3b0b        .;      SUBS     r3,r3,#0xb
        0x0000664e:    d320         .      BCC      0x6692 ; __aeabi_ul2d + 74
        0x00006650:    4099        .@      LSLS     r1,r1,r3
        0x00006652:    d110        ..      BNE      0x6676 ; __aeabi_ul2d + 46
        0x00006654:    fab0f380    ....    CLZ      r3,r0
        0x00006658:    fa10f103    ....    LSLS     r1,r0,r3
        0x0000665c:    bf08        ..      IT       EQ
        0x0000665e:    4770        pG      BXEQ     lr
        0x00006660:    f1c3031d    ....    RSB      r3,r3,#0x1d
        0x00006664:    f5036380    ...c    ADD      r3,r3,#0x400
        0x00006668:    ea4f22d1    O.."    LSR      r2,r1,#11
        0x0000666c:    ea4f5041    O.AP    LSL      r0,r1,#21
        0x00006670:    eb025103    ...Q    ADD      r1,r2,r3,LSL #20
        0x00006674:    4770        pG      BX       lr
        0x00006676:    f1c30c20    .. .    RSB      r12,r3,#0x20
        0x0000667a:    fa20fc0c     ...    LSR      r12,r0,r12
        0x0000667e:    ea41010c    A...    ORR      r1,r1,r12
        0x00006682:    4098        .@      LSLS     r0,r0,r3
        0x00006684:    f1c30332    ..2.    RSB      r3,r3,#0x32
        0x00006688:    f5036380    ...c    ADD      r3,r3,#0x400
        0x0000668c:    eb015103    ...Q    ADD      r1,r1,r3,LSL #20
        0x00006690:    4770        pG      BX       lr
        0x00006692:    f1c30c32    ..2.    RSB      r12,r3,#0x32
        0x00006696:    f50c6280    ...b    ADD      r2,r12,#0x400
        0x0000669a:    b510        ..      PUSH     {r4,lr}
        0x0000669c:    f1c30400    ....    RSB      r4,r3,#0
        0x000066a0:    f1c40e20    .. .    RSB      lr,r4,#0x20
        0x000066a4:    fa01fc0e    ....    LSL      r12,r1,lr
        0x000066a8:    fa21f104    !...    LSR      r1,r1,r4
        0x000066ac:    fa00f30e    ....    LSL      r3,r0,lr
        0x000066b0:    40e0        .@      LSRS     r0,r0,r4
        0x000066b2:    ea40000c    @...    ORR      r0,r0,r12
        0x000066b6:    e8bd4010    ...@    POP      {r4,lr}
        0x000066ba:    eb015102    ...Q    ADD      r1,r1,r2,LSL #20
        0x000066be:    bf38        8.      IT       CC
        0x000066c0:    4770        pG      BXCC     lr
        0x000066c2:    1c40        @.      ADDS     r0,r0,#1
        0x000066c4:    f1410100    A...    ADC      r1,r1,#0
        0x000066c8:    005b        [.      LSLS     r3,r3,#1
        0x000066ca:    bf08        ..      IT       EQ
        0x000066cc:    f0200001     ...    BICEQ    r0,r0,#1
        0x000066d0:    4770        pG      BX       lr
        0x000066d2:    0000        ..      MOVS     r0,r0
    x$fpl$dmul
    $v0
    __aeabi_dmul
    _dmul
        0x000066d4:    b570        p.      PUSH     {r4-r6,lr}
        0x000066d6:    f8dfc148    ..H.    LDR      r12,[pc,#328] ; [0x6820] = 0x7ff0000
        0x000066da:    ea1c1e11    ....    ANDS     lr,r12,r1,LSR #4
        0x000066de:    bf1e        ..      ITTT     NE
        0x000066e0:    ea1c1513    ....    ANDSNE   r5,r12,r3,LSR #4
        0x000066e4:    ea9e0f0c    ....    TEQNE    lr,r12
        0x000066e8:    ea950f0c    ....    TEQNE    r5,r12
        0x000066ec:    f000806f    ..o.    BEQ.W    0x67ce ; __aeabi_dmul + 250
        0x000066f0:    ea810403    ....    EOR      r4,r1,r3
        0x000066f4:    ea4e7ed4    N..~    ORR      lr,lr,r4,LSR #31
        0x000066f8:    44ae        .D      ADD      lr,lr,r5
        0x000066fa:    ea21114c    !.L.    BIC      r1,r1,r12,LSL #5
        0x000066fe:    ea23134c    #.L.    BIC      r3,r3,r12,LSL #5
        0x00006702:    f4411180    A...    ORR      r1,r1,#0x100000
        0x00006706:    f4431380    C...    ORR      r3,r3,#0x100000
        0x0000670a:    f1ae7e7f    ...~    SUB      lr,lr,#0x3fc0000
        0x0000670e:    fba14c02    ...L    UMULL    r4,r12,r1,r2
        0x00006712:    fba06503    ...e    UMULL    r6,r5,r0,r3
        0x00006716:    1936        6.      ADDS     r6,r6,r4
        0x00006718:    eb55050c    U...    ADCS     r5,r5,r12
        0x0000671c:    fba14c03    ...L    UMULL    r4,r12,r1,r3
        0x00006720:    f14c0300    L...    ADC      r3,r12,#0
        0x00006724:    fba01c02    ....    UMULL    r1,r12,r0,r2
        0x00006728:    eb16060c    ....    ADDS     r6,r6,r12
        0x0000672c:    4165        eA      ADCS     r5,r5,r4
        0x0000672e:    f1530300    S...    ADCS     r3,r3,#0
        0x00006732:    4209        .B      TST      r1,r1
        0x00006734:    bf18        ..      IT       NE
        0x00006736:    f0460601    F...    ORRNE    r6,r6,#1
        0x0000673a:    f4137f00    ....    TST      r3,#0x200
        0x0000673e:    d10b        ..      BNE      0x6758 ; __aeabi_dmul + 132
        0x00006740:    ea4f3103    O..1    LSL      r1,r3,#12
        0x00006744:    ea4f3005    O..0    LSL      r0,r5,#12
        0x00006748:    ea415115    A..Q    ORR      r1,r1,r5,LSR #20
        0x0000674c:    ea405016    @..P    ORR      r0,r0,r6,LSR #20
        0x00006750:    0334        4.      LSLS     r4,r6,#12
        0x00006752:    f06f0203    o...    MVN      r2,#3
        0x00006756:    e00a        ..      B        0x676e ; __aeabi_dmul + 154
        0x00006758:    ea4f21c3    O..!    LSL      r1,r3,#11
        0x0000675c:    ea4f20c5    O..     LSL      r0,r5,#11
        0x00006760:    ea415155    A.UQ    ORR      r1,r1,r5,LSR #21
        0x00006764:    ea405056    @.VP    ORR      r0,r0,r6,LSR #21
        0x00006768:    02f4        ..      LSLS     r4,r6,#11
        0x0000676a:    f06f0202    o...    MVN      r2,#2
        0x0000676e:    eb02422e    ...B    ADD      r2,r2,lr,ASR #16
        0x00006772:    eb015502    ...U    ADD      r5,r1,r2,LSL #20
        0x00006776:    ea8571ce    ...q    EOR      r1,r5,lr,LSL #31
        0x0000677a:    d00a        ..      BEQ      0x6792 ; __aeabi_dmul + 190
        0x0000677c:    ea5f0c44    _.D.    LSLS     r12,r4,#1
        0x00006780:    bf18        ..      IT       NE
        0x00006782:    f0244400    $..D    BICNE    r4,r4,#0x80000000
        0x00006786:    f1500000    P...    ADCS     r0,r0,#0
        0x0000678a:    f1410100    A...    ADC      r1,r1,#0
        0x0000678e:    ea2070d4     ..p    BIC      r0,r0,r4,LSR #31
        0x00006792:    f2407cfe    @..|    MOV      r12,#0x7fe
        0x00006796:    4562        bE      CMP      r2,r12
        0x00006798:    d200        ..      BCS      0x679c ; __aeabi_dmul + 200
        0x0000679a:    bd70        p.      POP      {r4-r6,pc}
        0x0000679c:    42a8        .B      CMP      r0,r5
        0x0000679e:    bf14        ..      ITE      NE
        0x000067a0:    f04f4480    O..D    MOVNE    r4,#0x40000000
        0x000067a4:    f04f4440    O.@D    MOVEQ    r4,#0xc0000000
        0x000067a8:    2e00        ..      CMP      r6,#0
        0x000067aa:    bf08        ..      IT       EQ
        0x000067ac:    2400        .$      MOVEQ    r4,#0
        0x000067ae:    f1be6f80    ...o    CMP      lr,#0x4000000
        0x000067b2:    bfa8        ..      IT       GE
        0x000067b4:    f1a141c0    ...A    SUBGE    r1,r1,#0x60000000
        0x000067b8:    e8bd4070    ..p@    POP      {r4-r6,lr}
        0x000067bc:    f2808082    ....    BGE.W    __fpl_dretinf ; 0x68c4
        0x000067c0:    f10141c0    ...A    ADD      r1,r1,#0x60000000
        0x000067c4:    f0014100    ...A    AND      r1,r1,#0x80000000
        0x000067c8:    f04f0000    O...    MOV      r0,#0
        0x000067cc:    4770        pG      BX       lr
        0x000067ce:    ea0c1513    ....    AND      r5,r12,r3,LSR #4
        0x000067d2:    ea9e0f0c    ....    TEQ      lr,r12
        0x000067d6:    bf18        ..      IT       NE
        0x000067d8:    ea950f0c    ....    TEQNE    r5,r12
        0x000067dc:    d006        ..      BEQ      0x67ec ; __aeabi_dmul + 280
        0x000067de:    ea810e03    ....    EOR      lr,r1,r3
        0x000067e2:    f04f0000    O...    MOV      r0,#0
        0x000067e6:    f00e4100    ...A    AND      r1,lr,#0x80000000
        0x000067ea:    bd70        p.      POP      {r4-r6,pc}
        0x000067ec:    f000f81c    ....    BL       __fpl_dnaninf ; 0x6828
    $d
        0x000067f0:    3e010089    ...>    DCD    1040253065
    $t
        0x000067f4:    f000b807    ....    B.W      0x6806 ; __aeabi_dmul + 306
        0x000067f8:    f000b809    ....    B.W      0x680e ; __aeabi_dmul + 314
        0x000067fc:    ea4f0c43    O.C.    LSL      r12,r3,#1
        0x00006800:    ea5f5c5c    _.\\    LSRS     r12,r12,#21
        0x00006804:    d008        ..      BEQ      0x6818 ; __aeabi_dmul + 324
        0x00006806:    ea810103    ....    EOR      r1,r1,r3
        0x0000680a:    f000b85b    ..[.    B.W      __fpl_dretinf ; 0x68c4
        0x0000680e:    ea4f0c41    O.A.    LSL      r12,r1,#1
        0x00006812:    ea5f5c5c    _.\\    LSRS     r12,r12,#21
        0x00006816:    d1f6        ..      BNE      0x6806 ; __aeabi_dmul + 306
        0x00006818:    4902        .I      LDR      r1,[pc,#8] ; [0x6824] = 0x7ff80000
        0x0000681a:    f04f0000    O...    MOV      r0,#0
        0x0000681e:    4770        pG      BX       lr
    $d
        0x00006820:    07ff0000    ....    DCD    134152192
        0x00006824:    7ff80000    ....    DCD    2146959360
    $t
    x$fpl$dnaninf
    $v0
    __fpl_dnaninf
        0x00006828:    f10e0e02    ....    ADD      lr,lr,#2
        0x0000682c:    f02e0e03    ....    BIC      lr,lr,#3
        0x00006830:    f85e6b04    ^..k    LDR      r6,[lr],#4
        0x00006834:    4236        6B      TST      r6,r6
        0x00006836:    d405        ..      BMI      0x6844 ; __fpl_dnaninf + 28
        0x00006838:    2a01        .*      CMP      r2,#1
        0x0000683a:    eb430503    C...    ADC      r5,r3,r3
        0x0000683e:    f5151f00    ....    CMN      r5,#0x200000
        0x00006842:    d812        ..      BHI      0x686a ; __fpl_dnaninf + 66
        0x00006844:    2801        .(      CMP      r0,#1
        0x00006846:    eb410c01    A...    ADC      r12,r1,r1
        0x0000684a:    f51c1f00    ....    CMN      r12,#0x200000
        0x0000684e:    d80c        ..      BHI      0x686a ; __fpl_dnaninf + 66
        0x00006850:    d10e        ..      BNE      0x6870 ; __fpl_dnaninf + 72
        0x00006852:    ea4f7cd1    O..|    LSR      r12,r1,#31
        0x00006856:    eb0c0c4c    ..L.    ADD      r12,r12,r12,LSL #1
        0x0000685a:    f10c0c02    ....    ADD      r12,r12,#2
        0x0000685e:    f5151f00    ....    CMN      r5,#0x200000
        0x00006862:    bf08        ..      IT       EQ
        0x00006864:    eb4c7cd3    L..|    ADCEQ    r12,r12,r3,LSR #31
        0x00006868:    e004        ..      B        0x6874 ; __fpl_dnaninf + 76
        0x0000686a:    f04f0c08    O...    MOV      r12,#8
        0x0000686e:    e001        ..      B        0x6874 ; __fpl_dnaninf + 76
        0x00006870:    ea4f7cd3    O..|    LSR      r12,r3,#31
        0x00006874:    eb0c054c    ..L.    ADD      r5,r12,r12,LSL #1
        0x00006878:    fa26f605    &...    LSR      r6,r6,r5
        0x0000687c:    f0060607    ....    AND      r6,r6,#7
        0x00006880:    f1b60c04    ....    SUBS     r12,r6,#4
        0x00006884:    d206        ..      BCS      0x6894 ; __fpl_dnaninf + 108
        0x00006886:    eb0e0c86    ....    ADD      r12,lr,r6,LSL #2
        0x0000688a:    e8bd4070    ..p@    POP      {r4-r6,lr}
        0x0000688e:    f04c0c01    L...    ORR      r12,r12,#1
        0x00006892:    4760        `G      BX       r12
        0x00006894:    e8dff00c    ....    TBB      [pc,r12]
    $d
        0x00006898:    02020b09    ....    DCD    33688329
    $t
        0x0000689c:    f04f4100    O..A    MOV      r1,#0x80000000
        0x000068a0:    f5a12100    ...!    SUB      r1,r1,#0x80000
        0x000068a4:    f04f0000    O...    MOV      r0,#0
        0x000068a8:    bd70        p.      POP      {r4-r6,pc}
        0x000068aa:    4619        .F      MOV      r1,r3
        0x000068ac:    4610        .F      MOV      r0,r2
        0x000068ae:    2801        .(      CMP      r0,#1
        0x000068b0:    eb510401    Q...    ADCS     r4,r1,r1
        0x000068b4:    bf18        ..      IT       NE
        0x000068b6:    f5d41400    ....    RSBSNE   r4,r4,#0x200000
        0x000068ba:    bf84        ..      ITT      HI
        0x000068bc:    2000        .       MOVHI    r0,#0
        0x000068be:    f0014100    ...A    ANDHI    r1,r1,#0x80000000
        0x000068c2:    bd70        p.      POP      {r4-r6,pc}
    x$fpl$dretinf
    $v0
    __fpl_dretinf
        0x000068c4:    0808        ..      LSRS     r0,r1,#32
        0x000068c6:    f5a01100    ....    SUB      r1,r0,#0x200000
        0x000068ca:    ea4f0131    O.1.    RRX      r1,r1
        0x000068ce:    4770        pG      BX       lr
    x$fpl$drsb
    $v0
    __aeabi_drsub
    _drsb
        0x000068d0:    b510        ..      PUSH     {r4,lr}
        0x000068d2:    ea910f03    ....    TEQ      r1,r3
        0x000068d6:    f0814100    ...A    EOR      r1,r1,#0x80000000
        0x000068da:    f53fac35    ?.5.    BMI      _dadd1 ; 0x6148
        0x000068de:    f0834300    ...C    EOR      r3,r3,#0x80000000
        0x000068e2:    f000b809    ....    B.W      _dsub1 ; 0x68f8
        0x000068e6:    0000        ..      MOVS     r0,r0
    x$fpl$dsub
    $v0
    __aeabi_dsub
    _dsub
        0x000068e8:    b510        ..      PUSH     {r4,lr}
        0x000068ea:    ea910f03    ....    TEQ      r1,r3
        0x000068ee:    bf48        H.      IT       MI
        0x000068f0:    f0834300    ...C    EORMI    r3,r3,#0x80000000
        0x000068f4:    f53fac28    ?.(.    BMI      _dadd1 ; 0x6148
    _dsub1
        0x000068f8:    1a84        ..      SUBS     r4,r0,r2
        0x000068fa:    eb710c03    q...    SBCS     r12,r1,r3
        0x000068fe:    d207        ..      BCS      0x6910 ; _dsub1 + 24
        0x00006900:    f08c4c00    ...L    EOR      r12,r12,#0x80000000
        0x00006904:    1912        ..      ADDS     r2,r2,r4
        0x00006906:    eb43030c    C...    ADC      r3,r3,r12
        0x0000690a:    1b00        ..      SUBS     r0,r0,r4
        0x0000690c:    eb61010c    a...    SBC      r1,r1,r12
        0x00006910:    ea4f5411    O..T    LSR      r4,r1,#20
        0x00006914:    eba45c13    ...\    SUB      r12,r4,r3,LSR #20
        0x00006918:    f8dfe19c    ....    LDR      lr,[pc,#412] ; [0x6ab8] = 0xffe00000
        0x0000691c:    ea1e0f43    ..C.    TST      lr,r3,LSL #1
        0x00006920:    bf18        ..      IT       NE
        0x00006922:    ea9e5f44    ..D_    TEQNE    lr,r4,LSL #21
        0x00006926:    f00080b0    ....    BEQ.W    0x6a8a ; _dsub1 + 402
        0x0000692a:    ea215104    !..Q    BIC      r1,r1,r4,LSL #20
        0x0000692e:    ea23036e    #.n.    BIC      r3,r3,lr,ASR #1
        0x00006932:    4252        RB      RSBS     r2,r2,#0
        0x00006934:    ebc3036e    ..n.    RSB      r3,r3,lr,ASR #1
        0x00006938:    bf38        8.      IT       CC
        0x0000693a:    1e5b        [.      SUBCC    r3,r3,#1
        0x0000693c:    f1dc0e20    .. .    RSBS     lr,r12,#0x20
        0x00006940:    d325        %.      BCC      0x698e ; _dsub1 + 150
        0x00006942:    fa22fe0c    "...    LSR      lr,r2,r12
        0x00006946:    eb10000e    ....    ADDS     r0,r0,lr
        0x0000694a:    fa43fe0c    C...    ASR      lr,r3,r12
        0x0000694e:    eb41010e    A...    ADC      r1,r1,lr
        0x00006952:    f1cc0e20    .. .    RSB      lr,r12,#0x20
        0x00006956:    fa03fe0e    ....    LSL      lr,r3,lr
        0x0000695a:    eb10000e    ....    ADDS     r0,r0,lr
        0x0000695e:    f1cc0e20    .. .    RSB      lr,r12,#0x20
        0x00006962:    f1510100    Q...    ADCS     r1,r1,#0
        0x00006966:    d429        ).      BMI      0x69bc ; _dsub1 + 196
        0x00006968:    eb015104    ...Q    ADD      r1,r1,r4,LSL #20
        0x0000696c:    fa12f20e    ....    LSLS     r2,r2,lr
        0x00006970:    e8bd4010    ...@    POP      {r4,lr}
        0x00006974:    bf58        X.      IT       PL
        0x00006976:    4770        pG      BXPL     lr
        0x00006978:    1c40        @.      ADDS     r0,r0,#1
        0x0000697a:    bf1c        ..      ITT      NE
        0x0000697c:    f1b24f00    ...O    CMPNE    r2,#0x80000000
        0x00006980:    4770        pG      BXNE     lr
        0x00006982:    2800        .(      CMP      r0,#0
        0x00006984:    bf0c        ..      ITE      EQ
        0x00006986:    1c49        I.      ADDEQ    r1,r1,#1
        0x00006988:    f0200001     ...    BICNE    r0,r0,#1
        0x0000698c:    4770        pG      BX       lr
        0x0000698e:    eb120e02    ....    ADDS     lr,r2,r2
        0x00006992:    eb430203    C...    ADC      r2,r3,r3
        0x00006996:    bf18        ..      IT       NE
        0x00006998:    f04f0e01    O...    MOVNE    lr,#1
        0x0000699c:    ea4e0242    N.B.    ORR      r2,lr,r2,LSL #1
        0x000069a0:    f1ac0c20    .. .    SUB      r12,r12,#0x20
        0x000069a4:    f1dc0e1e    ....    RSBS     lr,r12,#0x1e
        0x000069a8:    d954        T.      BLS      0x6a54 ; _dsub1 + 348
        0x000069aa:    fa43fe0c    C...    ASR      lr,r3,r12
        0x000069ae:    eb10000e    ....    ADDS     r0,r0,lr
        0x000069b2:    f1cc0e1e    ....    RSB      lr,r12,#0x1e
        0x000069b6:    f15131ff    Q..1    ADCS     r1,r1,#0xffffffff
        0x000069ba:    d5d5        ..      BPL      0x6968 ; _dsub1 + 112
        0x000069bc:    f10e0e01    ....    ADD      lr,lr,#1
        0x000069c0:    fa12fe0e    ....    LSLS     lr,r2,lr
        0x000069c4:    4140        @A      ADCS     r0,r0,r0
        0x000069c6:    eb410101    A...    ADC      r1,r1,r1
        0x000069ca:    eb015c44    ..D\    ADD      r12,r1,r4,LSL #21
        0x000069ce:    ea5f5c5c    _.\\    LSRS     r12,r12,#21
        0x000069d2:    d910        ..      BLS      0x69f6 ; _dsub1 + 254
        0x000069d4:    eb015104    ...Q    ADD      r1,r1,r4,LSL #20
        0x000069d8:    eb1070de    ...p    ADDS     r0,r0,lr,LSR #31
        0x000069dc:    bf38        8.      IT       CC
        0x000069de:    f1be4f00    ...O    CMPCC    lr,#0x80000000
        0x000069e2:    e8bd4010    ...@    POP      {r4,lr}
        0x000069e6:    bf18        ..      IT       NE
        0x000069e8:    4770        pG      BXNE     lr
        0x000069ea:    2800        .(      CMP      r0,#0
        0x000069ec:    bf0c        ..      ITE      EQ
        0x000069ee:    1c49        I.      ADDEQ    r1,r1,#1
        0x000069f0:    f0200001     ...    BICNE    r0,r0,#1
        0x000069f4:    4770        pG      BX       lr
        0x000069f6:    d230        0.      BCS      0x6a5a ; _dsub1 + 354
        0x000069f8:    ea4f2cd4    O..,    LSR      r12,r4,#11
        0x000069fc:    f4246400    $..d    BIC      r4,r4,#0x800
        0x00006a00:    f5111100    ....    ADDS     r1,r1,#0x200000
        0x00006a04:    d01b        ..      BEQ      0x6a3e ; _dsub1 + 326
        0x00006a06:    fab1f281    ....    CLZ      r2,r1
        0x00006a0a:    3a0b        .:      SUBS     r2,r2,#0xb
        0x00006a0c:    1aa4        ..      SUBS     r4,r4,r2
        0x00006a0e:    1ea4        ..      SUBS     r4,r4,#2
        0x00006a10:    f1d20320    .. .    RSBS     r3,r2,#0x20
        0x00006a14:    4091        .@      LSLS     r1,r1,r2
        0x00006a16:    fa30f303    0...    LSRS     r3,r0,r3
        0x00006a1a:    4319        .C      ORRS     r1,r1,r3
        0x00006a1c:    4090        .@      LSLS     r0,r0,r2
        0x00006a1e:    eb0171cc    ...q    ADD      r1,r1,r12,LSL #31
        0x00006a22:    eb015104    ...Q    ADD      r1,r1,r4,LSL #20
        0x00006a26:    2c00        .,      CMP      r4,#0
        0x00006a28:    e8bd4010    ...@    POP      {r4,lr}
        0x00006a2c:    bfa8        ..      IT       GE
        0x00006a2e:    4770        pG      BXGE     lr
        0x00006a30:    f10141c0    ...A    ADD      r1,r1,#0x60000000
        0x00006a34:    f0014100    ...A    AND      r1,r1,#0x80000000
        0x00006a38:    f04f0000    O...    MOV      r0,#0
        0x00006a3c:    4770        pG      BX       lr
        0x00006a3e:    fab0f380    ....    CLZ      r3,r0
        0x00006a42:    fa10f103    ....    LSLS     r1,r0,r3
        0x00006a46:    d100        ..      BNE      0x6a4a ; _dsub1 + 338
        0x00006a48:    bd10        ..      POP      {r4,pc}
        0x00006a4a:    1ae4        ..      SUBS     r4,r4,r3
        0x00006a4c:    3c17        .<      SUBS     r4,r4,#0x17
        0x00006a4e:    0548        H.      LSLS     r0,r1,#21
        0x00006a50:    0ac9        ..      LSRS     r1,r1,#11
        0x00006a52:    e7e4        ..      B        0x6a1e ; _dsub1 + 294
        0x00006a54:    eb015104    ...Q    ADD      r1,r1,r4,LSL #20
        0x00006a58:    bd10        ..      POP      {r4,pc}
        0x00006a5a:    1049        I.      ASRS     r1,r1,#1
        0x00006a5c:    ea4f0030    O.0.    RRX      r0,r0
        0x00006a60:    eb015104    ...Q    ADD      r1,r1,r4,LSL #20
        0x00006a64:    e8bd4010    ...@    POP      {r4,lr}
        0x00006a68:    e002        ..      B        0x6a70 ; _dsub1 + 376
        0x00006a6a:    f04f0100    O...    MOV      r1,#0
        0x00006a6e:    4770        pG      BX       lr
        0x00006a70:    004a        J.      LSLS     r2,r1,#1
        0x00006a72:    bf08        ..      IT       EQ
        0x00006a74:    4200        .B      TSTEQ    r0,r0
        0x00006a76:    d0f8        ..      BEQ      0x6a6a ; _dsub1 + 370
        0x00006a78:    f5b21f00    ....    CMP      r2,#0x200000
        0x00006a7c:    bf28        (.      IT       CS
        0x00006a7e:    4770        pG      BXCS     lr
        0x00006a80:    f0014100    ...A    AND      r1,r1,#0x80000000
        0x00006a84:    f04f0000    O...    MOV      r0,#0
        0x00006a88:    4770        pG      BX       lr
        0x00006a8a:    ea9e5f44    ..D_    TEQ      lr,r4,LSL #21
        0x00006a8e:    d007        ..      BEQ      0x6aa0 ; _dsub1 + 424
        0x00006a90:    ea110f5e    ..^.    TST      r1,lr,LSR #1
        0x00006a94:    e8bd4010    ...@    POP      {r4,lr}
        0x00006a98:    bf04        ..      ITT      EQ
        0x00006a9a:    2100        .!      MOVEQ    r1,#0
        0x00006a9c:    2000        .       MOVEQ    r0,#0
        0x00006a9e:    4770        pG      BX       lr
        0x00006aa0:    e8bd4010    ...@    POP      {r4,lr}
        0x00006aa4:    b570        p.      PUSH     {r4-r6,lr}
        0x00006aa6:    f7fffebf    ....    BL       __fpl_dnaninf ; 0x6828
        0x00006aaa:    bf00        ..      NOP      
    $d
        0x00006aac:    3ef6df40    @..>    DCD    1056366400
    $t
        0x00006ab0:    4610        .F      MOV      r0,r2
        0x00006ab2:    f0834100    ...A    EOR      r1,r3,#0x80000000
        0x00006ab6:    4770        pG      BX       lr
    $d
        0x00006ab8:    ffe00000    ....    DCD    4292870144
    $t
    x$fpl$f2d
    $v0
    __aeabi_f2d
    _f2d
        0x00006abc:    0043        C.      LSLS     r3,r0,#1
        0x00006abe:    ea4f0cd3    O...    LSR      r12,r3,#3
        0x00006ac2:    ea4f0c3c    O.<.    RRX      r12,r12
        0x00006ac6:    4043        C@      EORS     r3,r3,r0
        0x00006ac8:    bf1f        ..      ITTTT    NE
        0x00006aca:    0740        @.      LSLNE    r0,r0,#29
        0x00006acc:    f10c5160    ..`Q    ADDNE    r1,r12,#0x38000000
        0x00006ad0:    f0134ffe    ...O    TSTNE    r3,#0x7f000000
        0x00006ad4:    4770        pG      BXNE     lr
        0x00006ad6:    f01c6f00    ...o    TST      r12,#0x8000000
        0x00006ada:    d103        ..      BNE      0x6ae4 ; __aeabi_f2d + 40
        0x00006adc:    f00c4100    ...A    AND      r1,r12,#0x80000000
        0x00006ae0:    2000        .       MOVS     r0,#0
        0x00006ae2:    4770        pG      BX       lr
        0x00006ae4:    f00c4300    ...C    AND      r3,r12,#0x80000000
        0x00006ae8:    ea437050    C.Pp    ORR      r0,r3,r0,LSR #29
        0x00006aec:    ea4000cc    @...    ORR      r0,r0,r12,LSL #3
        0x00006af0:    b510        ..      PUSH     {r4,lr}
        0x00006af2:    f000f80e    ....    BL       __fpl_fnaninf ; 0x6b12
        0x00006af6:    bf00        ..      NOP      
    $d
        0x00006af8:    92000000    ....    DCD    2449473536
    $t
        0x00006afc:    ea4f0100    O...    MOV.W    r1,r0
        0x00006b00:    f7ffbee0    ....    B.W      __fpl_dretinf ; 0x68c4
        0x00006b04:    f04f4100    O..A    MOV      r1,#0x80000000
        0x00006b08:    f5a12100    ...!    SUB      r1,r1,#0x80000
        0x00006b0c:    f04f0000    O...    MOV      r0,#0
        0x00006b10:    4770        pG      BX       lr
    x$fpl$fnaninf
    $v0
    __fpl_fnaninf
        0x00006b12:    f10e0e02    ....    ADD      lr,lr,#2
        0x00006b16:    f02e0e03    ....    BIC      lr,lr,#3
        0x00006b1a:    f85e4b04    ^..K    LDR      r4,[lr],#4
        0x00006b1e:    4224        $B      TST      r4,r4
        0x00006b20:    d404        ..      BMI      0x6b2c ; __fpl_fnaninf + 26
        0x00006b22:    ea4f0241    O.A.    LSL      r2,r1,#1
        0x00006b26:    f1b24f7f    ...O    CMP      r2,#0xff000000
        0x00006b2a:    d811        ..      BHI      0x6b50 ; __fpl_fnaninf + 62
        0x00006b2c:    ea4f0340    O.@.    LSL      r3,r0,#1
        0x00006b30:    f1b34f7f    ...O    CMP      r3,#0xff000000
        0x00006b34:    d80c        ..      BHI      0x6b50 ; __fpl_fnaninf + 62
        0x00006b36:    d10e        ..      BNE      0x6b56 ; __fpl_fnaninf + 68
        0x00006b38:    ea4f7cd0    O..|    LSR      r12,r0,#31
        0x00006b3c:    eb0c0c4c    ..L.    ADD      r12,r12,r12,LSL #1
        0x00006b40:    f10c0c02    ....    ADD      r12,r12,#2
        0x00006b44:    f1b24f7f    ...O    CMP      r2,#0xff000000
        0x00006b48:    bf08        ..      IT       EQ
        0x00006b4a:    eb4c7cd1    L..|    ADCEQ    r12,r12,r1,LSR #31
        0x00006b4e:    e004        ..      B        0x6b5a ; __fpl_fnaninf + 72
        0x00006b50:    f04f0c08    O...    MOV      r12,#8
        0x00006b54:    e001        ..      B        0x6b5a ; __fpl_fnaninf + 72
        0x00006b56:    ea4f7cd1    O..|    LSR      r12,r1,#31
        0x00006b5a:    eb0c034c    ..L.    ADD      r3,r12,r12,LSL #1
        0x00006b5e:    fa24f403    $...    LSR      r4,r4,r3
        0x00006b62:    f0040407    ....    AND      r4,r4,#7
        0x00006b66:    f1b40c04    ....    SUBS     r12,r4,#4
        0x00006b6a:    d206        ..      BCS      0x6b7a ; __fpl_fnaninf + 104
        0x00006b6c:    eb0e0c84    ....    ADD      r12,lr,r4,LSL #2
        0x00006b70:    e8bd4010    ...@    POP      {r4,lr}
        0x00006b74:    f04c0c01    L...    ORR      r12,r12,#1
        0x00006b78:    4760        `G      BX       r12
        0x00006b7a:    e8dff00c    ....    TBB      [pc,r12]
    $d
        0x00006b7e:    0807        ..      DCW    2055
        0x00006b80:    0202        ..      DCW    514
    $t
        0x00006b82:    f04f4000    O..@    MOV      r0,#0x80000000
        0x00006b86:    f5a00080    ....    SUB      r0,r0,#0x400000
        0x00006b8a:    bd10        ..      POP      {r4,pc}
        0x00006b8c:    4608        .F      MOV      r0,r1
        0x00006b8e:    0042        B.      LSLS     r2,r0,#1
        0x00006b90:    bf18        ..      IT       NE
        0x00006b92:    f1d27280    ...r    RSBSNE   r2,r2,#0x1000000
        0x00006b96:    bf88        ..      IT       HI
        0x00006b98:    f0004000    ...@    ANDHI    r0,r0,#0x80000000
        0x00006b9c:    bd10        ..      POP      {r4,pc}
    x$fpl$fpinit
    $v0
    _fp_init
        0x00006b9e:    f04f7040    O.@p    MOV      r0,#0x3000000
        0x00006ba2:    eee10a10    ....    VMSR     FPSCR,r0
    __fplib_config_fpu_vfp
    __fplib_config_pureend_doubles
        0x00006ba6:    4770        pG      BX       lr
    x$fpl$fretinf
    $v0
    __fpl_fretinf
        0x00006ba8:    21ff        .!      MOVS     r1,#0xff
        0x00006baa:    ea4150d0    A..P    ORR      r0,r1,r0,LSR #23
        0x00006bae:    05c0        ..      LSLS     r0,r0,#23
        0x00006bb0:    4770        pG      BX       lr
    $d.realdata
    .constdata
    x$fpl$usenofp
    __I$use$fp
    am_hal_cachectrl_defaults
        0x00006bb2:    0001        ..      DCW    1
        0x00006bb4:    03005000    .P..    DCD    50352128
        0x00006bb8:    01010001    ....    DCD    16842753
        0x00006bbc:    00000001    ....    DCD    1
    .constdata
    C
        0x00006bc0:    5555554c    LUUU    DCD    1431655756
        0x00006bc4:    3fa55555    UU.?    DCD    1067799893
        0x00006bc8:    16c15177    wQ..    DCD    381768055
        0x00006bcc:    bf56c16c    l.V.    DCD    3210133868
        0x00006bd0:    19cb1590    ....    DCD    432739728
        0x00006bd4:    3efa01a0    ...>    DCD    1056571808
        0x00006bd8:    809c52ad    .R..    DCD    2157728429
        0x00006bdc:    be927e4f    O~..    DCD    3197271631
        0x00006be0:    bdb4b1c4    ....    DCD    3182735812
        0x00006be4:    3e21ee9e    ..!>    DCD    1042411166
        0x00006be8:    be8838d4    .8..    DCD    3196598484
        0x00006bec:    bda8fae9    ....    DCD    3181968105
    .constdata
    pio2s
        0x00006bf0:    54400000    ..@T    DCD    1413480448
        0x00006bf4:    3ff921fb    .!.?    DCD    1073291771
        0x00006bf8:    1a626331    1cb.    DCD    442655537
        0x00006bfc:    3dd0b461    a..=    DCD    1037087841
        0x00006c00:    1a600000    ..`.    DCD    442499072
        0x00006c04:    3dd0b461    a..=    DCD    1037087841
        0x00006c08:    2e037073    sp..    DCD    771977331
        0x00006c0c:    3ba3198a    ...;    DCD    1000544650
        0x00006c10:    2e000000    ....    DCD    771751936
        0x00006c14:    3ba3198a    ...;    DCD    1000544650
        0x00006c18:    252049c1    .I %    DCD    622873025
        0x00006c1c:    397b839a    ..{9    DCD    964395930
    twooverpi
        0x00006c20:    00000000    ....    DCD    0
        0x00006c24:    00000000    ....    DCD    0
        0x00006c28:    a2f9836e    n...    DCD    2734261102
        0x00006c2c:    4e441529    ).DN    DCD    1313084713
        0x00006c30:    fc2757d1    .W'.    DCD    4230436817
        0x00006c34:    f534ddc0    ..4.    DCD    4113882560
        0x00006c38:    db629599    ..b.    DCD    3680671129
        0x00006c3c:    3c439041    A.C<    DCD    1011060801
        0x00006c40:    fe5163ab    .cQ.    DCD    4266746795
        0x00006c44:    debbc561    a...    DCD    3736847713
        0x00006c48:    b7246e3a    :n$.    DCD    3072618042
        0x00006c4c:    424dd2e0    ..MB    DCD    1112396512
        0x00006c50:    06492eea    ..I.    DCD    105459434
        0x00006c54:    09d1921c    ....    DCD    164729372
        0x00006c58:    fe1deb1c    ....    DCD    4263373596
        0x00006c5c:    b129a73e    >.).    DCD    2972297022
        0x00006c60:    e88235f5    .5..    DCD    3900847605
        0x00006c64:    2ebb4484    .D..    DCD    784024708
        0x00006c68:    e99c7026    &p..    DCD    3919343654
        0x00006c6c:    b45f7e41    A~_.    DCD    3026157121
        0x00006c70:    3991d639    9..9    DCD    965858873
        0x00006c74:    835339f4    .9S.    DCD    2203269620
        0x00006c78:    9c845f8b    ._..    DCD    2625920907
        0x00006c7c:    bdf9283b    ;(..    DCD    3187222587
        0x00006c80:    1ff897ff    ....    DCD    536385535
        0x00006c84:    de05980f    ....    DCD    3724908559
        0x00006c88:    ef2f118b    ../.    DCD    4012839307
        0x00006c8c:    5a0a6d1f    .m.Z    DCD    1510632735
        0x00006c90:    6d367ecf    .~6m    DCD    1832287951
        0x00006c94:    27cb09b7    ...'    DCD    667617719
        0x00006c98:    4f463f66    f?FO    DCD    1330003814
        0x00006c9c:    9e5fea2d    -._.    DCD    2657085997
        0x00006ca0:    7527bac7    ..'u    DCD    1965537991
        0x00006ca4:    ebe5f17b    {...    DCD    3957715323
        0x00006ca8:    3d0739f7    .9.=    DCD    1023883767
        0x00006cac:    8a5292ea    ..R.    DCD    2320667370
        0x00006cb0:    6bfb5fb1    ._.k    DCD    1811636145
        0x00006cb4:    1f8d5d08    .]..    DCD    529358088
    .constdata
    S
        0x00006cb8:    1110f8a6    ....    DCD    286324902
        0x00006cbc:    3f811111    ...?    DCD    1065423121
        0x00006cc0:    19c161d5    .a..    DCD    432103893
        0x00006cc4:    bf2a01a0    ..*.    DCD    3207201184
        0x00006cc8:    57b1fe7d    }..W    DCD    1471282813
        0x00006ccc:    3ec71de3    ...>    DCD    1053236707
        0x00006cd0:    8a2b9ceb    ..+.    DCD    2318114027
        0x00006cd4:    be5ae5e6    ..Z.    DCD    3193628134
        0x00006cd8:    5acfd57c    |..Z    DCD    1523570044
        0x00006cdc:    3de5d93a    :..=    DCD    1038473530
    .L.str
        0x00006ce0:    0a206625    %f .    DCD    169895461
        0x00006ce4:    00000000    ....    DCD    0
    Region$$Table$$Base
        0x00006ce8:    00006d08    .m..    DCD    27912
        0x00006cec:    10000000    ....    DCD    268435456
        0x00006cf0:    00000070    p...    DCD    112
        0x00006cf4:    00000124    $...    DCD    292
        0x00006cf8:    00006d78    xm..    DCD    28024
        0x00006cfc:    10000070    p...    DCD    268435568
        0x00006d00:    00039168    h...    DCD    233832
        0x00006d04:    00000140    @...    DCD    320
    Region$$Table$$Limit

** Section #2 'SRAM' (SHT_PROGBITS) [SHF_ALLOC + SHF_WRITE]
    Size   : 112 bytes (alignment 8)
    Address: 0x10000000

    0x10000000:   00 00 00 00 4d 00 00 08 51 00 00 08 55 00 00 08    ....M...Q...U...
    0x10000010:   59 00 00 08 6d 00 00 08 71 00 00 08 7d 00 00 08    Y...m...q...}...
    0x10000020:   81 00 00 08 89 00 00 08 91 00 00 08 99 00 00 08    ................
    0x10000030:   75 00 00 08 79 00 00 08 9d 00 00 08 5d 00 00 08    u...y.......]...
    0x10000040:   61 00 00 08 65 00 00 08 69 00 00 08 85 00 00 08    a...e...i.......
    0x10000050:   8d 00 00 08 00 00 00 00 00 00 00 00 00 00 00 00    ................
    0x10000060:   00 00 00 00 00 00 00 00 00 00 00 00 00 00 00 00    ................


** Section #3 'SRAM' (SHT_NOBITS) [SHF_ALLOC + SHF_WRITE]
    Size   : 233832 bytes (alignment 8)
    Address: 0x10000070


** Section #4 '.debug_abbrev' (SHT_PROGBITS)
    Size   : 2277 bytes


** Section #5 '.debug_frame' (SHT_PROGBITS)
    Size   : 5588 bytes


** Section #6 '.debug_info' (SHT_PROGBITS)
    Size   : 11525 bytes


** Section #7 '.debug_line' (SHT_PROGBITS)
    Size   : 17078 bytes


** Section #8 '.debug_loc' (SHT_PROGBITS)
    Size   : 15442 bytes


** Section #9 '.debug_pubnames' (SHT_PROGBITS)
    Size   : 1379 bytes


** Section #10 '.debug_pubtypes' (SHT_PROGBITS)
    Size   : 901 bytes


** Section #11 '.debug_str' (SHT_PROGBITS)
    Size   : 4602 bytes


** Section #12 '.debug_ranges' (SHT_PROGBITS)
    Size   : 3448 bytes


** Section #13 '.symtab' (SHT_SYMTAB)
    Size   : 11744 bytes (alignment 4)
    String table #14 '.strtab'
    Last local symbol no. 476

    Symbol table .symtab (733 symbols, 476 local)

      #  Symbol Name                Value      Bind  Sec  Type  Vis  Size
    ========================================================================

      1  $d                         0x00000000   Lc    1   --   De 
      2  $t                         0x000000c0   Lc    1   --   De 
      3  $d                         0x000000e4   Lc    1   --   De 
      4  $t                         0x000000e8   Lc    1   --   De 
      5  $d                         0x0000011c   Lc    1   --   De 
      6  $t                         0x00000124   Lc    1   --   De 
      7  $d                         0x000001b2   Lc    1   --   De 
      8  $t                         0x000001c4   Lc    1   --   De 
      9  $d                         0x000004cc   Lc    1   --   De 
     10  $t                         0x000004d0   Lc    1   --   De 
     11  $d                         0x000005cc   Lc    1   --   De 
     12  $t                         0x000005d0   Lc    1   --   De 
     13  $d                         0x000005d4   Lc    1   --   De 
     14  $t                         0x000005d8   Lc    1   --   De 
     15  $d                         0x0000069a   Lc    1   --   De 
     16  $t                         0x000006d4   Lc    1   --   De 
     17  $d                         0x000006dc   Lc    1   --   De 
     18  $t                         0x000006e0   Lc    1   --   De 
     19  $t.2                       0x00000720   Lc    1   --   De 
     20  $d.3                       0x00000a68   Lc    1   --   De 
     21  $t.8                       0x00000a6c   Lc    1   --   De 
     22  $d.5                       0x00001550   Lc    1   --   De 
     23  $t.6                       0x00001560   Lc    1   --   De 
     24  $d.2                       0x00001ce0   Lc    1   --   De 
     25  $t.3                       0x00001cf0   Lc    1   --   De 
     26  $d.1                       0x00002890   Lc    1   --   De 
     27  $t.2                       0x000028a8   Lc    1   --   De 
     28  $d.3                       0x00002c10   Lc    1   --   De 
     29  $t.10                      0x00002c20   Lc    1   --   De 
     30  $d.11                      0x00002dc8   Lc    1   --   De 
     31  $t.0                       0x00002dd0   Lc    1   --   De 
     32  $d.10                      0x0000389c   Lc    1   --   De 
     33  $t.11                      0x000038b8   Lc    1   --   De 
     34  $d.12                      0x00003a78   Lc    1   --   De 
     35  $t.0                       0x00003a98   Lc    1   --   De 
     36  $d.9                       0x00003ba4   Lc    1   --   De 
     37  $t.3                       0x00003bb8   Lc    1   --   De 
     38  $d.4                       0x00003e28   Lc    1   --   De 
     39  $t.5                       0x00003e8e   Lc    1   --   De 
     40  $t                         0x00004dc0   Lc    1   --   De 
     41  $d                         0x00004ea4   Lc    1   --   De 
     42  $t                         0x00004eb8   Lc    1   --   De 
     43  $d                         0x00004f6c   Lc    1   --   De 
     44  $t                         0x00004f80   Lc    1   --   De 
     45  $d                         0x0000532a   Lc    1   --   De 
     46  $t                         0x000053b8   Lc    1   --   De 
     47  $d                         0x000054fa   Lc    1   --   De 
     48  $t                         0x00005528   Lc    1   --   De 
     49  $d                         0x00005738   Lc    1   --   De 
     50  $t                         0x00005750   Lc    1   --   De 
     51  $d                         0x00005780   Lc    1   --   De 
     52  $t                         0x00005788   Lc    1   --   De 
     53  $d                         0x000057a0   Lc    1   --   De 
     54  $t                         0x000057a8   Lc    1   --   De 
     55  $d                         0x000057fe   Lc    1   --   De 
     56  $t                         0x00005808   Lc    1   --   De 
     57  $d                         0x00005864   Lc    1   --   De 
     58  $t                         0x00005878   Lc    1   --   De 
     59  $d                         0x0000596c   Lc    1   --   De 
     60  $t                         0x00005970   Lc    1   --   De 
     61  $d                         0x000059a0   Lc    1   --   De 
     62  $t                         0x000059a8   Lc    1   --   De 
     63  $d                         0x000059c8   Lc    1   --   De 
     64  $t                         0x00005a14   Lc    1   --   De 
     65  $d                         0x00005a38   Lc    1   --   De 
     66  $t                         0x00005a3c   Lc    1   --   De 
     67  $d                         0x00005aac   Lc    1   --   De 
     68  $t                         0x00005ab8   Lc    1   --   De 
     69  $d                         0x00005ae2   Lc    1   --   De 
     70  $t                         0x00005ae8   Lc    1   --   De 
     71  $d                         0x00005af2   Lc    1   --   De 
     72  $t                         0x00005af8   Lc    1   --   De 
     73  $d                         0x00005b30   Lc    1   --   De 
     74  $t                         0x00005b50   Lc    1   --   De 
     75  $d                         0x00005b62   Lc    1   --   De 
     76  $t                         0x00005b68   Lc    1   --   De 
     77  $d                         0x00005bcc   Lc    1   --   De 
     78  $t                         0x00005bd0   Lc    1   --   De 
     79  $d                         0x00005c14   Lc    1   --   De 
     80  $t                         0x00005c1c   Lc    1   --   De 
     81  $d                         0x00005c4a   Lc    1   --   De 
     82  $t                         0x00005c50   Lc    1   --   De 
     83  $d                         0x00005c8c   Lc    1   --   De 
     84  $t                         0x00005c90   Lc    1   --   De 
     85  $d                         0x00005ca4   Lc    1   --   De 
     86  $t                         0x00005ca8   Lc    1   --   De 
     87  $d                         0x00005e1c   Lc    1   --   De 
     88  $t                         0x00005e28   Lc    1   --   De 
     89  $d                         0x00005e86   Lc    1   --   De 
     90  $t                         0x00005e90   Lc    1   --   De 
     91  $d                         0x00005e98   Lc    1   --   De 
     92  $t                         0x00005e9c   Lc    1   --   De 
     93  $d                         0x00005f76   Lc    1   --   De 
     94  $t                         0x00005f88   Lc    1   --   De 
     95  $d                         0x00005f92   Lc    1   --   De 
     96  $t                         0x00005f98   Lc    1   --   De 
     97  $d                         0x0000600c   Lc    1   --   De 
     98  $t                         0x00006020   Lc    1   --   De 
     99  $d                         0x00006028   Lc    1   --   De 
    100  $t                         0x0000602c   Lc    1   --   De 
    101  $d                         0x000060b4   Lc    1   --   De 
    102  $t                         0x000060bc   Lc    1   --   De 
    103  $d                         0x00006124   Lc    1   --   De 
    104  $t                         0x00006128   Lc    1   --   De 
    105  $d                         0x00006280   Lc    1   --   De 
    106  $t                         0x00006288   Lc    1   --   De 
    107  $d                         0x00006484   Lc    1   --   De 
    108  $t                         0x00006488   Lc    1   --   De 
    109  $d                         0x000064b0   Lc    1   --   De 
    110  $t                         0x00006538   Lc    1   --   De 
    111  $d                         0x0000658c   Lc    1   --   De 
    112  $t                         0x00006590   Lc    1   --   De 
    113  $d                         0x000065e8   Lc    1   --   De 
    114  $t                         0x000065ec   Lc    1   --   De 
    115  $d                         0x000067f0   Lc    1   --   De 
    116  $t                         0x000067f4   Lc    1   --   De 
    117  $d                         0x00006820   Lc    1   --   De 
    118  $t                         0x00006828   Lc    1   --   De 
    119  $d                         0x00006898   Lc    1   --   De 
    120  $t                         0x0000689c   Lc    1   --   De 
    121  $d                         0x00006aac   Lc    1   --   De 
    122  $t                         0x00006ab0   Lc    1   --   De 
    123  $d                         0x00006ab8   Lc    1   --   De 
    124  $t                         0x00006abc   Lc    1   --   De 
    125  $d                         0x00006af8   Lc    1   --   De 
    126  $t                         0x00006afc   Lc    1   --   De 
    127  $d                         0x00006b7e   Lc    1   --   De 
    128  $t                         0x00006b82   Lc    1   --   De 
    129  $d.realdata                0x00006bb2   Lc    1   --   De 
    130  $d.realdata                0x10000000   Lc    2   --   De 
    131  testprojekt.c              0x00000000   Lc  Abs  File  De 
    132  BlackmanNuttall.c          0x00000000   Lc  Abs  File  De 
    133  CyclicShift.c              0x00000000   Lc  Abs  File  De 
    134  FFT.c                      0x00000000   Lc  Abs  File  De 
    135  Hanning.c                  0x00000000   Lc  Abs  File  De 
    136  Lowpass.c                  0x00000000   Lc  Abs  File  De 
    137  Utils.c                    0x00000000   Lc  Abs  File  De 
    138  __arm_cp.8_8               0x000038a0   Lc    1   --   De   0x4
    139  .L.str                     0x00006ce0   Lc    1  Data  De   0x5
    140  am_util_delay.c            0x00000000   Lc  Abs  File  De 
    141  am_util_faultisr.c         0x00000000   Lc  Abs  File  De 
    142  am_util_id.c               0x00000000   Lc  Abs  File  De 
    143  am_util_stdio.c            0x00000000   Lc  Abs  File  De 
    144  g_bTxtXlate                0x100000d0   Lc    3  Data  De   0x1
    145  g_prfbuf                   0x100000d8   Lc    3  Data  De   0x100
    146  startup_keil.s             0x00000000   Lc  Abs  File  De 
    147  STACK                      0x100341d8   Lc    3  Sect  De   0x5000
    148  StackMem                   0x100341d8   Lc    3  Data  De 
    149  HEAP                       0x100001d8   Lc    3  Sect  De   0x34000
    150  HeapMem                    0x100001d8   Lc    3  Data  De 
    151  RESET                      0x00000000   Lc    1  Sect  De   0xe8
    152  $v0                        0x000000c0   Lc    1   --   De 
    153  .text                      0x000001a8   Lc    1  Sect  De   0x1c
    154  $v0                        0x000001a8   Lc    1   --   De 
    155  ../am_hal_global.c         0x00000000   Lc  Abs  File  De 
    156  .data                      0x10000000   Lc    2  Sect  De   0x4
    157  ../am_bsp.c                0x00000000   Lc  Abs  File  De 
    158  i.am_bsp_debug_printf_disable
                                    0x000057a8   Lc    1  Sect  De 
    159  i.am_bsp_debug_printf_enable
                                    0x00005808   Lc    1  Sect  De 
    160  i.am_bsp_itm_string_print  0x00005878   Lc    1  Sect  De 
    161  i.am_bsp_low_power_init    0x0000587c   Lc    1  Sect  De 
    162  ../am_hal_cachectrl.c      0x00000000   Lc  Abs  File  De 
    163  i.am_hal_cachectrl_enable  0x000058a0   Lc    1  Sect  De 
    164  .constdata                 0x00006bb2   Lc    1  Sect  De   0xc
    165  ../am_hal_clkgen.c         0x00000000   Lc  Abs  File  De 
    166  i.am_hal_clkgen_osc_stop   0x00005970   Lc    1  Sect  De 
    167  i.am_hal_clkgen_sysclk_get 0x00005984   Lc    1  Sect  De 
    168  i.am_hal_clkgen_sysclk_select
                                    0x000059a8   Lc    1  Sect  De 
    169  ../am_hal_flash.c          0x00000000   Lc  Abs  File  De 
    170  i.am_hal_flash_delay       0x00005aec   Lc    1  Sect  De 
    171  .data                      0x10000004   Lc    2  Sect  De   0x50
    172  ../am_hal_itm.c            0x00000000   Lc  Abs  File  De 
    173  i.am_hal_itm_enable        0x00005af8   Lc    1  Sect  De 
    174  i.am_hal_itm_not_busy      0x00005b50   Lc    1  Sect  De 
    175  i.am_hal_itm_print         0x00005b68   Lc    1  Sect  De 
    176  ../am_hal_mcuctrl.c        0x00000000   Lc  Abs  File  De 
    177  i.am_hal_mcuctrl_fault_status
                                    0x00005b98   Lc    1  Sect  De 
    178  ../am_hal_stimer.c         0x00000000   Lc  Abs  File  De 
    179  i.am_hal_stimer_config     0x00005e4c   Lc    1  Sect  De 
    180  i.am_hal_stimer_counter_get
                                    0x00005e90   Lc    1  Sect  De 
    181  ../am_hal_sysctrl.c        0x00000000   Lc  Abs  File  De 
    182  i.am_hal_sysctrl_sleep     0x00005e9c   Lc    1  Sect  De 
    183  i.setBuckZX                0x00006044   Lc    1  Sect  De 
    184  setBuckZX                  0x00006045   Lc    1  Code  De   0x70
    185  .data                      0x10000054   Lc    2  Sect  De   0x1c
    186  g_bBuckRestoreComplete     0x10000054   Lc    2  Data  De   0x1
    187  g_ui32BuckTimer            0x10000058   Lc    2  Data  De   0x4
    188  g_ui32BuckInputs           0x1000005c   Lc    2  Data  De   0x4
    189  g_buckZX_chk               0x10000060   Lc    2  Data  De   0x4
    190  g_ui32SaveCoreBuckZX       0x10000064   Lc    2  Data  De   0x4
    191  g_ui32SaveMemBuckZX        0x10000068   Lc    2  Data  De   0x4
    192  g_ui32CoreBuck             0x1000006c   Lc    2  Data  De   0x4
    193  ..\am_hal_ctimer.c         0x00000000   Lc  Abs  File  De 
    194  ../am_hal_ctimer.c         0x00000000   Lc  Abs  File  De 
    195  i.am_hal_ctimer_clear      0x00005a14   Lc    1  Sect  De 
    196  i.am_hal_ctimer_period_set 0x00005a3c   Lc    1  Sect  De 
    197  i.am_hal_ctimer_start      0x00005ab8   Lc    1  Sect  De 
    198  ../am_hal_debug.c          0x00000000   Lc  Abs  File  De 
    199  i.am_hal_debug_error       0x00005ae8   Lc    1  Sect  De 
    200  ../am_hal_gpio.c           0x00000000   Lc  Abs  File  De 
    201  ..\am_hal_interrupt.c      0x00000000   Lc  Abs  File  De 
    202  .emb_text                  0x00000190   Lc    1  Sect  De   0x16
    203  $v0                        0x00000190   Lc    1   --   De 
    204  ../am_hal_interrupt.c      0x00000000   Lc  Abs  File  De 
    205  ..\am_hal_iom.c            0x00000000   Lc  Abs  File  De 
    206  ../am_hal_iom.c            0x00000000   Lc  Abs  File  De 
    207  ../am_hal_pwrctrl.c        0x00000000   Lc  Abs  File  De 
    208  i.am_hal_pwrctrl_bucks_disable
                                    0x00005bd0   Lc    1  Sect  De 
    209  i.am_hal_pwrctrl_bucks_enable
                                    0x00005c1c   Lc    1  Sect  De 
    210  i.am_hal_pwrctrl_bucks_init
                                    0x00005c50   Lc    1  Sect  De 
    211  i.am_hal_pwrctrl_low_power_init
                                    0x00005c90   Lc    1  Sect  De 
    212  i.am_hal_pwrctrl_memory_enable
                                    0x00005ca8   Lc    1  Sect  De 
    213  ../am_hal_rtc.c            0x00000000   Lc  Abs  File  De 
    214  i.am_hal_rtc_osc_disable   0x00005e28   Lc    1  Sect  De 
    215  i.am_hal_rtc_osc_select    0x00005e36   Lc    1  Sect  De 
    216  ../am_hal_tpiu.c           0x00000000   Lc  Abs  File  De 
    217  i.am_hal_tpiu_disable      0x00005f88   Lc    1  Sect  De 
    218  i.am_hal_tpiu_enable       0x00005f98   Lc    1  Sect  De 
    219  ../am_hal_uart.c           0x00000000   Lc  Abs  File  De 
    220  ../am_hal_vcomp.c          0x00000000   Lc  Abs  File  De 
    221  i.am_hal_vcomp_disable     0x00006020   Lc    1  Sect  De 
    222  ../am_hal_i2c_bit_bang.c   0x00000000   Lc  Abs  File  De 
    223  ../am_hal_queue.c          0x00000000   Lc  Abs  File  De 
    224  dc.s                       0x00000000   Lc  Abs  File  De 
    225  ../clib/heapalloc.c        0x00000000   Lc  Abs  File  De 
    226  ../clib/heapalloc.c        0x00000000   Lc  Abs  File  De 
    227  ../clib/heapalloc.c        0x00000000   Lc  Abs  File  De 
    228  .text                      0x000001c4   Lc    1  Sect  De 
    229  ../clib/heap1.c            0x00000000   Lc  Abs  File  De 
    230  .text                      0x000001ec   Lc    1  Sect  De 
    231  ../clib/heap1.c            0x00000000   Lc  Abs  File  De 
    232  .text                      0x0000024a   Lc    1  Sect  De 
    233  ../clib/heap1.c            0x00000000   Lc  Abs  File  De 
    234  ../clib/heap1.c            0x00000000   Lc  Abs  File  De 
    235  ../clib/heap2.c            0x00000000   Lc  Abs  File  De 
    236  ../clib/heap2.c            0x00000000   Lc  Abs  File  De 
    237  ../clib/longlong.s         0x00000000   Lc  Abs  File  De 
    238  .text                      0x00000298   Lc    1  Sect  De   0xee
    239  ../clib/longlong.s         0x00000000   Lc  Abs  File  De 
    240  ../clib/memcpset.s         0x00000000   Lc  Abs  File  De 
    241  .text                      0x00000386   Lc    1  Sect  De   0x8a
    242  ../clib/memcpset.s         0x00000000   Lc  Abs  File  De 
    243  .text                      0x00000410   Lc    1  Sect  De   0x64
    244  ../clib/memcpset.s         0x00000000   Lc  Abs  File  De 
    245  .text                      0x00000474   Lc    1  Sect  De   0x4e
    246  ../clib/heapaux.c          0x00000000   Lc  Abs  File  De 
    247  .text                      0x000004c2   Lc    1  Sect  De 
    248  ../clib/angel/startup.s    0x00000000   Lc  Abs  File  De 
    249  !!!main                    0x000000e8   Lc    1  Sect  De   0x8
    250  ../fplib/d2f.s             0x00000000   Lc  Abs  File  De 
    251  x$fpl$d2f                  0x000060d4   Lc    1  Sect  De   0x62
    252  $v0                        0x000060d4   Lc    1   --   De 
    253  ../fplib/daddsub.s         0x00000000   Lc  Abs  File  De 
    254  x$fpl$dadd                 0x00006138   Lc    1  Sect  De   0x150
    255  $v0                        0x00006138   Lc    1   --   De 
    256  _dadd1                     0x00006149   Lc    1  Code  De 
    257  x$fpl$drsb                 0x000068d0   Lc    1  Sect  De   0x16
    258  $v0                        0x000068d0   Lc    1   --   De 
    259  x$fpl$dsub                 0x000068e8   Lc    1  Sect  De   0x1d4
    260  $v0                        0x000068e8   Lc    1   --   De 
    261  _dsub1                     0x000068f9   Lc    1  Code  De 
    262  ../fplib/ddiv.s            0x00000000   Lc  Abs  File  De 
    263  x$fpl$ddiv                 0x00006288   Lc    1  Sect  De   0x2b0
    264  $v0                        0x00006288   Lc    1   --   De 
    265  ddiv_entry                 0x0000628f   Lc    1  Code  De 
    266  ../fplib/dfixu.s           0x00000000   Lc  Abs  File  De 
    267  x$fpl$dfixu                0x00006598   Lc    1  Sect  De   0x5a
    268  $v0                        0x00006598   Lc    1   --   De 
    269  ../fplib/dflt.s            0x00000000   Lc  Abs  File  De 
    270  x$fpl$dfltu                0x00006620   Lc    1  Sect  De   0x26
    271  $v0                        0x00006620   Lc    1   --   De 
    272  x$fpl$dflt                 0x000065f2   Lc    1  Sect  De   0x2e
    273  $v0                        0x000065f2   Lc    1   --   De 
    274  ../fplib/dfltll.s          0x00000000   Lc  Abs  File  De 
    275  x$fpl$dfltull              0x00006648   Lc    1  Sect  De   0x8a
    276  $v0                        0x00006648   Lc    1   --   De 
    277  ../fplib/dmul.s            0x00000000   Lc  Abs  File  De 
    278  x$fpl$dmul                 0x000066d4   Lc    1  Sect  De   0x154
    279  $v0                        0x000066d4   Lc    1   --   De 
    280  ../fplib/f2d.s             0x00000000   Lc  Abs  File  De 
    281  x$fpl$f2d                  0x00006abc   Lc    1  Sect  De   0x56
    282  $v0                        0x00006abc   Lc    1   --   De 
    283  ../mathlib/cos.c           0x00000000   Lc  Abs  File  De 
    284  i.__hardfp_cos             0x00004df0   Lc    1  Sect  De 
    285  ../mathlib/cos.c           0x00000000   Lc  Abs  File  De 
    286  ../mathlib/sin.c           0x00000000   Lc  Abs  File  De 
    287  i.__hardfp_sin             0x00004eb8   Lc    1  Sect  De 
    288  ../mathlib/sin.c           0x00000000   Lc  Abs  File  De 
    289  ../clib/angel/sys.s        0x00000000   Lc  Abs  File  De 
    290  ../clib/angel/kernel.s     0x00000000   Lc  Abs  File  De 
    291  .ARM.Collect$$rtentry$$00000000
                                    0x00000170   Lc    1  Sect  De 
    292  ../clib/angel/rt.s         0x00000000   Lc  Abs  File  De 
    293  ../clib/angel/rt.s         0x00000000   Lc  Abs  File  De 
    294  ../clib/angel/rt.s         0x00000000   Lc  Abs  File  De 
    295  ../clib/angel/rt.s         0x00000000   Lc  Abs  File  De 
    296  .text                      0x000004c8   Lc    1  Sect  De   0x8
    297  ../clib/heapalloc.c        0x00000000   Lc  Abs  File  De 
    298  .text                      0x000004d0   Lc    1  Sect  De 
    299  ../clib/heapalloc.c        0x00000000   Lc  Abs  File  De 
    300  .text                      0x000004d4   Lc    1  Sect  De 
    301  ../clib/heapalloc.c        0x00000000   Lc  Abs  File  De 
    302  ../clib/heap1.c            0x00000000   Lc  Abs  File  De 
    303  .text                      0x0000055e   Lc    1  Sect  De 
    304  ../clib/heap1.c            0x00000000   Lc  Abs  File  De 
    305  ../clib/heap2.c            0x00000000   Lc  Abs  File  De 
    306  ../clib/fenv.c             0x00000000   Lc  Abs  File  De 
    307  .text                      0x0000056c   Lc    1  Sect  De 
    308  ../clib/memcpset.s         0x00000000   Lc  Abs  File  De 
    309  .text                      0x00000582   Lc    1  Sect  De   0x44
    310  ../clib/armsys.c           0x00000000   Lc  Abs  File  De 
    311  ../clib/libinit.s          0x00000000   Lc  Abs  File  De 
    312  .ARM.Collect$$libinit$$00000001
                                    0x0000015e   Lc    1  Sect  De   0x4
    313  .ARM.Collect$$libinit$$00000004
                                    0x00000162   Lc    1  Sect  De 
    314  .ARM.Collect$$libinit$$00000005
                                    0x00000162   Lc    1  Sect  De   0x8
    315  .ARM.Collect$$libinit$$0000000A
                                    0x0000016a   Lc    1  Sect  De 
    316  .ARM.Collect$$libinit$$0000000C
                                    0x0000016a   Lc    1  Sect  De 
    317  .ARM.Collect$$libinit$$0000000E
                                    0x0000016a   Lc    1  Sect  De 
    318  .ARM.Collect$$libinit$$00000011
                                    0x0000016a   Lc    1  Sect  De 
    319  .ARM.Collect$$libinit$$00000013
                                    0x0000016a   Lc    1  Sect  De 
    320  .ARM.Collect$$libinit$$00000015
                                    0x0000016a   Lc    1  Sect  De 
    321  .ARM.Collect$$libinit$$00000017
                                    0x0000016a   Lc    1  Sect  De 
    322  .ARM.Collect$$libinit$$00000019
                                    0x0000016a   Lc    1  Sect  De 
    323  .ARM.Collect$$libinit$$0000001B
                                    0x0000016a   Lc    1  Sect  De 
    324  .ARM.Collect$$libinit$$0000001D
                                    0x0000016a   Lc    1  Sect  De 
    325  .ARM.Collect$$libinit$$0000001F
                                    0x0000016a   Lc    1  Sect  De 
    326  .ARM.Collect$$libinit$$00000021
                                    0x0000016a   Lc    1  Sect  De 
    327  .ARM.Collect$$libinit$$00000023
                                    0x0000016a   Lc    1  Sect  De 
    328  .ARM.Collect$$libinit$$00000025
                                    0x0000016a   Lc    1  Sect  De 
    329  .ARM.Collect$$libinit$$0000002C
                                    0x0000016a   Lc    1  Sect  De 
    330  .ARM.Collect$$libinit$$0000002E
                                    0x0000016a   Lc    1  Sect  De 
    331  .ARM.Collect$$libinit$$00000030
                                    0x0000016a   Lc    1  Sect  De 
    332  .ARM.Collect$$libinit$$00000032
                                    0x0000016a   Lc    1  Sect  De 
    333  .ARM.Collect$$libinit$$00000033
                                    0x0000016a   Lc    1  Sect  De   0x2
    334  ../fplib/basic.s           0x00000000   Lc  Abs  File  De 
    335  x$fpl$basic                0x000060bc   Lc    1  Sect  De   0x18
    336  $v0                        0x000060bc   Lc    1   --   De 
    337  ../fplib/dnaninf.s         0x00000000   Lc  Abs  File  De 
    338  x$fpl$dnaninf              0x00006828   Lc    1  Sect  De   0x9c
    339  $v0                        0x00006828   Lc    1   --   De 
    340  ../fplib/dretinf.s         0x00000000   Lc  Abs  File  De 
    341  x$fpl$dretinf              0x000068c4   Lc    1  Sect  De   0xc
    342  $v0                        0x000068c4   Lc    1   --   De 
    343  ../fplib/fnaninf.s         0x00000000   Lc  Abs  File  De 
    344  x$fpl$fnaninf              0x00006b12   Lc    1  Sect  De   0x8c
    345  $v0                        0x00006b12   Lc    1   --   De 
    346  ../fplib/fretinf.s         0x00000000   Lc  Abs  File  De 
    347  x$fpl$fretinf              0x00006ba8   Lc    1  Sect  De   0xa
    348  $v0                        0x00006ba8   Lc    1   --   De 
    349  ../fplib/usenofp.s         0x00000000   Lc  Abs  File  De 
    350  x$fpl$usenofp              0x00006bb2   Lc    1  Sect  De 
    351  ../mathlib/cos_i.c         0x00000000   Lc  Abs  File  De 
    352  i.__kernel_cos             0x000053b8   Lc    1  Sect  De 
    353  .constdata                 0x00006bc0   Lc    1  Sect  De   0x30
    354  C                          0x00006bc0   Lc    1  Data  De   0x30
    355  ../mathlib/dunder.c        0x00000000   Lc  Abs  File  De 
    356  i.__mathlib_dbl_infnan     0x00005750   Lc    1  Sect  De 
    357  i.__mathlib_dbl_invalid    0x00005768   Lc    1  Sect  De 
    358  i.__mathlib_dbl_underflow  0x00005788   Lc    1  Sect  De 
    359  ../mathlib/rred.c          0x00000000   Lc  Abs  File  De 
    360  i.__ieee754_rem_pio2       0x00004f80   Lc    1  Sect  De 
    361  .constdata                 0x00006bf0   Lc    1  Sect  De   0xc8
    362  pio2s                      0x00006bf0   Lc    1  Data  De   0x30
    363  twooverpi                  0x00006c20   Lc    1  Data  De   0x98
    364  ../mathlib/sin_i.c         0x00000000   Lc  Abs  File  De 
    365  i.__kernel_sin             0x00005620   Lc    1  Sect  De 
    366  .constdata                 0x00006cb8   Lc    1  Sect  De   0x28
    367  S                          0x00006cb8   Lc    1  Data  De   0x28
    368  ../mathlib/sin_i.c         0x00000000   Lc  Abs  File  De 
    369  ../clib/angel/sysapp.c     0x00000000   Lc  Abs  File  De 
    370  ../clib/angel/sysapp.c     0x00000000   Lc  Abs  File  De 
    371  ../clib/angel/sys.s        0x00000000   Lc  Abs  File  De 
    372  .text                      0x000005c8   Lc    1  Sect  De   0x8
    373  .bss                       0x10000070   Lc    3  Sect  De   0x60
    374  ../clib/angel/kernel.s     0x00000000   Lc  Abs  File  De 
    375  .ARM.Collect$$rtentry$$00000002
                                    0x00000170   Lc    1  Sect  De 
    376  .ARM.Collect$$rtentry$$00000009
                                    0x00000176   Lc    1  Sect  De 
    377  .ARM.Collect$$rtentry$$0000000A
                                    0x00000176   Lc    1  Sect  De   0x4
    378  .ARM.Collect$$rtentry$$0000000C
                                    0x0000017a   Lc    1  Sect  De 
    379  .ARM.Collect$$rtentry$$0000000D
                                    0x0000017a   Lc    1  Sect  De   0x8
    380  ../clib/angel/kernel.s     0x00000000   Lc  Abs  File  De 
    381  .ARM.Collect$$rtentry$$00000004
                                    0x00000170   Lc    1  Sect  De   0x6
    382  ../clib/angel/rt.s         0x00000000   Lc  Abs  File  De 
    383  ../clib/angel/rt.s         0x00000000   Lc  Abs  File  De 
    384  ../clib/angel/rt.s         0x00000000   Lc  Abs  File  De 
    385  .text                      0x000005d0   Lc    1  Sect  De   0x8
    386  ../clib/heapalloc.c        0x00000000   Lc  Abs  File  De 
    387  ../clib/maybe.s            0x00000000   Lc  Abs  File  De 
    388  .text                      0x000005d8   Lc    1  Sect  De 
    389  ../clib/maybe.s            0x00000000   Lc  Abs  File  De 
    390  ../clib/heap1.c            0x00000000   Lc  Abs  File  De 
    391  .text                      0x000005d8   Lc    1  Sect  De 
    392  ../clib/heap1.c            0x00000000   Lc  Abs  File  De 
    393  ../clib/signal.c           0x00000000   Lc  Abs  File  De 
    394  .text                      0x0000060c   Lc    1  Sect  De 
    395  ../clib/signal.c           0x00000000   Lc  Abs  File  De 
    396  ../clib/heapaux.c          0x00000000   Lc  Abs  File  De 
    397  ../clib/armsys.c           0x00000000   Lc  Abs  File  De 
    398  ../clib/armsys.c           0x00000000   Lc  Abs  File  De 
    399  ../fplib/dfix.s            0x00000000   Lc  Abs  File  De 
    400  x$fpl$dfix                 0x00006538   Lc    1  Sect  De   0x5e
    401  $v0                        0x00006538   Lc    1   --   De 
    402  ../fplib/fpinit.s          0x00000000   Lc  Abs  File  De 
    403  x$fpl$fpinit               0x00006b9e   Lc    1  Sect  De   0xa
    404  $v0                        0x00006b9e   Lc    1   --   De 
    405  ../mathlib/fabs.c          0x00000000   Lc  Abs  File  De 
    406  i.fabs                     0x0000602c   Lc    1  Sect  De 
    407  ../mathlib/fpclassify.c    0x00000000   Lc  Abs  File  De 
    408  i.__ARM_fpclassify         0x00004dc0   Lc    1  Sect  De 
    409  ../mathlib/poly.c          0x00000000   Lc  Abs  File  De 
    410  i.__kernel_poly            0x00005528   Lc    1  Sect  De 
    411  ../clib/angel/sys.s        0x00000000   Lc  Abs  File  De 
    412  .text                      0x0000061a   Lc    1  Sect  De   0x2
    413  ../clib/angel/sys.s        0x00000000   Lc  Abs  File  De 
    414  .text                      0x0000061c   Lc    1  Sect  De 
    415  ../clib/angel/sys.s        0x00000000   Lc  Abs  File  De 
    416  .text                      0x0000061c   Lc    1  Sect  De   0x4a
    417  ../clib/angel/rt.s         0x00000000   Lc  Abs  File  De 
    418  ../clib/heapalloc.c        0x00000000   Lc  Abs  File  De 
    419  ../clib/stdlib.c           0x00000000   Lc  Abs  File  De 
    420  .text                      0x00000666   Lc    1  Sect  De 
    421  ../clib/signal.c           0x00000000   Lc  Abs  File  De 
    422  .text                      0x00000678   Lc    1  Sect  De 
    423  ../clib/signal.c           0x00000000   Lc  Abs  File  De 
    424  ../clib/signal.c           0x00000000   Lc  Abs  File  De 
    425  ../clib/signal.c           0x00000000   Lc  Abs  File  De 
    426  .text                      0x00000684   Lc    1  Sect  De 
    427  ../clib/angel/boardlib.s   0x00000000   Lc  Abs  File  De 
    428  ../clib/angel/boardlib.s   0x00000000   Lc  Abs  File  De 
    429  ../clib/angel/boardlib.s   0x00000000   Lc  Abs  File  De 
    430  ../clib/armsys.c           0x00000000   Lc  Abs  File  De 
    431  ../clib/armsys.c           0x00000000   Lc  Abs  File  De 
    432  ../clib/libinit.s          0x00000000   Lc  Abs  File  De 
    433  .ARM.Collect$$libinit$$00000000
                                    0x0000015c   Lc    1  Sect  De   0x2
    434  ../clib/angel/sysapp.c     0x00000000   Lc  Abs  File  De 
    435  .text                      0x000006d4   Lc    1  Sect  De 
    436  ../clib/angel/sysapp.c     0x00000000   Lc  Abs  File  De 
    437  ../clib/angel/kernel.s     0x00000000   Lc  Abs  File  De 
    438  .ARM.Collect$$rtexit$$00000000
                                    0x00000182   Lc    1  Sect  De   0x2
    439  ../clib/heap1.c            0x00000000   Lc  Abs  File  De 
    440  ../clib/heap1.c            0x00000000   Lc  Abs  File  De 
    441  ../clib/signal.c           0x00000000   Lc  Abs  File  De 
    442  ../clib/signal.c           0x00000000   Lc  Abs  File  De 
    443  .text                      0x000006e0   Lc    1  Sect  De 
    444  ../clib/signal.c           0x00000000   Lc  Abs  File  De 
    445  ../clib/libinit.s          0x00000000   Lc  Abs  File  De 
    446  .ARM.Collect$$libshutdown$$00000002
                                    0x0000016e   Lc    1  Sect  De 
    447  .ARM.Collect$$libshutdown$$00000004
                                    0x0000016e   Lc    1  Sect  De 
    448  .ARM.Collect$$libshutdown$$00000007
                                    0x0000016e   Lc    1  Sect  De 
    449  .ARM.Collect$$libshutdown$$0000000A
                                    0x0000016e   Lc    1  Sect  De 
    450  .ARM.Collect$$libshutdown$$0000000C
                                    0x0000016e   Lc    1  Sect  De 
    451  .ARM.Collect$$libshutdown$$0000000F
                                    0x0000016e   Lc    1  Sect  De 
    452  .ARM.Collect$$libshutdown$$00000010
                                    0x0000016e   Lc    1  Sect  De   0x2
    453  ../clib/angel/sysapp.c     0x00000000   Lc  Abs  File  De 
    454  .text                      0x00000712   Lc    1  Sect  De 
    455  ../clib/angel/sysapp.c     0x00000000   Lc  Abs  File  De 
    456  ../clib/angel/kernel.s     0x00000000   Lc  Abs  File  De 
    457  .ARM.Collect$$rtexit$$00000002
                                    0x00000184   Lc    1  Sect  De 
    458  .ARM.Collect$$rtexit$$00000003
                                    0x00000184   Lc    1  Sect  De   0x4
    459  .ARM.Collect$$rtexit$$00000004
                                    0x00000188   Lc    1  Sect  De   0x6
    460  ../clib/signal.s           0x00000000   Lc  Abs  File  De 
    461  ../clib/signal.c           0x00000000   Lc  Abs  File  De 
    462  ../clib/signal.c           0x00000000   Lc  Abs  File  De 
    463  ../clib/signal.c           0x00000000   Lc  Abs  File  De 
    464  ../clib/signal.c           0x00000000   Lc  Abs  File  De 
    465  ../clib/signal.c           0x00000000   Lc  Abs  File  De 
    466  ../clib/signal.c           0x00000000   Lc  Abs  File  De 
    467  ../clib/signal.c           0x00000000   Lc  Abs  File  De 
    468  ../clib/angel/boardlib.s   0x00000000   Lc  Abs  File  De 
    469  ../clib/libinit.s          0x00000000   Lc  Abs  File  De 
    470  .ARM.Collect$$libshutdown$$00000000
                                    0x0000016c   Lc    1  Sect  De   0x2
    471  ../clib/angel/scatter.s    0x00000000   Lc  Abs  File  De 
    472  !!!scatter                 0x000000f0   Lc    1  Sect  De   0x34
    473  ../clib/angel/handlers.s   0x00000000   Lc  Abs  File  De 
    474  !!handler_copy             0x00000124   Lc    1  Sect  De   0x1a
    475  ../clib/angel/handlers.s   0x00000000   Lc  Abs  File  De 
    476  !!handler_zi               0x00000140   Lc    1  Sect  De   0x1c
    477  BuildAttributes$$THM_ISAv4$E$P$D$K$B$S$7EM$VFPi3$EXTD16$VFPS$VFMA$PE$A:L22UL41UL21$X:L11$S22US41US21$IEEE1$IW$~IW$USESV6$~STKCKD$USESV7$~SHL$OTIME$ROPI$IEEEX$EBA8$UX$STANDARDLIB$REQ8$EABIv2
                                    0x00000000   Gb  Abs   --   Hi 
    478  __Vectors                  0x00000000   Gb    1  Data  Hi 
    479  Reset_Handler              0x000000c1   Wk    1  Code  Hi   0x1c
    480  am_nmi_isr                 0x000000dd   Wk    1  Code  Hi   0x2
    481  am_memmanage_isr           0x000000e1   Wk    1  Code  Hi   0x2
    482  am_adc_isr                 0x000000e3   Wk    1  Code  Hi 
    483  am_brownout_isr            0x000000e3   Wk    1  Code  Hi 
    484  am_clkgen_isr              0x000000e3   Wk    1  Code  Hi 
    485  am_ctimer_isr              0x000000e3   Wk    1  Code  Hi 
    486  am_debugmon_isr            0x000000e3   Wk    1  Code  Hi 
    487  am_flash_isr               0x000000e3   Wk    1  Code  Hi 
    488  am_gpio_isr                0x000000e3   Wk    1  Code  Hi 
    489  am_iomaster0_isr           0x000000e3   Wk    1  Code  Hi 
    490  am_iomaster1_isr           0x000000e3   Wk    1  Code  Hi 
    491  am_iomaster2_isr           0x000000e3   Wk    1  Code  Hi 
    492  am_iomaster3_isr           0x000000e3   Wk    1  Code  Hi 
    493  am_iomaster4_isr           0x000000e3   Wk    1  Code  Hi 
    494  am_iomaster5_isr           0x000000e3   Wk    1  Code  Hi 
    495  am_ioslave_acc_isr         0x000000e3   Wk    1  Code  Hi 
    496  am_ioslave_ios_isr         0x000000e3   Wk    1  Code  Hi 
    497  am_pdm_isr                 0x000000e3   Wk    1  Code  Hi 
    498  am_pendsv_isr              0x000000e3   Wk    1  Code  Hi 
    499  am_software0_isr           0x000000e3   Wk    1  Code  Hi 
    500  am_software1_isr           0x000000e3   Wk    1  Code  Hi 
    501  am_software2_isr           0x000000e3   Wk    1  Code  Hi 
    502  am_software3_isr           0x000000e3   Wk    1  Code  Hi 
    503  am_stimer_cmpr0_isr        0x000000e3   Wk    1  Code  Hi 
    504  am_stimer_cmpr1_isr        0x000000e3   Wk    1  Code  Hi 
    505  am_stimer_cmpr2_isr        0x000000e3   Wk    1  Code  Hi 
    506  am_stimer_cmpr3_isr        0x000000e3   Wk    1  Code  Hi 
    507  am_stimer_cmpr4_isr        0x000000e3   Wk    1  Code  Hi 
    508  am_stimer_cmpr5_isr        0x000000e3   Wk    1  Code  Hi 
    509  am_stimer_cmpr6_isr        0x000000e3   Wk    1  Code  Hi 
    510  am_stimer_cmpr7_isr        0x000000e3   Wk    1  Code  Hi 
    511  am_stimer_isr              0x000000e3   Wk    1  Code  Hi 
    512  am_svcall_isr              0x000000e3   Wk    1  Code  Hi 
    513  am_systick_isr             0x000000e3   Wk    1  Code  Hi 
    514  am_uart0_isr               0x000000e3   Wk    1  Code  Hi 
    515  am_uart1_isr               0x000000e3   Wk    1  Code  Hi 
    516  am_uart_isr                0x000000e3   Wk    1  Code  Hi 
    517  am_vcomp_isr               0x000000e3   Wk    1  Code  Hi 
    518  am_watchdog_isr            0x000000e3   Wk    1  Code  Hi 
    519  __main                     0x000000e9   Gb    1  Code  Hi   0x8
    520  __scatterload              0x000000f1   Gb    1  Code  Hi 
    521  __scatterload_rt2          0x000000f1   Gb    1  Code  Hi   0x2c
    522  __scatterload_rt2_thumb_only
                                    0x000000f1   Gb    1  Code  Hi 
    523  __scatterload_null         0x000000ff   Gb    1  Code  Hi 
    524  __scatterload_copy         0x00000125   Gb    1  Code  Hi   0x1a
    525  __scatterload_zeroinit     0x00000141   Gb    1  Code  Hi   0x1c
    526  __rt_lib_init              0x0000015d   Gb    1  Code  De 
    527  __rt_lib_init_fp_1         0x0000015f   Gb    1  Code  Hi 
    528  __rt_lib_init_heap_2       0x00000163   Gb    1  Code  Hi 
    529  __rt_lib_init_preinit_1    0x00000163   Gb    1  Code  Hi 
    530  __rt_lib_init_alloca_1     0x0000016b   Gb    1  Code  Hi 
    531  __rt_lib_init_argv_1       0x0000016b   Gb    1  Code  Hi 
    532  __rt_lib_init_atexit_1     0x0000016b   Gb    1  Code  Hi 
    533  __rt_lib_init_clock_1      0x0000016b   Gb    1  Code  Hi 
    534  __rt_lib_init_cpp_1        0x0000016b   Gb    1  Code  Hi 
    535  __rt_lib_init_exceptions_1 0x0000016b   Gb    1  Code  Hi 
    536  __rt_lib_init_fp_trap_1    0x0000016b   Gb    1  Code  Hi 
    537  __rt_lib_init_getenv_1     0x0000016b   Gb    1  Code  Hi 
    538  __rt_lib_init_heap_1       0x0000016b   Gb    1  Code  Hi 
    539  __rt_lib_init_lc_collate_1 0x0000016b   Gb    1  Code  Hi 
    540  __rt_lib_init_lc_ctype_1   0x0000016b   Gb    1  Code  Hi 
    541  __rt_lib_init_lc_monetary_1
                                    0x0000016b   Gb    1  Code  Hi 
    542  __rt_lib_init_lc_numeric_1 0x0000016b   Gb    1  Code  Hi 
    543  __rt_lib_init_lc_time_1    0x0000016b   Gb    1  Code  Hi 
    544  __rt_lib_init_rand_1       0x0000016b   Gb    1  Code  Hi 
    545  __rt_lib_init_return       0x0000016b   Gb    1  Code  Hi 
    546  __rt_lib_init_signal_1     0x0000016b   Gb    1  Code  Hi 
    547  __rt_lib_init_stdio_1      0x0000016b   Gb    1  Code  Hi 
    548  __rt_lib_init_user_alloc_1 0x0000016b   Gb    1  Code  Hi 
    549  __rt_lib_shutdown          0x0000016d   Gb    1  Code  De 
    550  __rt_lib_shutdown_cpp_1    0x0000016f   Gb    1  Code  Hi 
    551  __rt_lib_shutdown_fp_trap_1
                                    0x0000016f   Gb    1  Code  Hi 
    552  __rt_lib_shutdown_heap_1   0x0000016f   Gb    1  Code  Hi 
    553  __rt_lib_shutdown_return   0x0000016f   Gb    1  Code  Hi 
    554  __rt_lib_shutdown_signal_1 0x0000016f   Gb    1  Code  Hi 
    555  __rt_lib_shutdown_stdio_1  0x0000016f   Gb    1  Code  Hi 
    556  __rt_lib_shutdown_user_alloc_1
                                    0x0000016f   Gb    1  Code  Hi 
    557  __rt_entry                 0x00000171   Gb    1  Code  Hi 
    558  __rt_entry_presh_1         0x00000171   Gb    1  Code  Hi 
    559  __rt_entry_sh              0x00000171   Gb    1  Code  Hi 
    560  __rt_entry_li              0x00000177   Gb    1  Code  Hi 
    561  __rt_entry_postsh_1        0x00000177   Gb    1  Code  Hi 
    562  __rt_entry_main            0x0000017b   Gb    1  Code  Hi 
    563  __rt_entry_postli_1        0x0000017b   Gb    1  Code  Hi 
    564  __rt_exit                  0x00000183   Gb    1  Code  De 
    565  __rt_exit_ls               0x00000185   Gb    1  Code  Hi 
    566  __rt_exit_prels_1          0x00000185   Gb    1  Code  Hi 
    567  __rt_exit_exit             0x00000189   Gb    1  Code  Hi 
    568  am_hal_interrupt_master_enable
                                    0x00000191   Gb    1  Code  Hi   0x8
    569  am_hal_interrupt_master_disable
                                    0x00000199   Gb    1  Code  Hi   0x8
    570  am_hal_interrupt_master_set
                                    0x000001a1   Gb    1  Code  Hi   0x6
    571  __user_initial_stackheap   0x000001a9   Gb    1  Code  Hi   0xa
    572  calloc                     0x000001c5   Gb    1  Code  De   0x28
    573  malloc                     0x000001ed   Gb    1  Code  Hi   0x5e
    574  free                       0x0000024b   Gb    1  Code  De   0x4e
    575  __aeabi_uldivmod           0x00000299   Gb    1  Code  De 
    576  _ll_udiv                   0x00000299   Gb    1  Code  De   0xee
    577  __aeabi_memcpy             0x00000387   Gb    1  Code  De 
    578  __rt_memcpy                0x00000387   Gb    1  Code  De   0x8a
    579  _memcpy_lastbytes          0x000003ed   Gb    1  Code  De 
    580  __aeabi_memcpy4            0x00000411   Gb    1  Code  De 
    581  __aeabi_memcpy8            0x00000411   Gb    1  Code  De 
    582  __rt_memcpy_w              0x00000411   Gb    1  Code  De   0x64
    583  _memcpy_lastbytes_aligned  0x00000459   Gb    1  Code  De 
    584  __aeabi_memclr4            0x00000475   Gb    1  Code  De 
    585  __aeabi_memclr8            0x00000475   Gb    1  Code  De 
    586  __rt_memclr_w              0x00000475   Gb    1  Code  De   0x4e
    587  _memset_w                  0x00000479   Gb    1  Code  De 
    588  __use_two_region_memory    0x000004c3   Gb    1  Code  Hi   0x2
    589  __rt_heap_escrow           0x000004c5   Gb    1  Code  De   0x2
    590  __rt_heap_expand           0x000004c7   Gb    1  Code  De   0x2
    591  __rt_heap_descriptor       0x000004c9   Gb    1  Code  De   0x8
    592  __use_no_heap              0x000004d1   Gb    1  Code  Hi   0x2
    593  __heap$guard               0x000004d3   Gb    1  Code  Hi   0x2
    594  _terminate_user_alloc      0x000004d5   Gb    1  Code  De   0x2
    595  _init_user_alloc           0x000004d7   Gb    1  Code  De   0x2
    596  __Heap_Full                0x000004d9   Gb    1  Code  De   0x22
    597  __Heap_Broken              0x000004fb   Gb    1  Code  De   0x6
    598  _init_alloc                0x00000501   Gb    1  Code  Hi   0x5e
    599  __Heap_Initialize          0x0000055f   Gb    1  Code  Hi   0xa
    600  __Heap_DescSize            0x00000569   Gb    1  Code  De   0x4
    601  __read_errno               0x0000056d   Gb    1  Code  De   0xa
    602  __set_errno                0x00000577   Gb    1  Code  De   0xc
    603  __aeabi_memclr             0x00000583   Gb    1  Code  De 
    604  __rt_memclr                0x00000583   Gb    1  Code  De   0x44
    605  _memset                    0x00000587   Gb    1  Code  De 
    606  __user_libspace            0x000005c9   Wk    1  Code  De   0x8
    607  __user_perproc_libspace    0x000005c9   Wk    1  Code  De 
    608  __user_perthread_libspace  0x000005c9   Wk    1  Code  De 
    609  __aeabi_errno_addr         0x000005d1   Gb    1  Code  De   0x8
    610  __errno$intlibspace        0x000005d1   Gb    1  Code  De 
    611  __rt_errno_addr$intlibspace
                                    0x000005d1   Gb    1  Code  De 
    612  __Heap_ProvideMemory       0x000005d9   Gb    1  Code  De   0x34
    613  _maybe_terminate_alloc     0x000005d9   Gb    1  Code  Hi 
    614  __rt_SIGRTMEM              0x0000060d   Gb    1  Code  Hi   0xe
    615  __I$use$semihosting        0x0000061b   Gb    1  Code  Hi 
    616  __use_no_semihosting_swi   0x0000061b   Gb    1  Code  Hi   0x2
    617  __semihosting_library_function
                                    0x0000061d   Gb    1  Code  Hi 
    618  __user_setup_stackheap     0x0000061d   Gb    1  Code  De   0x4a
    619  exit                       0x00000667   Gb    1  Code  De   0x12
    620  __sig_exit                 0x00000679   Gb    1  Code  De   0xa
    621  __rt_SIGRTMEM_inner        0x00000685   Gb    1  Code  De   0x16
    622  _sys_exit                  0x000006d5   Gb    1  Code  De   0x8
    623  __default_signal_display   0x000006e1   Gb    1  Code  De   0x32
    624  _ttywrch                   0x00000713   Gb    1  Code  De   0xe
    625  CyclicCosineForwardShift   0x00000721   Gb    1  Code  Hi   0x34c
    626  Fft_convolveComplex        0x00000a6d   Gb    1  Code  Hi   0x526
    627  Fft_inverseTransform_static
                                    0x00000f95   Gb    1  Code  Hi   0x146
    628  Fft_transformBluestein     0x000010e1   Gb    1  Code  Hi   0x83e
    629  Fft_transformRadix2        0x00001921   Gb    1  Code  Hi   0x836
    630  Fft_transformRadix2_static 0x00002159   Gb    1  Code  Hi   0x4e0
    631  Fft_transform_static       0x00002639   Gb    1  Code  Hi   0x1a
    632  HanningWindow              0x00002659   Gb    1  Code  Hi   0x5c8
    633  InitializeCosineVectorAutoShift
                                    0x00002c21   Gb    1  Code  Hi   0x1b0
    634  LowpassFilter              0x00002dd1   Gb    1  Code  Hi   0x166
    635  OverlapAddHanning          0x00002f39   Gb    1  Code  Hi   0x14c
    636  ProcessData_tweaked        0x00003085   Gb    1  Code  Hi   0x36e
    637  ReturnWindowOutputHanning  0x000033f5   Gb    1  Code  Hi   0x9e
    638  TestSetup                  0x00003499   Gb    1  Code  Hi   0x600
    639  am_fault_isr               0x00003a99   Gb    1  Code  Hi   0xc
    640  am_util_faultisr_collect_data
                                    0x00003aa5   Gb    1  Code  Hi   0xae
    641  am_util_stdio_printf       0x00003b55   Gb    1  Code  Hi   0x3c
    642  am_util_stdio_printf_init  0x00003b91   Gb    1  Code  Hi   0xc
    643  am_util_stdio_terminal_clear
                                    0x00003b9d   Gb    1  Code  Hi   0x1c
    644  am_util_stdio_vsprintf     0x00003bb9   Gb    1  Code  Hi   0x117c
    645  getStackedReg              0x00004d35   Gb    1  Code  Hi   0x8
    646  main                       0x00004d3d   Gb    1  Code  Hi   0x84
    647  __ARM_fpclassify           0x00004dc1   Gb    1  Code  De   0x30
    648  __hardfp_cos               0x00004df1   Gb    1  Code  De   0xb4
    649  __hardfp_sin               0x00004eb9   Gb    1  Code  De   0xb4
    650  __ieee754_rem_pio2         0x00004f81   Gb    1  Code  De   0x3aa
    651  __kernel_cos               0x000053b9   Gb    1  Code  De   0x142
    652  __kernel_poly              0x00005529   Gb    1  Code  De   0xf8
    653  __kernel_sin               0x00005621   Gb    1  Code  De   0x118
    654  __mathlib_dbl_infnan       0x00005751   Gb    1  Code  De   0x14
    655  __mathlib_dbl_invalid      0x00005769   Gb    1  Code  De   0x18
    656  __mathlib_dbl_underflow    0x00005789   Gb    1  Code  De   0x18
    657  am_bsp_debug_printf_disable
                                    0x000057a9   Gb    1  Code  Hi   0x56
    658  am_bsp_debug_printf_enable 0x00005809   Gb    1  Code  Hi   0x5c
    659  am_bsp_itm_string_print    0x00005879   Gb    1  Code  Hi   0x4
    660  am_bsp_low_power_init      0x0000587d   Gb    1  Code  Hi   0x22
    661  am_hal_cachectrl_enable    0x000058a1   Gb    1  Code  Hi   0xcc
    662  am_hal_clkgen_osc_stop     0x00005971   Gb    1  Code  Hi   0x14
    663  am_hal_clkgen_sysclk_get   0x00005985   Gb    1  Code  Hi   0x1c
    664  am_hal_clkgen_sysclk_select
                                    0x000059a9   Gb    1  Code  Hi   0x20
    665  am_hal_ctimer_clear        0x00005a15   Gb    1  Code  Hi   0x24
    666  am_hal_ctimer_period_set   0x00005a3d   Gb    1  Code  Hi   0x70
    667  am_hal_ctimer_start        0x00005ab9   Gb    1  Code  Hi   0x2a
    668  am_hal_debug_error         0x00005ae9   Wk    1  Code  Hi   0x2
    669  am_hal_flash_delay         0x00005aed   Gb    1  Code  Hi   0x6
    670  am_hal_itm_enable          0x00005af9   Gb    1  Code  Hi   0x38
    671  am_hal_itm_not_busy        0x00005b51   Gb    1  Code  Hi   0x12
    672  am_hal_itm_print           0x00005b69   Gb    1  Code  Hi   0x30
    673  am_hal_mcuctrl_fault_status
                                    0x00005b99   Gb    1  Code  Hi   0x34
    674  am_hal_pwrctrl_bucks_disable
                                    0x00005bd1   Gb    1  Code  Hi   0x44
    675  am_hal_pwrctrl_bucks_enable
                                    0x00005c1d   Gb    1  Code  Hi   0x2e
    676  am_hal_pwrctrl_bucks_init  0x00005c51   Gb    1  Code  Hi   0x3c
    677  am_hal_pwrctrl_low_power_init
                                    0x00005c91   Gb    1  Code  Hi   0x14
    678  am_hal_pwrctrl_memory_enable
                                    0x00005ca9   Gb    1  Code  Hi   0x174
    679  am_hal_rtc_osc_disable     0x00005e29   Gb    1  Code  Hi   0xe
    680  am_hal_rtc_osc_select      0x00005e37   Gb    1  Code  Hi   0x16
    681  am_hal_stimer_config       0x00005e4d   Gb    1  Code  Hi   0x3a
    682  am_hal_stimer_counter_get  0x00005e91   Gb    1  Code  Hi   0x8
    683  am_hal_sysctrl_sleep       0x00005e9d   Gb    1  Code  Hi   0xda
    684  am_hal_tpiu_disable        0x00005f89   Gb    1  Code  Hi   0xa
    685  am_hal_tpiu_enable         0x00005f99   Gb    1  Code  Hi   0x74
    686  am_hal_vcomp_disable       0x00006021   Gb    1  Code  Hi   0x8
    687  fabs                       0x0000602d   Gb    1  Code  De   0x18
    688  __aeabi_dneg               0x000060bd   Gb    1  Code  De 
    689  _dneg                      0x000060bd   Gb    1  Code  De   0x6
    690  __aeabi_fneg               0x000060c3   Gb    1  Code  De 
    691  _fneg                      0x000060c3   Gb    1  Code  De   0x6
    692  _dabs                      0x000060c9   Gb    1  Code  De   0x6
    693  _fabs                      0x000060cf   Gb    1  Code  De   0x6
    694  __aeabi_d2f                0x000060d5   Gb    1  Code  De 
    695  _d2f                       0x000060d5   Gb    1  Code  De   0x62
    696  __aeabi_dadd               0x00006139   Gb    1  Code  De 
    697  _dadd                      0x00006139   Gb    1  Code  De   0x14c
    698  __aeabi_ddiv               0x00006289   Gb    1  Code  De 
    699  _ddiv                      0x00006289   Gb    1  Code  De   0x228
    700  __aeabi_d2iz               0x00006539   Gb    1  Code  De 
    701  _dfix                      0x00006539   Gb    1  Code  De   0x5e
    702  __aeabi_d2uiz              0x00006599   Gb    1  Code  De 
    703  _dfixu                     0x00006599   Gb    1  Code  De   0x5a
    704  __aeabi_i2d                0x000065f3   Gb    1  Code  De 
    705  _dflt                      0x000065f3   Gb    1  Code  De   0x2e
    706  __aeabi_ui2d               0x00006621   Gb    1  Code  De 
    707  _dfltu                     0x00006621   Gb    1  Code  De   0x26
    708  __aeabi_ul2d               0x00006649   Gb    1  Code  De 
    709  _ll_uto_d                  0x00006649   Gb    1  Code  De   0x8a
    710  __aeabi_dmul               0x000066d5   Gb    1  Code  De 
    711  _dmul                      0x000066d5   Gb    1  Code  De   0x14c
    712  __fpl_dnaninf              0x00006829   Gb    1  Code  De   0x9c
    713  __fpl_dretinf              0x000068c5   Gb    1  Code  De   0xc
    714  __aeabi_drsub              0x000068d1   Gb    1  Code  De 
    715  _drsb                      0x000068d1   Gb    1  Code  De   0x16
    716  __aeabi_dsub               0x000068e9   Gb    1  Code  De 
    717  _dsub                      0x000068e9   Gb    1  Code  De   0x1d0
    718  __aeabi_f2d                0x00006abd   Gb    1  Code  De 
    719  _f2d                       0x00006abd   Gb    1  Code  De   0x56
    720  __fpl_fnaninf              0x00006b13   Gb    1  Code  De   0x8c
    721  _fp_init                   0x00006b9f   Gb    1  Code  De   0xa
    722  __fplib_config_fpu_vfp     0x00006ba7   Gb    1  Code  De 
    723  __fplib_config_pureend_doubles
                                    0x00006ba7   Gb    1  Code  De 
    724  __fpl_fretinf              0x00006ba9   Gb    1  Code  De   0xa
    725  __I$use$fp                 0x00006bb2   Gb    1   --   Hi 
    726  am_hal_cachectrl_defaults  0x00006bb2   Gb    1  Data  Hi   0xc
    727  Region$$Table$$Base        0x00006ce8   Gb    1   --   Hi 
    728  Region$$Table$$Limit       0x00006d08   Gb    1   --   Hi 
    729  g_ui32HALflags             0x10000000   Gb    2  Data  Hi   0x4
    730  g_am_hal_flash             0x10000004   Gb    2  Data  Hi   0x50
    731  __libspace_start           0x10000070   Gb    3  Data  De   0x60
    732  __temporary_stack_top$libspace
                                    0x100000d0   Gb    3  Data  De 
    733  g_pfnCharPrint             0x100000d4   Gb    3  Data  Hi   0x4


** Section #14 '.strtab' (SHT_STRTAB)
    Size   : 9248 bytes

            #  Offset String
        ====================================

            1      1: $d
            2      4: $t
            3      7: $t.2
            4     12: $d.3
            5     17: $t.8
            6     22: $d.5
            7     27: $t.6
            8     32: $d.2
            9     37: $t.3
           10     42: $d.1
           11     47: $t.10
           12     53: $d.11
           13     59: $t.0
           14     64: $d.10
           15     70: $t.11
           16     76: $d.12
           17     82: $d.9
           18     87: $d.4
           19     92: $t.5
           20     97: $d.realdata
           21    109: testprojekt.c
           22    123: BlackmanNuttall.c
           23    141: CyclicShift.c
           24    155: FFT.c
           25    161: Hanning.c
           26    171: Lowpass.c
           27    181: Utils.c
           28    189: __arm_cp.8_8
           29    202: .L.str
           30    209: am_util_delay.c
           31    225: am_util_faultisr.c
           32    244: am_util_id.c
           33    257: am_util_stdio.c
           34    273: g_bTxtXlate
           35    285: g_prfbuf
           36    294: startup_keil.s
           37    309: STACK
           38    315: StackMem
           39    324: HEAP
           40    329: HeapMem
           41    337: RESET
           42    343: $v0
           43    347: .text
           44    353: ../am_hal_global.c
           45    372: .data
           46    378: ../am_bsp.c
           47    390: i.am_bsp_debug_printf_disable
           48    420: i.am_bsp_debug_printf_enable
           49    449: i.am_bsp_itm_string_print
           50    475: i.am_bsp_low_power_init
           51    499: ../am_hal_cachectrl.c
           52    521: i.am_hal_cachectrl_enable
           53    547: .constdata
           54    558: ../am_hal_clkgen.c
           55    577: i.am_hal_clkgen_osc_stop
           56    602: i.am_hal_clkgen_sysclk_get
           57    629: i.am_hal_clkgen_sysclk_select
           58    659: ../am_hal_flash.c
           59    677: i.am_hal_flash_delay
           60    698: ../am_hal_itm.c
           61    714: i.am_hal_itm_enable
           62    734: i.am_hal_itm_not_busy
           63    756: i.am_hal_itm_print
           64    775: ../am_hal_mcuctrl.c
           65    795: i.am_hal_mcuctrl_fault_status
           66    825: ../am_hal_stimer.c
           67    844: i.am_hal_stimer_config
           68    867: i.am_hal_stimer_counter_get
           69    895: ../am_hal_sysctrl.c
           70    915: i.am_hal_sysctrl_sleep
           71    938: i.setBuckZX
           72    950: setBuckZX
           73    960: g_bBuckRestoreComplete
           74    983: g_ui32BuckTimer
           75    999: g_ui32BuckInputs
           76   1016: g_buckZX_chk
           77   1029: g_ui32SaveCoreBuckZX
           78   1050: g_ui32SaveMemBuckZX
           79   1070: g_ui32CoreBuck
           80   1085: ..\am_hal_ctimer.c
           81   1104: ../am_hal_ctimer.c
           82   1123: i.am_hal_ctimer_clear
           83   1145: i.am_hal_ctimer_period_set
           84   1172: i.am_hal_ctimer_start
           85   1194: ../am_hal_debug.c
           86   1212: i.am_hal_debug_error
           87   1233: ../am_hal_gpio.c
           88   1250: ..\am_hal_interrupt.c
           89   1272: .emb_text
           90   1282: ../am_hal_interrupt.c
           91   1304: ..\am_hal_iom.c
           92   1320: ../am_hal_iom.c
           93   1336: ../am_hal_pwrctrl.c
           94   1356: i.am_hal_pwrctrl_bucks_disable
           95   1387: i.am_hal_pwrctrl_bucks_enable
           96   1417: i.am_hal_pwrctrl_bucks_init
           97   1445: i.am_hal_pwrctrl_low_power_init
           98   1477: i.am_hal_pwrctrl_memory_enable
           99   1508: ../am_hal_rtc.c
          100   1524: i.am_hal_rtc_osc_disable
          101   1549: i.am_hal_rtc_osc_select
          102   1573: ../am_hal_tpiu.c
          103   1590: i.am_hal_tpiu_disable
          104   1612: i.am_hal_tpiu_enable
          105   1633: ../am_hal_uart.c
          106   1650: ../am_hal_vcomp.c
          107   1668: i.am_hal_vcomp_disable
          108   1691: ../am_hal_i2c_bit_bang.c
          109   1716: ../am_hal_queue.c
          110   1734: dc.s
          111   1739: ../clib/heapalloc.c
          112   1759: ../clib/heap1.c
          113   1775: ../clib/heap2.c
          114   1791: ../clib/longlong.s
          115   1810: ../clib/memcpset.s
          116   1829: ../clib/heapaux.c
          117   1847: ../clib/angel/startup.s
          118   1871: !!!main
          119   1879: ../fplib/d2f.s
          120   1894: x$fpl$d2f
          121   1904: ../fplib/daddsub.s
          122   1923: x$fpl$dadd
          123   1934: _dadd1
          124   1941: x$fpl$drsb
          125   1952: x$fpl$dsub
          126   1963: _dsub1
          127   1970: ../fplib/ddiv.s
          128   1986: x$fpl$ddiv
          129   1997: ddiv_entry
          130   2008: ../fplib/dfixu.s
          131   2025: x$fpl$dfixu
          132   2037: ../fplib/dflt.s
          133   2053: x$fpl$dfltu
          134   2065: x$fpl$dflt
          135   2076: ../fplib/dfltll.s
          136   2094: x$fpl$dfltull
          137   2108: ../fplib/dmul.s
          138   2124: x$fpl$dmul
          139   2135: ../fplib/f2d.s
          140   2150: x$fpl$f2d
          141   2160: ../mathlib/cos.c
          142   2177: i.__hardfp_cos
          143   2192: ../mathlib/sin.c
          144   2209: i.__hardfp_sin
          145   2224: ../clib/angel/sys.s
          146   2244: ../clib/angel/kernel.s
          147   2267: .ARM.Collect$$rtentry$$00000000
          148   2299: ../clib/angel/rt.s
          149   2318: ../clib/fenv.c
          150   2333: ../clib/armsys.c
          151   2350: ../clib/libinit.s
          152   2368: .ARM.Collect$$libinit$$00000001
          153   2400: .ARM.Collect$$libinit$$00000004
          154   2432: .ARM.Collect$$libinit$$00000005
          155   2464: .ARM.Collect$$libinit$$0000000A
          156   2496: .ARM.Collect$$libinit$$0000000C
          157   2528: .ARM.Collect$$libinit$$0000000E
          158   2560: .ARM.Collect$$libinit$$00000011
          159   2592: .ARM.Collect$$libinit$$00000013
          160   2624: .ARM.Collect$$libinit$$00000015
          161   2656: .ARM.Collect$$libinit$$00000017
          162   2688: .ARM.Collect$$libinit$$00000019
          163   2720: .ARM.Collect$$libinit$$0000001B
          164   2752: .ARM.Collect$$libinit$$0000001D
          165   2784: .ARM.Collect$$libinit$$0000001F
          166   2816: .ARM.Collect$$libinit$$00000021
          167   2848: .ARM.Collect$$libinit$$00000023
          168   2880: .ARM.Collect$$libinit$$00000025
          169   2912: .ARM.Collect$$libinit$$0000002C
          170   2944: .ARM.Collect$$libinit$$0000002E
          171   2976: .ARM.Collect$$libinit$$00000030
          172   3008: .ARM.Collect$$libinit$$00000032
          173   3040: .ARM.Collect$$libinit$$00000033
          174   3072: ../fplib/basic.s
          175   3089: x$fpl$basic
          176   3101: ../fplib/dnaninf.s
          177   3120: x$fpl$dnaninf
          178   3134: ../fplib/dretinf.s
          179   3153: x$fpl$dretinf
          180   3167: ../fplib/fnaninf.s
          181   3186: x$fpl$fnaninf
          182   3200: ../fplib/fretinf.s
          183   3219: x$fpl$fretinf
          184   3233: ../fplib/usenofp.s
          185   3252: x$fpl$usenofp
          186   3266: ../mathlib/cos_i.c
          187   3285: i.__kernel_cos
          188   3300: C
          189   3302: ../mathlib/dunder.c
          190   3322: i.__mathlib_dbl_infnan
          191   3345: i.__mathlib_dbl_invalid
          192   3369: i.__mathlib_dbl_underflow
          193   3395: ../mathlib/rred.c
          194   3413: i.__ieee754_rem_pio2
          195   3434: pio2s
          196   3440: twooverpi
          197   3450: ../mathlib/sin_i.c
          198   3469: i.__kernel_sin
          199   3484: S
          200   3486: ../clib/angel/sysapp.c
          201   3509: .bss
          202   3514: .ARM.Collect$$rtentry$$00000002
          203   3546: .ARM.Collect$$rtentry$$00000009
          204   3578: .ARM.Collect$$rtentry$$0000000A
          205   3610: .ARM.Collect$$rtentry$$0000000C
          206   3642: .ARM.Collect$$rtentry$$0000000D
          207   3674: .ARM.Collect$$rtentry$$00000004
          208   3706: ../clib/maybe.s
          209   3722: ../clib/signal.c
          210   3739: ../fplib/dfix.s
          211   3755: x$fpl$dfix
          212   3766: ../fplib/fpinit.s
          213   3784: x$fpl$fpinit
          214   3797: ../mathlib/fabs.c
          215   3815: i.fabs
          216   3822: ../mathlib/fpclassify.c
          217   3846: i.__ARM_fpclassify
          218   3865: ../mathlib/poly.c
          219   3883: i.__kernel_poly
          220   3899: ../clib/stdlib.c
          221   3916: ../clib/angel/boardlib.s
          222   3941: .ARM.Collect$$libinit$$00000000
          223   3973: .ARM.Collect$$rtexit$$00000000
          224   4004: .ARM.Collect$$libshutdown$$00000002
          225   4040: .ARM.Collect$$libshutdown$$00000004
          226   4076: .ARM.Collect$$libshutdown$$00000007
          227   4112: .ARM.Collect$$libshutdown$$0000000A
          228   4148: .ARM.Collect$$libshutdown$$0000000C
          229   4184: .ARM.Collect$$libshutdown$$0000000F
          230   4220: .ARM.Collect$$libshutdown$$00000010
          231   4256: .ARM.Collect$$rtexit$$00000002
          232   4287: .ARM.Collect$$rtexit$$00000003
          233   4318: .ARM.Collect$$rtexit$$00000004
          234   4349: ../clib/signal.s
          235   4366: .ARM.Collect$$libshutdown$$00000000
          236   4402: ../clib/angel/scatter.s
          237   4426: !!!scatter
          238   4437: ../clib/angel/handlers.s
          239   4462: !!handler_copy
          240   4477: !!handler_zi
          241   4490: BuildAttributes$$THM_ISAv4$E$P$D$K$B$S$7EM$VFPi3$EXTD16$VFPS$VFMA$PE$A:L22UL41UL21$X:L11$S22US41US21$IEEE1$IW$~IW$USESV6$~STKCKD$USESV7$~SHL$OTIME$ROPI$IEEEX$EBA8$UX$STANDARDLIB$REQ8$EABIv2
          242   4680: __Vectors
          243   4690: Reset_Handler
          244   4704: am_nmi_isr
          245   4715: am_memmanage_isr
          246   4732: am_adc_isr
          247   4743: am_brownout_isr
          248   4759: am_clkgen_isr
          249   4773: am_ctimer_isr
          250   4787: am_debugmon_isr
          251   4803: am_flash_isr
          252   4816: am_gpio_isr
          253   4828: am_iomaster0_isr
          254   4845: am_iomaster1_isr
          255   4862: am_iomaster2_isr
          256   4879: am_iomaster3_isr
          257   4896: am_iomaster4_isr
          258   4913: am_iomaster5_isr
          259   4930: am_ioslave_acc_isr
          260   4949: am_ioslave_ios_isr
          261   4968: am_pdm_isr
          262   4979: am_pendsv_isr
          263   4993: am_software0_isr
          264   5010: am_software1_isr
          265   5027: am_software2_isr
          266   5044: am_software3_isr
          267   5061: am_stimer_cmpr0_isr
          268   5081: am_stimer_cmpr1_isr
          269   5101: am_stimer_cmpr2_isr
          270   5121: am_stimer_cmpr3_isr
          271   5141: am_stimer_cmpr4_isr
          272   5161: am_stimer_cmpr5_isr
          273   5181: am_stimer_cmpr6_isr
          274   5201: am_stimer_cmpr7_isr
          275   5221: am_stimer_isr
          276   5235: am_svcall_isr
          277   5249: am_systick_isr
          278   5264: am_uart0_isr
          279   5277: am_uart1_isr
          280   5290: am_uart_isr
          281   5302: am_vcomp_isr
          282   5315: am_watchdog_isr
          283   5331: __main
          284   5338: __scatterload
          285   5352: __scatterload_rt2
          286   5370: __scatterload_rt2_thumb_only
          287   5399: __scatterload_null
          288   5418: __scatterload_copy
          289   5437: __scatterload_zeroinit
          290   5460: __rt_lib_init
          291   5474: __rt_lib_init_fp_1
          292   5493: __rt_lib_init_heap_2
          293   5514: __rt_lib_init_preinit_1
          294   5538: __rt_lib_init_alloca_1
          295   5561: __rt_lib_init_argv_1
          296   5582: __rt_lib_init_atexit_1
          297   5605: __rt_lib_init_clock_1
          298   5627: __rt_lib_init_cpp_1
          299   5647: __rt_lib_init_exceptions_1
          300   5674: __rt_lib_init_fp_trap_1
          301   5698: __rt_lib_init_getenv_1
          302   5721: __rt_lib_init_heap_1
          303   5742: __rt_lib_init_lc_collate_1
          304   5769: __rt_lib_init_lc_ctype_1
          305   5794: __rt_lib_init_lc_monetary_1
          306   5822: __rt_lib_init_lc_numeric_1
          307   5849: __rt_lib_init_lc_time_1
          308   5873: __rt_lib_init_rand_1
          309   5894: __rt_lib_init_return
          310   5915: __rt_lib_init_signal_1
          311   5938: __rt_lib_init_stdio_1
          312   5960: __rt_lib_init_user_alloc_1
          313   5987: __rt_lib_shutdown
          314   6005: __rt_lib_shutdown_cpp_1
          315   6029: __rt_lib_shutdown_fp_trap_1
          316   6057: __rt_lib_shutdown_heap_1
          317   6082: __rt_lib_shutdown_return
          318   6107: __rt_lib_shutdown_signal_1
          319   6134: __rt_lib_shutdown_stdio_1
          320   6160: __rt_lib_shutdown_user_alloc_1
          321   6191: __rt_entry
          322   6202: __rt_entry_presh_1
          323   6221: __rt_entry_sh
          324   6235: __rt_entry_li
          325   6249: __rt_entry_postsh_1
          326   6269: __rt_entry_main
          327   6285: __rt_entry_postli_1
          328   6305: __rt_exit
          329   6315: __rt_exit_ls
          330   6328: __rt_exit_prels_1
          331   6346: __rt_exit_exit
          332   6361: am_hal_interrupt_master_enable
          333   6392: am_hal_interrupt_master_disable
          334   6424: am_hal_interrupt_master_set
          335   6452: __user_initial_stackheap
          336   6477: calloc
          337   6484: malloc
          338   6491: free
          339   6496: __aeabi_uldivmod
          340   6513: _ll_udiv
          341   6522: __aeabi_memcpy
          342   6537: __rt_memcpy
          343   6549: _memcpy_lastbytes
          344   6567: __aeabi_memcpy4
          345   6583: __aeabi_memcpy8
          346   6599: __rt_memcpy_w
          347   6613: _memcpy_lastbytes_aligned
          348   6639: __aeabi_memclr4
          349   6655: __aeabi_memclr8
          350   6671: __rt_memclr_w
          351   6685: _memset_w
          352   6695: __use_two_region_memory
          353   6719: __rt_heap_escrow
          354   6736: __rt_heap_expand
          355   6753: __rt_heap_descriptor
          356   6774: __use_no_heap
          357   6788: __heap$guard
          358   6801: _terminate_user_alloc
          359   6823: _init_user_alloc
          360   6840: __Heap_Full
          361   6852: __Heap_Broken
          362   6866: _init_alloc
          363   6878: __Heap_Initialize
          364   6896: __Heap_DescSize
          365   6912: __read_errno
          366   6925: __set_errno
          367   6937: __aeabi_memclr
          368   6952: __rt_memclr
          369   6964: _memset
          370   6972: __user_libspace
          371   6988: __user_perproc_libspace
          372   7012: __user_perthread_libspace
          373   7038: __aeabi_errno_addr
          374   7057: __errno$intlibspace
          375   7077: __rt_errno_addr$intlibspace
          376   7105: __Heap_ProvideMemory
          377   7126: _maybe_terminate_alloc
          378   7149: __rt_SIGRTMEM
          379   7163: __I$use$semihosting
          380   7183: __use_no_semihosting_swi
          381   7208: __semihosting_library_function
          382   7239: __user_setup_stackheap
          383   7262: exit
          384   7267: __sig_exit
          385   7278: __rt_SIGRTMEM_inner
          386   7298: _sys_exit
          387   7308: __default_signal_display
          388   7333: _ttywrch
          389   7342: CyclicCosineForwardShift
          390   7367: Fft_convolveComplex
          391   7387: Fft_inverseTransform_static
          392   7415: Fft_transformBluestein
          393   7438: Fft_transformRadix2
          394   7458: Fft_transformRadix2_static
          395   7485: Fft_transform_static
          396   7506: HanningWindow
          397   7520: InitializeCosineVectorAutoShift
          398   7552: LowpassFilter
          399   7566: OverlapAddHanning
          400   7584: ProcessData_tweaked
          401   7604: ReturnWindowOutputHanning
          402   7630: TestSetup
          403   7640: am_fault_isr
          404   7653: am_util_faultisr_collect_data
          405   7683: am_util_stdio_printf
          406   7704: am_util_stdio_printf_init
          407   7730: am_util_stdio_terminal_clear
          408   7759: am_util_stdio_vsprintf
          409   7782: getStackedReg
          410   7796: main
          411   7801: __ARM_fpclassify
          412   7818: __hardfp_cos
          413   7831: __hardfp_sin
          414   7844: __ieee754_rem_pio2
          415   7863: __kernel_cos
          416   7876: __kernel_poly
          417   7890: __kernel_sin
          418   7903: __mathlib_dbl_infnan
          419   7924: __mathlib_dbl_invalid
          420   7946: __mathlib_dbl_underflow
          421   7970: am_bsp_debug_printf_disable
          422   7998: am_bsp_debug_printf_enable
          423   8025: am_bsp_itm_string_print
          424   8049: am_bsp_low_power_init
          425   8071: am_hal_cachectrl_enable
          426   8095: am_hal_clkgen_osc_stop
          427   8118: am_hal_clkgen_sysclk_get
          428   8143: am_hal_clkgen_sysclk_select
          429   8171: am_hal_ctimer_clear
          430   8191: am_hal_ctimer_period_set
          431   8216: am_hal_ctimer_start
          432   8236: am_hal_debug_error
          433   8255: am_hal_flash_delay
          434   8274: am_hal_itm_enable
          435   8292: am_hal_itm_not_busy
          436   8312: am_hal_itm_print
          437   8329: am_hal_mcuctrl_fault_status
          438   8357: am_hal_pwrctrl_bucks_disable
          439   8386: am_hal_pwrctrl_bucks_enable
          440   8414: am_hal_pwrctrl_bucks_init
          441   8440: am_hal_pwrctrl_low_power_init
          442   8470: am_hal_pwrctrl_memory_enable
          443   8499: am_hal_rtc_osc_disable
          444   8522: am_hal_rtc_osc_select
          445   8544: am_hal_stimer_config
          446   8565: am_hal_stimer_counter_get
          447   8591: am_hal_sysctrl_sleep
          448   8612: am_hal_tpiu_disable
          449   8632: am_hal_tpiu_enable
          450   8651: am_hal_vcomp_disable
          451   8672: fabs
          452   8677: __aeabi_dneg
          453   8690: _dneg
          454   8696: __aeabi_fneg
          455   8709: _fneg
          456   8715: _dabs
          457   8721: _fabs
          458   8727: __aeabi_d2f
          459   8739: _d2f
          460   8744: __aeabi_dadd
          461   8757: _dadd
          462   8763: __aeabi_ddiv
          463   8776: _ddiv
          464   8782: __aeabi_d2iz
          465   8795: _dfix
          466   8801: __aeabi_d2uiz
          467   8815: _dfixu
          468   8822: __aeabi_i2d
          469   8834: _dflt
          470   8840: __aeabi_ui2d
          471   8853: _dfltu
          472   8860: __aeabi_ul2d
          473   8873: _ll_uto_d
          474   8883: __aeabi_dmul
          475   8896: _dmul
          476   8902: __fpl_dnaninf
          477   8916: __fpl_dretinf
          478   8930: __aeabi_drsub
          479   8944: _drsb
          480   8950: __aeabi_dsub
          481   8963: _dsub
          482   8969: __aeabi_f2d
          483   8981: _f2d
          484   8986: __fpl_fnaninf
          485   9000: _fp_init
          486   9009: __fplib_config_fpu_vfp
          487   9032: __fplib_config_pureend_doubles
          488   9063: __fpl_fretinf
          489   9077: __I$use$fp
          490   9088: am_hal_cachectrl_defaults
          491   9114: Region$$Table$$Base
          492   9134: Region$$Table$$Limit
          493   9155: g_ui32HALflags
          494   9170: g_am_hal_flash
          495   9185: __libspace_start
          496   9202: __temporary_stack_top$libspace
          497   9233: g_pfnCharPrint


** Section #15 '.note' (SHT_NOTE)
    Size   : 28 bytes (alignment 4)


** Section #16 '.comment' (SHT_PROGBITS)
    Size   : 14788 bytes


** Section #17 '.shstrtab' (SHT_STRTAB)
    Size   : 172 bytes

            #  Offset String
        ====================================

            1      1: FLASH
            2      7: SRAM
            3     12: .debug_abbrev
            4     26: .debug_frame
            5     39: .debug_info
            6     51: .debug_line
            7     63: .debug_loc
            8     74: .debug_pubnames
            9     90: .debug_pubtypes
           10    106: .debug_str
           11    117: .debug_ranges
           12    131: .symtab
           13    139: .strtab
           14    147: .note
           15    153: .comment
           16    162: .shstrtab


